"File: touch-2ch-1key.c  Assembler  Version HGASM0202      Page 1


   1  0000              ; Generated by holtek-gcc v3.19, Sat Oct 25 09:01:01 2025
   2  0000              ; 
   3  0000              ; Configuration:
   4  0000              ;       without long instruction
   5  0000              ;       Single ROM, Multi-RAM
   6  0000              ;       bits_per_rom_unit:16
   7  0000              ;       with mp1
   8  0000              ;       with tbhp, address(0x9)
   9  0000              ;          Use tabrd-const
  10  0000              ;       
  11  0000              ;       
  12  0000              ;       
  13  0000              ; use 'tabrdc' instead of 'tabrd'
  14  0000              ;       
  15  0000              
  16  0000              #pragma translator "holtek-gcc 4.6.4" "3.19" "build 20130711"
  17  0000              ; Rebuild 718
  18  0000              
  19  0000              ir equ [2]
  20  0000              mp equ [3]
  21  0000              sbp equ [1]
  22  0000              acc equ [5]
  23  0000              bp equ [4]
  24  0000              tblp equ [7]
  25  0000              tbhp equ [9]
  26  0000              status equ [10]
  27  0000              c equ [10].0
  28  0000              ac equ [10].1
  29  0000              z equ [10].2
  30  0000              ov equ [10].3
  31  0000              intc equ [11]
  32  0000              
  33  0000              extern ra:byte
  34  0000              extern rb:byte
  35  0000              extern rc:byte
  36  0000              extern rd:byte
  37  0000              extern re:byte
  38  0000              extern rf:byte
  39  0000              extern rg:byte
  40  0000              extern rh:byte
  41  0000              extern _Crom2Prom:near
  42  0000              extern _Crom2PromNext:near
  43  0000              
  44  0000              RAMBANK 0 @HCCINIT, @HCCINIT0
  45  0000              
  46  0000              RAMBANK 0 @BITDATASEC, @BITDATASEC1
  47  0000              @HCCINIT	.section 'data'
  48  0000              @HCCINIT0	.section 'data'
  49  0000              @BITDATASEC	 .section 'data'
  50  0000              @BITDATASEC1	 .section 'data'
  51  0000              
  52  0000              #pragma debug scope 1 1
  53  0000              	extern __DELAY3:near
  54  0000              	extern __DELAYX3:near
  55  0000              	extern __DELAYX6:near
  56  0000              	extern __DELAYY5:near
  57  0000              	extern __DELAYY3:near
  58  0000              	extern _builtin_holtek_delay_2:byte
  59  0000              public _delay_10us
"File: touch-2ch-1key.ASM  Assembler  Version HGASM0202      Page 2

  60  0000              #pragma debug scope 2 1

  11  0000              #line 11 "C:\Users\hamed\OneDrive\Documents\project\htk-project\touch-2ch-1key\DELAY.h"
  11  0000              _delay_10us .section 'code'
  11  0000              _delay_10us proc
  11  0000              public _delay_10us_2
  11  0000  0004[           local _delay_10us_2 db 4 dup(?)	; 4,0
            00
            ]
  11  0004              #pragma debug variable 14 2 _delay_10us_2+0 "count_u"
  15  0004              #line 15 "C:\Users\hamed\OneDrive\Documents\project\htk-project\touch-2ch-1key\DELAY.h"
  15  0000  1F00     E  	clr rd
  15  0001  1F00     E  	clr re
  15  0002  1F00     E  	clr rf
  15  0003  1F00     E  	clr rg
  15  0004  2800     R  	jmp _L2
  15  0005              _L3:
  17  0005              #line 17 "C:\Users\hamed\OneDrive\Documents\project\htk-project\touch-2ch-1key\DELAY.h"
  17  0005              ;# 17 "C:\Users\hamed\OneDrive\Documents\project\htk-project\touch-2ch-1key\DELAY.h" 1
  17  0005  0001        	clr wdt
  18  0006              #line 18 "C:\Users\hamed\OneDrive\Documents\project\htk-project\touch-2ch-1key\DELAY.h"
  18  0006              ;# 18 "C:\Users\hamed\OneDrive\Documents\project\htk-project\touch-2ch-1key\DELAY.h" 1
  18  0006  0000        	nop
  19  0007              #line 19 "C:\Users\hamed\OneDrive\Documents\project\htk-project\touch-2ch-1key\DELAY.h"
  19  0007              ;# 19 "C:\Users\hamed\OneDrive\Documents\project\htk-project\touch-2ch-1key\DELAY.h" 1
  19  0007  0000        	nop
  20  0008              #line 20 "C:\Users\hamed\OneDrive\Documents\project\htk-project\touch-2ch-1key\DELAY.h"
  20  0008              ;# 20 "C:\Users\hamed\OneDrive\Documents\project\htk-project\touch-2ch-1key\DELAY.h" 1
  20  0008  0000        	nop
  21  0009              #line 21 "C:\Users\hamed\OneDrive\Documents\project\htk-project\touch-2ch-1key\DELAY.h"
  21  0009              ;# 21 "C:\Users\hamed\OneDrive\Documents\project\htk-project\touch-2ch-1key\DELAY.h" 1
  21  0009  0000        	nop
  15  000A              #line 15 "C:\Users\hamed\OneDrive\Documents\project\htk-project\touch-2ch-1key\DELAY.h"
  15  000A  0F01        	mov a,1
  15  000B  0380     E  	addm a,rd
  15  000C  0F00        	mov a,0
  15  000D  1380     E  	adcm a,re
  15  000E  1380     E  	adcm a,rf
  15  000F  1380     E  	adcm a,rg
  15  0010              _L2:
  15  0010  0700     E  	mov a,rd
  15  0011  0400     R  	xor a,_delay_10us_2[0]
  15  0012  0700     E  	mov a,re
  15  0013  3D0A        	sz z
  15  0014  0400     R  	xor a,_delay_10us_2[1]
  15  0015  0700     E  	mov a,rf
  15  0016  3D0A        	sz z
  15  0017  0400     R  	xor a,_delay_10us_2[2]
  15  0018  0700     E  	mov a,rg
  15  0019  3D0A        	sz z
  15  001A  0400     R  	xor a,_delay_10us_2[3]
  15  001B  390A        	snz z
  15  001C  2800     R  	jmp _L3
  15  001D  0003        	ret
  15  001E              _delay_10us endp
  15  001E              #line 15 "C:\Users\hamed\OneDrive\Documents\project\htk-project\touch-2ch-1key\DELAY.h"
  15  001E              #pragma debug scope 1 1
  15  001E              public _delay_us
  15  001E              #pragma debug scope 3 1
  28  001E              #line 28 "C:\Users\hamed\OneDrive\Documents\project\htk-project\touch-2ch-1key\DELAY.h"
"File: DELAY.h       Assembler  Version HGASM0202      Page 3

  28  0000              _delay_us .section 'code'
  28  0000              _delay_us proc
  28  0000              public _delay_us_2
  28  0000  0004[           local _delay_us_2 db 4 dup(?)	; 4,0
            00
            ]
  28  0004              #pragma debug variable 14 3 _delay_us_2+0 "count_u"
  32  0004              #line 32 "C:\Users\hamed\OneDrive\Documents\project\htk-project\touch-2ch-1key\DELAY.h"
  32  0000  1F00     E  	clr rd
  32  0001  1F00     E  	clr re
  32  0002  1F00     E  	clr rf
  32  0003  1F00     E  	clr rg
  32  0004  2800     R  	jmp _L6
  32  0005              _L7:
  34  0005              #line 34 "C:\Users\hamed\OneDrive\Documents\project\htk-project\touch-2ch-1key\DELAY.h"
  34  0005              ;# 34 "C:\Users\hamed\OneDrive\Documents\project\htk-project\touch-2ch-1key\DELAY.h" 1
  34  0005  0001        	clr wdt
  35  0006              #line 35 "C:\Users\hamed\OneDrive\Documents\project\htk-project\touch-2ch-1key\DELAY.h"
  35  0006              ;# 35 "C:\Users\hamed\OneDrive\Documents\project\htk-project\touch-2ch-1key\DELAY.h" 1
  35  0006  0000        	nop
  32  0007              #line 32 "C:\Users\hamed\OneDrive\Documents\project\htk-project\touch-2ch-1key\DELAY.h"
  32  0007  0F01        	mov a,1
  32  0008  0380     E  	addm a,rd
  32  0009  0F00        	mov a,0
  32  000A  1380     E  	adcm a,re
  32  000B  1380     E  	adcm a,rf
  32  000C  1380     E  	adcm a,rg
  32  000D              _L6:
  32  000D  0700     E  	mov a,rd
  32  000E  0400     R  	xor a,_delay_us_2[0]
  32  000F  0700     E  	mov a,re
  32  0010  3D0A        	sz z
  32  0011  0400     R  	xor a,_delay_us_2[1]
  32  0012  0700     E  	mov a,rf
  32  0013  3D0A        	sz z
  32  0014  0400     R  	xor a,_delay_us_2[2]
  32  0015  0700     E  	mov a,rg
  32  0016  3D0A        	sz z
  32  0017  0400     R  	xor a,_delay_us_2[3]
  32  0018  390A        	snz z
  32  0019  2800     R  	jmp _L7
  32  001A  0003        	ret
  32  001B              _delay_us endp
  32  001B              #line 32 "C:\Users\hamed\OneDrive\Documents\project\htk-project\touch-2ch-1key\DELAY.h"
  32  001B              #pragma debug scope 1 1
  32  001B              public _delay_ms
  32  001B              #pragma debug scope 4 1
  42  001B              #line 42 "C:\Users\hamed\OneDrive\Documents\project\htk-project\touch-2ch-1key\DELAY.h"
  42  0000              _delay_ms .section 'code'
  42  0000              _delay_ms proc
  42  0000              public _delay_ms_2
  42  0000  0008[           local _delay_ms_2 db 8 dup(?)	; 4,4
            00
            ]
  42  0008              #pragma debug variable 14 4 _delay_ms_2+0 "count_m"
  44  0008              #line 44 "C:\Users\hamed\OneDrive\Documents\project\htk-project\touch-2ch-1key\DELAY.h"
  44  0000  0700     R  	mov a,_delay_ms_2[0]
  44  0001  0080     E  	mov _builtin_holtek_mulsi3_2[0],a
  44  0002  0700     R  	mov a,_delay_ms_2[1]
  44  0003  0080     E  	mov _builtin_holtek_mulsi3_2[1],a
"File: DELAY.h       Assembler  Version HGASM0202      Page 4

  44  0004  0700     R  	mov a,_delay_ms_2[2]
  44  0005  0080     E  	mov _builtin_holtek_mulsi3_2[2],a
  44  0006  0700     R  	mov a,_delay_ms_2[3]
  44  0007  0080     E  	mov _builtin_holtek_mulsi3_2[3],a
  44  0008  0F64        	mov a,100
  44  0009  0080     E  	mov _builtin_holtek_mulsi3_2[4],a
  44  000A  0F00        	mov a,0
  44  000B  0080     E  	mov _builtin_holtek_mulsi3_2[5],a
  44  000C  0F00        	mov a,0
  44  000D  0080     E  	mov _builtin_holtek_mulsi3_2[6],a
  44  000E  0F00        	mov a,0
  44  000F  0080     E  	mov _builtin_holtek_mulsi3_2[7],a
  44  0010  2000     E  	call _builtin_holtek_mulsi3
  44  0011  0700     E  	mov a,_builtin_holtek_mulsi3_2[8]
  44  0012  0080     R  	mov _delay_ms_2[4],a
  44  0013  0700     E  	mov a,_builtin_holtek_mulsi3_2[9]
  44  0014  0080     R  	mov _delay_ms_2[5],a
  44  0015  0700     E  	mov a,_builtin_holtek_mulsi3_2[10]
  44  0016  0080     R  	mov _delay_ms_2[6],a
  44  0017  0700     E  	mov a,_builtin_holtek_mulsi3_2[11]
  44  0018  0080     R  	mov _delay_ms_2[7],a
  45  0019              #line 45 "C:\Users\hamed\OneDrive\Documents\project\htk-project\touch-2ch-1key\DELAY.h"
  45  0019  1F00     E  	clr rd
  45  001A  1F00     E  	clr re
  45  001B  1F00     E  	clr rf
  45  001C  1F00     E  	clr rg
  45  001D  2800     R  	jmp _L9
  45  001E              _L10:
  47  001E              #line 47 "C:\Users\hamed\OneDrive\Documents\project\htk-project\touch-2ch-1key\DELAY.h"
  47  001E              ;# 47 "C:\Users\hamed\OneDrive\Documents\project\htk-project\touch-2ch-1key\DELAY.h" 1
  47  001E  0001        	clr wdt
  48  001F              #line 48 "C:\Users\hamed\OneDrive\Documents\project\htk-project\touch-2ch-1key\DELAY.h"
  48  001F              ;# 48 "C:\Users\hamed\OneDrive\Documents\project\htk-project\touch-2ch-1key\DELAY.h" 1
  48  001F  0000        	nop
  49  0020              #line 49 "C:\Users\hamed\OneDrive\Documents\project\htk-project\touch-2ch-1key\DELAY.h"
  49  0020              ;# 49 "C:\Users\hamed\OneDrive\Documents\project\htk-project\touch-2ch-1key\DELAY.h" 1
  49  0020  0000        	nop
  50  0021              #line 50 "C:\Users\hamed\OneDrive\Documents\project\htk-project\touch-2ch-1key\DELAY.h"
  50  0021              ;# 50 "C:\Users\hamed\OneDrive\Documents\project\htk-project\touch-2ch-1key\DELAY.h" 1
  50  0021  0000        	nop
  51  0022              #line 51 "C:\Users\hamed\OneDrive\Documents\project\htk-project\touch-2ch-1key\DELAY.h"
  51  0022              ;# 51 "C:\Users\hamed\OneDrive\Documents\project\htk-project\touch-2ch-1key\DELAY.h" 1
  51  0022  0000        	nop
  45  0023              #line 45 "C:\Users\hamed\OneDrive\Documents\project\htk-project\touch-2ch-1key\DELAY.h"
  45  0023  0F01        	mov a,1
  45  0024  0380     E  	addm a,rd
  45  0025  0F00        	mov a,0
  45  0026  1380     E  	adcm a,re
  45  0027  1380     E  	adcm a,rf
  45  0028  1380     E  	adcm a,rg
  45  0029              _L9:
  45  0029  0700     E  	mov a,rd
  45  002A  0400     R  	xor a,_delay_ms_2[4]
  45  002B  0700     E  	mov a,re
  45  002C  3D0A        	sz z
  45  002D  0400     R  	xor a,_delay_ms_2[5]
  45  002E  0700     E  	mov a,rf
  45  002F  3D0A        	sz z
  45  0030  0400     R  	xor a,_delay_ms_2[6]
  45  0031  0700     E  	mov a,rg
"File: DELAY.h       Assembler  Version HGASM0202      Page 5

  45  0032  3D0A        	sz z
  45  0033  0400     R  	xor a,_delay_ms_2[7]
  45  0034  390A        	snz z
  45  0035  2800     R  	jmp _L10
  45  0036  0003        	ret
  45  0037              _delay_ms endp
  45  0037              #line 45 "C:\Users\hamed\OneDrive\Documents\project\htk-project\touch-2ch-1key\DELAY.h"
  45  0037              #pragma debug scope 1 1
  45  0037              ___intc0 equ [14]
  45  0037              ___tktmr equ [67]
  45  0037              ___tkc0 equ [68]
  45  0037              ___tkc1 equ [71]
  45  0037              ___tkm0c1 equ [77]
  45  0037              ___tkm0rol equ [74]
  45  0037              ___tkm0roh equ [75]
  45  0037              ___tkm0c0 equ [76]
  45  0037              public _TuochKeyInit
  45  0037              #pragma debug scope 5 1

  94  0037              #line 94 "C:\Users\hamed\OneDrive\Documents\project\htk-project\touch-2ch-1key\2ch-1key.h"
  94  0000              _TuochKeyInit .section 'code'
  94  0000              _TuochKeyInit proc
  96  0000              #line 96 "C:\Users\hamed\OneDrive\Documents\project\htk-project\touch-2ch-1key\2ch-1key.h"
  96  0000  350E        	clr [14].2
  97  0001              #line 97 "C:\Users\hamed\OneDrive\Documents\project\htk-project\touch-2ch-1key\2ch-1key.h"
  97  0001  368E        	clr [14].5
  98  0002              #line 98 "C:\Users\hamed\OneDrive\Documents\project\htk-project\touch-2ch-1key\2ch-1key.h"
  98  0002  1F43        	clr [67]
  99  0003              #line 99 "C:\Users\hamed\OneDrive\Documents\project\htk-project\touch-2ch-1key\2ch-1key.h"
  99  0003  34C4        	clr [68].1
  99  0004  3444        	clr [68].0
 100  0005              #line 100 "C:\Users\hamed\OneDrive\Documents\project\htk-project\touch-2ch-1key\2ch-1key.h"
 100  0005  30C7        	set [71].1
 100  0006  3047        	set [71].0
 103  0007              #line 103 "C:\Users\hamed\OneDrive\Documents\project\htk-project\touch-2ch-1key\2ch-1key.h"
 103  0007  35CD        	clr [77].3
 103  0008  354D        	clr [77].2
 103  0009  34CD        	clr [77].1
 103  000A  304D        	set [77].0
 104  000B              #line 104 "C:\Users\hamed\OneDrive\Documents\project\htk-project\touch-2ch-1key\2ch-1key.h"
 104  000B  0FC8        	mov a,200
 104  000C  00CA        	mov [74],a
 104  000D  1F4B        	clr [75]
 105  000E              #line 105 "C:\Users\hamed\OneDrive\Documents\project\htk-project\touch-2ch-1key\2ch-1key.h"
 105  000E  32CC        	set [76].5
 106  000F              #line 106 "C:\Users\hamed\OneDrive\Documents\project\htk-project\touch-2ch-1key\2ch-1key.h"
 106  000F  324C        	set [76].4
 107  0010              #line 107 "C:\Users\hamed\OneDrive\Documents\project\htk-project\touch-2ch-1key\2ch-1key.h"
 107  0010  35CC        	clr [76].3
 108  0011              #line 108 "C:\Users\hamed\OneDrive\Documents\project\htk-project\touch-2ch-1key\2ch-1key.h"
 108  0011  314C        	set [76].2
 108  0012  30CC        	set [76].1
 108  0013  304C        	set [76].0
 109  0014              #line 109 "C:\Users\hamed\OneDrive\Documents\project\htk-project\touch-2ch-1key\2ch-1key.h"
 109  0014  37CD        	clr [77].7
 110  0015              #line 110 "C:\Users\hamed\OneDrive\Documents\project\htk-project\touch-2ch-1key\2ch-1key.h"
 110  0015  32CD        	set [77].5
 111  0016              #line 111 "C:\Users\hamed\OneDrive\Documents\project\htk-project\touch-2ch-1key\2ch-1key.h"
 111  0016  324D        	set [77].4
 111  0017  0003        	ret
"File: 2ch-1key.h    Assembler  Version HGASM0202      Page 6

 111  0018              _TuochKeyInit endp
 111  0018              #line 111 "C:\Users\hamed\OneDrive\Documents\project\htk-project\touch-2ch-1key\2ch-1key.h"
 111  0018              #pragma debug scope 1 1
 111  0018              ___pa equ [20]
 111  0018              public _Key_Touch
 111  0018              #pragma debug scope 6 1
 115  0018              #line 115 "C:\Users\hamed\OneDrive\Documents\project\htk-project\touch-2ch-1key\2ch-1key.h"
 115  0000              _Key_Touch .section 'code'
 115  0000              _Key_Touch proc
 116  0000              #line 116 "C:\Users\hamed\OneDrive\Documents\project\htk-project\touch-2ch-1key\2ch-1key.h"
 116  0000  3C94        	sz [20].1
 116  0001  2800     R  	jmp _L13
 116  0002              #line 116 "C:\Users\hamed\OneDrive\Documents\project\htk-project\touch-2ch-1key\2ch-1key.h"
 116  0002  3400     R  	clr _function
 116  0003  2800     R  	jmp _L14
 116  0004              _L13:
 117  0004              #line 117 "C:\Users\hamed\OneDrive\Documents\project\htk-project\touch-2ch-1key\2ch-1key.h"
 117  0004  3000     R  	set _function
 117  0005              _L14:
 120  0005              #line 120 "C:\Users\hamed\OneDrive\Documents\project\htk-project\touch-2ch-1key\2ch-1key.h"
 120  0005  0FCE        	mov a,206
 120  0006  0300     R  	add a,_Count_C1[0]
 120  0007  0080     E  	mov rd,a
 120  0008  0FFF        	mov a,255
 120  0009  1300     R  	adc a,_Count_C1[1]
 120  000A  0080     E  	mov re,a
 120  000B  0FFF        	mov a,255
 120  000C  1300     R  	adc a,_Count_C1[2]
 120  000D  0080     E  	mov rf,a
 120  000E  0FFF        	mov a,255
 120  000F  1300     R  	adc a,_Count_C1[3]
 120  0010  0080     E  	mov rg,a
 120  0011  0700     R  	mov a,_Count_S1[0]
 120  0012  0200     E  	sub a,rd
 120  0013  0700     R  	mov a,_Count_S1[1]
 120  0014  1200     E  	sbc a,re
 120  0015  1F05        	clr acc
 120  0016  1200     E  	sbc a,rf
 120  0017  1F05        	clr acc
 120  0018  1200     E  	sbc a,rg
 120  0019  3C0A        	sz c
 120  001A  2800     R  	jmp _L15
 122  001B              #line 122 "C:\Users\hamed\OneDrive\Documents\project\htk-project\touch-2ch-1key\2ch-1key.h"
 122  001B  1480     R  	inc _Count_T1[0]
 122  001C  3D0A        	sz z
 122  001D  1480     R  	inc _Count_T1[1]
 124  001E              #line 124 "C:\Users\hamed\OneDrive\Documents\project\htk-project\touch-2ch-1key\2ch-1key.h"
 124  001E  0700     R  	mov a,_Count_T1[0]
 124  001F  0C3C        	xor a,60
 124  0020  0500     R  	or a,_Count_T1[1]
 124  0021  390A        	snz z
 124  0022  2800     R  	jmp _L17
 126  0023              #line 126 "C:\Users\hamed\OneDrive\Documents\project\htk-project\touch-2ch-1key\2ch-1key.h"
 126  0023  3C00     R  	sz _function
 126  0024  2800     R  	jmp _L19
 127  0025              #line 127 "C:\Users\hamed\OneDrive\Documents\project\htk-project\touch-2ch-1key\2ch-1key.h"
 127  0025  3C00     R  	sz _out1
 127  0026  2800     R  	jmp _L20
 127  0027  3C00     R  	sz _out2
 127  0028  2800     R  	jmp _L20
"File: 2ch-1key.h    Assembler  Version HGASM0202      Page 7

 127  0029  3000     R  	set _out1
 127  002A  0F01        	mov a,1
 127  002B  0080     R  	mov _Setinoff[0],a
 127  002C              _L20:
 128  002C              #line 128 "C:\Users\hamed\OneDrive\Documents\project\htk-project\touch-2ch-1key\2ch-1key.h"
 128  002C  3800     R  	snz _out2
 128  002D  2800     R  	jmp _L19
 128  002E  3400     R  	clr _out2
 128  002F  3400     R  	clr _out1
 128  0030              _L19:
 131  0030              #line 131 "C:\Users\hamed\OneDrive\Documents\project\htk-project\touch-2ch-1key\2ch-1key.h"
 131  0030  3800     R  	snz _function
 131  0031  2800     R  	jmp _L17
 132  0032              #line 132 "C:\Users\hamed\OneDrive\Documents\project\htk-project\touch-2ch-1key\2ch-1key.h"
 132  0032  3C00     R  	sz _out1
 132  0033  2800     R  	jmp _L23
 132  0034  3C00     R  	sz _out2
 132  0035  2800     R  	jmp _L23
 132  0036  3000     R  	set _out1
 132  0037  2800     R  	jmp _L17
 132  0038              _L23:
 133  0038              #line 133 "C:\Users\hamed\OneDrive\Documents\project\htk-project\touch-2ch-1key\2ch-1key.h"
 133  0038  3800     R  	snz _out1
 133  0039  2800     R  	jmp _L24
 133  003A  3C00     R  	sz _out2
 133  003B  2800     R  	jmp _L24
 133  003C  3000     R  	set _out2
 133  003D  2800     R  	jmp _L17
 133  003E              _L24:
 134  003E              #line 134 "C:\Users\hamed\OneDrive\Documents\project\htk-project\touch-2ch-1key\2ch-1key.h"
 134  003E  3800     R  	snz _out1
 134  003F  2800     R  	jmp _L25
 134  0040  3800     R  	snz _out2
 134  0041  2800     R  	jmp _L25
 134  0042  3400     R  	clr _out1
 134  0043  2800     R  	jmp _L17
 134  0044              _L25:
 135  0044              #line 135 "C:\Users\hamed\OneDrive\Documents\project\htk-project\touch-2ch-1key\2ch-1key.h"
 135  0044  3C00     R  	sz _out1
 135  0045  2800     R  	jmp _L17
 135  0046  3800     R  	snz _out2
 135  0047  2800     R  	jmp _L17
 135  0048  3400     R  	clr _out2
 135  0049              _L17:
 138  0049              #line 138 "C:\Users\hamed\OneDrive\Documents\project\htk-project\touch-2ch-1key\2ch-1key.h"
 138  0049  0F2C        	mov a,44
 138  004A  0200     R  	sub a,_Count_T1[0]
 138  004B  0F01        	mov a,1
 138  004C  1200     R  	sbc a,_Count_T1[1]
 138  004D  3C0A        	sz c
 138  004E  2800     R  	jmp _L12
 138  004F  3800     R  	snz _out1
 138  0050  2800     R  	jmp _L12
 138  0051  3C00     R  	sz _out2
 138  0052  2800     R  	jmp _L12
 138  0053  0700     R  	mov a,_ch2change[0]
 138  0054  0500     R  	or a,_ch2change[1]
 138  0055  390A        	snz z
 138  0056  2800     R  	jmp _L12
 138  0057  3C00     R  	sz _function
"File: 2ch-1key.h    Assembler  Version HGASM0202      Page 8

 138  0058  2800     R  	jmp _L12
 138  0059  1080     R  	sz _Setinoff[0]
 138  005A  2800     R  	jmp _L12
 140  005B              #line 140 "C:\Users\hamed\OneDrive\Documents\project\htk-project\touch-2ch-1key\2ch-1key.h"
 140  005B  0F01        	mov a,1
 140  005C  0080     R  	mov _ch2change[0],a
 140  005D  1F00     R  	clr _ch2change[1]
 142  005E              #line 142 "C:\Users\hamed\OneDrive\Documents\project\htk-project\touch-2ch-1key\2ch-1key.h"
 142  005E  0FE8        	mov a,-24
 142  005F  0080     R  	mov _Count_T1[0],a
 142  0060  0F03        	mov a,3
 142  0061  0080     R  	mov _Count_T1[1],a
 144  0062              #line 144 "C:\Users\hamed\OneDrive\Documents\project\htk-project\touch-2ch-1key\2ch-1key.h"
 144  0062  3614        	clr [20].4
 146  0063              #line 146 "C:\Users\hamed\OneDrive\Documents\project\htk-project\touch-2ch-1key\2ch-1key.h"
 146  0063  1F00     R  	clr _counterrgb[0]
 146  0064  1F00     R  	clr _counterrgb[1]
 148  0065              #line 148 "C:\Users\hamed\OneDrive\Documents\project\htk-project\touch-2ch-1key\2ch-1key.h"
 148  0065  3000     R  	set _out2
 148  0066  2800     R  	jmp _L12
 148  0067              _L15:
 151  0067              #line 151 "C:\Users\hamed\OneDrive\Documents\project\htk-project\touch-2ch-1key\2ch-1key.h"
 151  0067  0FF6        	mov a,246
 151  0068  0300     R  	add a,_Count_C1[0]
 151  0069  0080     E  	mov rd,a
 151  006A  0FFF        	mov a,255
 151  006B  1300     R  	adc a,_Count_C1[1]
 151  006C  0080     E  	mov re,a
 151  006D  0FFF        	mov a,255
 151  006E  1300     R  	adc a,_Count_C1[2]
 151  006F  0080     E  	mov rf,a
 151  0070  0FFF        	mov a,255
 151  0071  1300     R  	adc a,_Count_C1[3]
 151  0072  0080     E  	mov rg,a
 151  0073  1080     E  	sz rg
 151  0074  2800     R  	jmp _L12
 151  0075  1080     E  	sz rf
 151  0076  2800     R  	jmp _L12
 151  0077  0700     E  	mov a,rd
 151  0078  0200     R  	sub a,_Count_S1[0]
 151  0079  0700     E  	mov a,re
 151  007A  1200     R  	sbc a,_Count_S1[1]
 151  007B  3C0A        	sz c
 151  007C  2800     R  	jmp _L12
 154  007D              #line 154 "C:\Users\hamed\OneDrive\Documents\project\htk-project\touch-2ch-1key\2ch-1key.h"
 154  007D  0F3B        	mov a,59
 154  007E  0200     R  	sub a,_Count_T1[0]
 154  007F  0F00        	mov a,0
 154  0080  1200     R  	sbc a,_Count_T1[1]
 154  0081  3C0A        	sz c
 154  0082  2800     R  	jmp _L29
 154  0083  0F68        	mov a,104
 154  0084  0200     R  	sub a,_Count_T1[0]
 154  0085  0F01        	mov a,1
 154  0086  1200     R  	sbc a,_Count_T1[1]
 154  0087  380A        	snz c
 154  0088  2800     R  	jmp _L29
 154  0089  0700     R  	mov a,_ch2change[0]
 154  008A  0500     R  	or a,_ch2change[1]
 154  008B  390A        	snz z
"File: 2ch-1key.h    Assembler  Version HGASM0202      Page 9

 154  008C  2800     R  	jmp _L29
 154  008D  3800     R  	snz _out1
 154  008E  2800     R  	jmp _L29
 154  008F  3C00     R  	sz _out2
 154  0090  2800     R  	jmp _L29
 154  0091  3C00     R  	sz _function
 154  0092  2800     R  	jmp _L29
 154  0093  1080     R  	sz _Setinoff[0]
 154  0094  2800     R  	jmp _L29
 154  0095  0700     R  	mov a,_counterrgb[0]
 154  0096  0C58        	xor a,88
 154  0097  0700     R  	mov a,_counterrgb[1]
 154  0098  3D0A        	sz z
 154  0099  0C02        	xor a,2
 154  009A  3D0A        	sz z
 154  009B  2800     R  	jmp _L29
 156  009C              #line 156 "C:\Users\hamed\OneDrive\Documents\project\htk-project\touch-2ch-1key\2ch-1key.h"
 156  009C  3400     R  	clr _out1
 158  009D              #line 158 "C:\Users\hamed\OneDrive\Documents\project\htk-project\touch-2ch-1key\2ch-1key.h"
 158  009D  1F00     R  	clr _CalibrCount[0]
 159  009E              #line 159 "C:\Users\hamed\OneDrive\Documents\project\htk-project\touch-2ch-1key\2ch-1key.h"
 159  009E  1F00     R  	clr _CalibrSample[0]
 160  009F              #line 160 "C:\Users\hamed\OneDrive\Documents\project\htk-project\touch-2ch-1key\2ch-1key.h"
 160  009F  1F00     R  	clr _Count_C1_Backup[0]
 160  00A0  1F00     R  	clr _Count_C1_Backup[1]
 160  00A1  1F00     R  	clr _Count_C1_Backup[2]
 160  00A2  1F00     R  	clr _Count_C1_Backup[3]
 160  00A3              _L29:
 164  00A3              #line 164 "C:\Users\hamed\OneDrive\Documents\project\htk-project\touch-2ch-1key\2ch-1key.h"
 164  00A3  1F00     R  	clr _Count_T1[0]
 164  00A4  1F00     R  	clr _Count_T1[1]
 166  00A5              #line 166 "C:\Users\hamed\OneDrive\Documents\project\htk-project\touch-2ch-1key\2ch-1key.h"
 166  00A5  1F00     R  	clr _ch2change[0]
 166  00A6  1F00     R  	clr _ch2change[1]
 166  00A7  1F00     R  	clr _Setinoff[0]
 166  00A8              _L12:
 166  00A8  0003        	ret
 166  00A9              _Key_Touch endp
 166  00A9              #line 166 "C:\Users\hamed\OneDrive\Documents\project\htk-project\touch-2ch-1key\2ch-1key.h"
 166  00A9              #pragma debug scope 1 1
 166  00A9              ___tkm016dh equ [73]
 166  00A9              ___tkm016dl equ [72]
 166  00A9              public _CalibrTuoch
 166  00A9              #pragma debug scope 7 1
 172  00A9              #line 172 "C:\Users\hamed\OneDrive\Documents\project\htk-project\touch-2ch-1key\2ch-1key.h"
 172  0000              _CalibrTuoch .section 'code'
 172  0000              _CalibrTuoch proc
 172  0000  0002[           local _CalibrTuoch_2 db 2 dup(?)	; 0,2
            00
            ]
 174  0002              #line 174 "C:\Users\hamed\OneDrive\Documents\project\htk-project\touch-2ch-1key\2ch-1key.h"
 174  0000  36C4        	clr [68].5
 175  0001              #line 175 "C:\Users\hamed\OneDrive\Documents\project\htk-project\touch-2ch-1key\2ch-1key.h"
 175  0001  37CC        	clr [76].7
 175  0002  374C        	clr [76].6
 175  0003  0FF4        	mov a,-12
 175  0004  0080     R  	mov _delay_10us_2[0],a
 175  0005  0F01        	mov a,1
 175  0006  0080     R  	mov _delay_10us_2[1],a
 175  0007  1F00     R  	clr _delay_10us_2[2]
"File: 2ch-1key.h    Assembler  Version HGASM0202      Page 10

 175  0008  1F00     R  	clr _delay_10us_2[3]
 175  0009  2000     R  	call _delay_10us
 176  000A              #line 176 "C:\Users\hamed\OneDrive\Documents\project\htk-project\touch-2ch-1key\2ch-1key.h"
 176  000A              ;# 176 "C:\Users\hamed\OneDrive\Documents\project\htk-project\touch-2ch-1key\2ch-1key.h" 1
 176  000A  0001        	clr wdt
 177  000B              #line 177 "C:\Users\hamed\OneDrive\Documents\project\htk-project\touch-2ch-1key\2ch-1key.h"
 177  000B  1F00     R  	clr _i[0]
 177  000C              _L35:
 177  000C              #line 177 "C:\Users\hamed\OneDrive\Documents\project\htk-project\touch-2ch-1key\2ch-1key.h"
 177  000C  0F13        	mov a,19
 177  000D  0200     R  	sub a,_i[0]
 177  000E  380A        	snz c
 177  000F  2800     R  	jmp _L39
 179  0010              #line 179 "C:\Users\hamed\OneDrive\Documents\project\htk-project\touch-2ch-1key\2ch-1key.h"
 179  0010  32CD        	set [77].5
 180  0011              #line 180 "C:\Users\hamed\OneDrive\Documents\project\htk-project\touch-2ch-1key\2ch-1key.h"
 180  0011  324D        	set [77].4
 181  0012              #line 181 "C:\Users\hamed\OneDrive\Documents\project\htk-project\touch-2ch-1key\2ch-1key.h"
 181  0012  32C4        	set [68].5
 183  0013              #line 183 "C:\Users\hamed\OneDrive\Documents\project\htk-project\touch-2ch-1key\2ch-1key.h"
 183  0013              ;# 183 "C:\Users\hamed\OneDrive\Documents\project\htk-project\touch-2ch-1key\2ch-1key.h" 1
 183  0013  0001        	clr wdt
 183  0014              _L37:
 184  0014              #line 184 "C:\Users\hamed\OneDrive\Documents\project\htk-project\touch-2ch-1key\2ch-1key.h"
 184  0014  3B44        	snz [68].6
 184  0015  2800     R  	jmp _L37
 185  0016              #line 185 "C:\Users\hamed\OneDrive\Documents\project\htk-project\touch-2ch-1key\2ch-1key.h"
 185  0016  0749        	mov a,[73]
 185  0017  0080     R  	mov _CalibrTuoch_2[1],a
 185  0018  1F00     R  	clr _CalibrTuoch_2[0]
 185  0019  0700     R  	mov a,_CalibrTuoch_2[1]
 185  001A  0080     R  	mov _Count_S1[1],a
 185  001B  0748        	mov a,[72]
 185  001C  0500     R  	or a,_CalibrTuoch_2[0]
 185  001D  0080     R  	mov _Count_S1[0],a
 186  001E              #line 186 "C:\Users\hamed\OneDrive\Documents\project\htk-project\touch-2ch-1key\2ch-1key.h"
 186  001E  0700     R  	mov a,_Count_S1[0]
 186  001F  0380     R  	addm a,_Count_C1[0]
 186  0020  0700     R  	mov a,_Count_S1[1]
 186  0021  1380     R  	adcm a,_Count_C1[1]
 186  0022  1F05        	clr acc
 186  0023  1380     R  	adcm a,_Count_C1[2]
 186  0024  1380     R  	adcm a,_Count_C1[3]
 187  0025              #line 187 "C:\Users\hamed\OneDrive\Documents\project\htk-project\touch-2ch-1key\2ch-1key.h"
 187  0025  3744        	clr [68].6
 188  0026              #line 188 "C:\Users\hamed\OneDrive\Documents\project\htk-project\touch-2ch-1key\2ch-1key.h"
 188  0026  36C4        	clr [68].5
 189  0027              #line 189 "C:\Users\hamed\OneDrive\Documents\project\htk-project\touch-2ch-1key\2ch-1key.h"
 189  0027              ;# 189 "C:\Users\hamed\OneDrive\Documents\project\htk-project\touch-2ch-1key\2ch-1key.h" 1
 189  0027  0001        	clr wdt
 190  0028              #line 190 "C:\Users\hamed\OneDrive\Documents\project\htk-project\touch-2ch-1key\2ch-1key.h"
 190  0028  0F05        	mov a,5
 190  0029  0080     R  	mov _delay_ms_2[0],a
 190  002A  1F00     R  	clr _delay_ms_2[1]
 190  002B  1F00     R  	clr _delay_ms_2[2]
 190  002C  1F00     R  	clr _delay_ms_2[3]
 190  002D  2000     R  	call _delay_ms
 177  002E              #line 177 "C:\Users\hamed\OneDrive\Documents\project\htk-project\touch-2ch-1key\2ch-1key.h"
 177  002E  1480     R  	inc _i[0]
 177  002F  2800     R  	jmp _L35
"File: 2ch-1key.h    Assembler  Version HGASM0202      Page 11

 177  0030              _L39:
 192  0030              #line 192 "C:\Users\hamed\OneDrive\Documents\project\htk-project\touch-2ch-1key\2ch-1key.h"
 192  0030  1F00     E  	clr _builtin_holtek_udivmodsi4_2[12]
 192  0031  0700     R  	mov a,_Count_C1[0]  
 192  0032  0080     E  	mov _builtin_holtek_udivmodsi4_2[0],a  
 192  0033  0700     R  	mov a,_Count_C1[1]  
 192  0034  0080     E  	mov _builtin_holtek_udivmodsi4_2[1],a
 192  0035  0700     R  	mov a,_Count_C1[2]  
 192  0036  0080     E  	mov _builtin_holtek_udivmodsi4_2[2],a  
 192  0037  0700     R  	mov a,_Count_C1[3]  
 192  0038  0080     E  	mov _builtin_holtek_udivmodsi4_2[3],a
 192  0039  0F14        	mov a,20  
 192  003A  0080     E  	mov _builtin_holtek_udivmodsi4_2[4],a  
 192  003B  0F00        	mov a,0  
 192  003C  0080     E  	mov _builtin_holtek_udivmodsi4_2[5],a
 192  003D  1F00     E  	clr _builtin_holtek_udivmodsi4_2[6]
 192  003E  1F00     E  	clr _builtin_holtek_udivmodsi4_2[7]
 192  003F  2000     E  	call _builtin_holtek_udivmodsi4
 192  0040  0700     E  	mov a,_builtin_holtek_udivmodsi4_2[0]  
 192  0041  0080     R  	mov _Count_C1[0],a  
 192  0042  0700     E  	mov a,_builtin_holtek_udivmodsi4_2[1]  
 192  0043  0080     R  	mov _Count_C1[1],a
 192  0044  0700     E  	mov a,_builtin_holtek_udivmodsi4_2[2]  
 192  0045  0080     R  	mov _Count_C1[2],a  
 192  0046  0700     E  	mov a,_builtin_holtek_udivmodsi4_2[3]  
 192  0047  0080     R  	mov _Count_C1[3],a
 193  0048              #line 193 "C:\Users\hamed\OneDrive\Documents\project\htk-project\touch-2ch-1key\2ch-1key.h"
 193  0048              ;# 193 "C:\Users\hamed\OneDrive\Documents\project\htk-project\touch-2ch-1key\2ch-1key.h" 1
 193  0048  0001        	clr wdt
 193  0049  0003        	ret
 193  004A              _CalibrTuoch endp
 193  004A              #line 193 "C:\Users\hamed\OneDrive\Documents\project\htk-project\touch-2ch-1key\2ch-1key.h"
 193  004A              #pragma debug scope 1 1
 193  004A              public _Key_Select
 193  004A              #pragma debug scope 8 1
 198  004A              #line 198 "C:\Users\hamed\OneDrive\Documents\project\htk-project\touch-2ch-1key\2ch-1key.h"
 198  0000              _Key_Select .section 'code'
 198  0000              _Key_Select proc
 199  0000              #line 199 "C:\Users\hamed\OneDrive\Documents\project\htk-project\touch-2ch-1key\2ch-1key.h"
 199  0000  32CD        	set [77].5
 200  0001              #line 200 "C:\Users\hamed\OneDrive\Documents\project\htk-project\touch-2ch-1key\2ch-1key.h"
 200  0001  324D        	set [77].4
 201  0002              #line 201 "C:\Users\hamed\OneDrive\Documents\project\htk-project\touch-2ch-1key\2ch-1key.h"
 201  0002  32C4        	set [68].5
 202  0003              #line 202 "C:\Users\hamed\OneDrive\Documents\project\htk-project\touch-2ch-1key\2ch-1key.h"
 202  0003  37CC        	clr [76].7
 202  0004  374C        	clr [76].6
 202  0005              _L41:
 203  0005              #line 203 "C:\Users\hamed\OneDrive\Documents\project\htk-project\touch-2ch-1key\2ch-1key.h"
 203  0005  3F44        	sz [68].6
 203  0006  2800     R  	jmp _L47
 203  0007              ;# 203 "C:\Users\hamed\OneDrive\Documents\project\htk-project\touch-2ch-1key\2ch-1key.h" 1
 203  0007  0000        	nop
 203  0008  2800     R  	jmp _L41
 203  0009              _L47:
 204  0009              #line 204 "C:\Users\hamed\OneDrive\Documents\project\htk-project\touch-2ch-1key\2ch-1key.h"
 204  0009  0749        	mov a,[73]
 204  000A  0080     E  	mov rc,a
 204  000B  1F00     E  	clr rb
 204  000C  0700     E  	mov a,rc
"File: 2ch-1key.h    Assembler  Version HGASM0202      Page 12

 204  000D  0080     R  	mov _Count_S1[1],a
 204  000E  0748        	mov a,[72]
 204  000F  0500     E  	or a,rb
 204  0010  0080     R  	mov _Count_S1[0],a
 205  0011              #line 205 "C:\Users\hamed\OneDrive\Documents\project\htk-project\touch-2ch-1key\2ch-1key.h"
 205  0011  0700     R  	mov a,_ch2change[0]
 205  0012  0500     R  	or a,_ch2change[1]
 205  0013  390A        	snz z
 205  0014  2800     R  	jmp _L43
 205  0015  1480     R  	inc _CalibrCount[0]
 205  0016              _L43:
 206  0016              #line 206 "C:\Users\hamed\OneDrive\Documents\project\htk-project\touch-2ch-1key\2ch-1key.h"
 206  0016  0F64        	mov a,100
 206  0017  0200     R  	sub a,_CalibrCount[0]
 206  0018  3C0A        	sz c
 206  0019  2800     R  	jmp _L45
 208  001A              #line 208 "C:\Users\hamed\OneDrive\Documents\project\htk-project\touch-2ch-1key\2ch-1key.h"
 208  001A  1F00     R  	clr _CalibrCount[0]
 209  001B              #line 209 "C:\Users\hamed\OneDrive\Documents\project\htk-project\touch-2ch-1key\2ch-1key.h"
 209  001B  0700     R  	mov a,_Count_S1[0]
 209  001C  0380     R  	addm a,_Count_C1_Backup[0]
 209  001D  0700     R  	mov a,_Count_S1[1]
 209  001E  1380     R  	adcm a,_Count_C1_Backup[1]
 209  001F  1F05        	clr acc
 209  0020  1380     R  	adcm a,_Count_C1_Backup[2]
 209  0021  1380     R  	adcm a,_Count_C1_Backup[3]
 210  0022              #line 210 "C:\Users\hamed\OneDrive\Documents\project\htk-project\touch-2ch-1key\2ch-1key.h"
 210  0022  1480     R  	inc _CalibrSample[0]
 211  0023              #line 211 "C:\Users\hamed\OneDrive\Documents\project\htk-project\touch-2ch-1key\2ch-1key.h"
 211  0023  0F13        	mov a,19
 211  0024  0200     R  	sub a,_CalibrSample[0]
 211  0025  3C0A        	sz c
 211  0026  2800     R  	jmp _L45
 213  0027              #line 213 "C:\Users\hamed\OneDrive\Documents\project\htk-project\touch-2ch-1key\2ch-1key.h"
 213  0027  1F00     R  	clr _CalibrSample[0]
 214  0028              #line 214 "C:\Users\hamed\OneDrive\Documents\project\htk-project\touch-2ch-1key\2ch-1key.h"
 214  0028  1F00     E  	clr _builtin_holtek_udivmodsi4_2[12]
 214  0029  0700     R  	mov a,_Count_C1_Backup[0]  
 214  002A  0080     E  	mov _builtin_holtek_udivmodsi4_2[0],a  
 214  002B  0700     R  	mov a,_Count_C1_Backup[1]  
 214  002C  0080     E  	mov _builtin_holtek_udivmodsi4_2[1],a
 214  002D  0700     R  	mov a,_Count_C1_Backup[2]  
 214  002E  0080     E  	mov _builtin_holtek_udivmodsi4_2[2],a  
 214  002F  0700     R  	mov a,_Count_C1_Backup[3]  
 214  0030  0080     E  	mov _builtin_holtek_udivmodsi4_2[3],a
 214  0031  0F14        	mov a,20  
 214  0032  0080     E  	mov _builtin_holtek_udivmodsi4_2[4],a  
 214  0033  0F00        	mov a,0  
 214  0034  0080     E  	mov _builtin_holtek_udivmodsi4_2[5],a
 214  0035  1F00     E  	clr _builtin_holtek_udivmodsi4_2[6]
 214  0036  1F00     E  	clr _builtin_holtek_udivmodsi4_2[7]
 214  0037  2000     E  	call _builtin_holtek_udivmodsi4
 214  0038  0700     E  	mov a,_builtin_holtek_udivmodsi4_2[0]  
 214  0039  0080     R  	mov _Count_C1[0],a  
 214  003A  0700     E  	mov a,_builtin_holtek_udivmodsi4_2[1]  
 214  003B  0080     R  	mov _Count_C1[1],a
 214  003C  0700     E  	mov a,_builtin_holtek_udivmodsi4_2[2]  
 214  003D  0080     R  	mov _Count_C1[2],a  
 214  003E  0700     E  	mov a,_builtin_holtek_udivmodsi4_2[3]  
 214  003F  0080     R  	mov _Count_C1[3],a
"File: 2ch-1key.h    Assembler  Version HGASM0202      Page 13

 215  0040              #line 215 "C:\Users\hamed\OneDrive\Documents\project\htk-project\touch-2ch-1key\2ch-1key.h"
 215  0040  1F00     R  	clr _Count_C1_Backup[0]
 215  0041  1F00     R  	clr _Count_C1_Backup[1]
 215  0042  1F00     R  	clr _Count_C1_Backup[2]
 215  0043  1F00     R  	clr _Count_C1_Backup[3]
 215  0044              _L45:
 219  0044              #line 219 "C:\Users\hamed\OneDrive\Documents\project\htk-project\touch-2ch-1key\2ch-1key.h"
 219  0044  3744        	clr [68].6
 220  0045              #line 220 "C:\Users\hamed\OneDrive\Documents\project\htk-project\touch-2ch-1key\2ch-1key.h"
 220  0045  36C4        	clr [68].5
 220  0046  0003        	ret
 220  0047              _Key_Select endp
 220  0047              #line 220 "C:\Users\hamed\OneDrive\Documents\project\htk-project\touch-2ch-1key\2ch-1key.h"
 220  0047              #pragma debug scope 1 1
 220  0047              public _TOUCH_ISR
 220  0047              #pragma debug scope 9 1
 226  0047              #line 226 "C:\Users\hamed\OneDrive\Documents\project\htk-project\touch-2ch-1key\2ch-1key.h"
 226  0000              @TOUCH_ISR_code .section at 40 'code'
 226  0000              _TOUCH_ISR:
 226  0000  0004        	reti
 226  0001              #line 226 "C:\Users\hamed\OneDrive\Documents\project\htk-project\touch-2ch-1key\2ch-1key.h"
 226  0001              #pragma debug scope 1 1
 226  0001              public _int0
 226  0001              #pragma debug scope 10 1
 232  0001              #line 232 "C:\Users\hamed\OneDrive\Documents\project\htk-project\touch-2ch-1key\2ch-1key.h"
 232  0000              @int0_code .section at 4 'code'
 232  0000  0080     E  	mov r1,a
 232  0001  070A        	mov a,status
 232  0002  0080     E  	mov r2,a
 232  0003  2800     R  	jmp _int0
 232  0004              #pragma debug scope 1 1
 232  0004              @dummy4 endp
 232  0004              #pragma debug scope 11 1
 232  0000              _int0 .section 'code'
 232  0000              _int0 proc
 235  0000              #line 235 "C:\Users\hamed\OneDrive\Documents\project\htk-project\touch-2ch-1key\2ch-1key.h"
 235  0000  0700     R  	mov a,_ch2change[0]
 235  0001  0500     R  	or a,_ch2change[1]
 235  0002  3D0A        	sz z
 235  0003  2800     R  	jmp _L50
 235  0004              #line 235 "C:\Users\hamed\OneDrive\Documents\project\htk-project\touch-2ch-1key\2ch-1key.h"
 235  0004  1480     R  	inc _counterrgb[0]
 235  0005  3D0A        	sz z
 235  0006  1480     R  	inc _counterrgb[1]
 235  0007              _L50:
 236  0007              #line 236 "C:\Users\hamed\OneDrive\Documents\project\htk-project\touch-2ch-1key\2ch-1key.h"
 236  0007  0F1F        	mov a,31
 236  0008  0200     R  	sub a,_counterrgb[0]
 236  0009  0F4E        	mov a,78
 236  000A  1200     R  	sbc a,_counterrgb[1]
 236  000B  1185        	swap acc
 236  000C  040A        	xor a,status
 236  000D  3985        	snz acc.3
 236  000E  2800     R  	jmp _L51
 236  000F  0F20        	mov a,32
 236  0010  0080     R  	mov _counterrgb[0],a
 236  0011  0F4E        	mov a,78
 236  0012  0080     R  	mov _counterrgb[1],a
 236  0013              _L51:
 238  0013              #line 238 "C:\Users\hamed\OneDrive\Documents\project\htk-project\touch-2ch-1key\2ch-1key.h"
"File: 2ch-1key.h    Assembler  Version HGASM0202      Page 14

 238  0013  0F57        	mov a,87
 238  0014  0200     R  	sub a,_counterrgb[0]
 238  0015  0F02        	mov a,2
 238  0016  1200     R  	sbc a,_counterrgb[1]
 238  0017  1185        	swap acc
 238  0018  040A        	xor a,status
 238  0019  3985        	snz acc.3
 238  001A  2800     R  	jmp _L52
 238  001B  1F00     R  	clr _ch2change[0]
 238  001C  1F00     R  	clr _ch2change[1]
 238  001D              _L52:
 241  001D              #line 241 "C:\Users\hamed\OneDrive\Documents\project\htk-project\touch-2ch-1key\2ch-1key.h"
 241  001D  0700     R  	mov a,_counterrgb[0]
 241  001E  0C0F        	xor a,15
 241  001F  0500     R  	or a,_counterrgb[1]
 241  0020  390A        	snz z
 241  0021  2800     R  	jmp _L53
 241  0022  3214        	set [20].4
 241  0023              _L53:
 242  0023              #line 242 "C:\Users\hamed\OneDrive\Documents\project\htk-project\touch-2ch-1key\2ch-1key.h"
 242  0023  0700     R  	mov a,_counterrgb[0]
 242  0024  0C1E        	xor a,30
 242  0025  0500     R  	or a,_counterrgb[1]
 242  0026  390A        	snz z
 242  0027  2800     R  	jmp _L54
 242  0028  3614        	clr [20].4
 242  0029              _L54:
 243  0029              #line 243 "C:\Users\hamed\OneDrive\Documents\project\htk-project\touch-2ch-1key\2ch-1key.h"
 243  0029  0700     R  	mov a,_counterrgb[0]
 243  002A  0C2D        	xor a,45
 243  002B  0500     R  	or a,_counterrgb[1]
 243  002C  390A        	snz z
 243  002D  2800     R  	jmp _L55
 243  002E  3214        	set [20].4
 243  002F              _L55:
 246  002F              #line 246 "C:\Users\hamed\OneDrive\Documents\project\htk-project\touch-2ch-1key\2ch-1key.h"
 246  002F  0700     R  	mov a,_counter1[0]
 246  0030  0080     R  	mov _ncount[0],a
 246  0031  0700     R  	mov a,_counter1[1]
 246  0032  0080     R  	mov _ncount[1],a
 248  0033              #line 248 "C:\Users\hamed\OneDrive\Documents\project\htk-project\touch-2ch-1key\2ch-1key.h"
 248  0033  1F00     R  	clr _counter1[0]
 248  0034  1F00     R  	clr _counter1[1]
 253  0035              #line 253 "C:\Users\hamed\OneDrive\Documents\project\htk-project\touch-2ch-1key\2ch-1key.h"
 253  0035  3800     R  	snz _out1
 253  0036  2800     R  	jmp _L56
 253  0037  0F31        	mov a,49
 253  0038  0200     R  	sub a,_counterrgb[0]
 253  0039  0F00        	mov a,0
 253  003A  1200     R  	sbc a,_counterrgb[1]
 253  003B  1185        	swap acc
 253  003C  040A        	xor a,status
 253  003D  3985        	snz acc.3
 253  003E  2800     R  	jmp _L56
 255  003F              #line 255 "C:\Users\hamed\OneDrive\Documents\project\htk-project\touch-2ch-1key\2ch-1key.h"
 255  003F  0FFF        	mov a,255
 255  0040  0380     R  	addm a,_counter3[0]
 255  0041  0FFF        	mov a,255
 255  0042  1380     R  	adcm a,_counter3[1]
 257  0043              #line 257 "C:\Users\hamed\OneDrive\Documents\project\htk-project\touch-2ch-1key\2ch-1key.h"
"File: 2ch-1key.h    Assembler  Version HGASM0202      Page 15

 257  0043  3800     R  	snz _counter3[1].7
 257  0044  2800     R  	jmp _L57
 258  0045              #line 258 "C:\Users\hamed\OneDrive\Documents\project\htk-project\touch-2ch-1key\2ch-1key.h"
 258  0045  1F80     R  	set _counter3[0]
 258  0046  1F80     R  	set _counter3[1]
 260  0047              #line 260 "C:\Users\hamed\OneDrive\Documents\project\htk-project\touch-2ch-1key\2ch-1key.h"
 260  0047  3214        	set [20].4
 260  0048  2800     R  	jmp _L56
 260  0049              _L57:
 263  0049              #line 263 "C:\Users\hamed\OneDrive\Documents\project\htk-project\touch-2ch-1key\2ch-1key.h"
 263  0049  3614        	clr [20].4
 263  004A              _L56:
 268  004A              #line 268 "C:\Users\hamed\OneDrive\Documents\project\htk-project\touch-2ch-1key\2ch-1key.h"
 268  004A  3800     R  	snz _out2
 268  004B  2800     R  	jmp _L58
 268  004C  0F31        	mov a,49
 268  004D  0200     R  	sub a,_counterrgb[0]
 268  004E  0F00        	mov a,0
 268  004F  1200     R  	sbc a,_counterrgb[1]
 268  0050  1185        	swap acc
 268  0051  040A        	xor a,status
 268  0052  3985        	snz acc.3
 268  0053  2800     R  	jmp _L58
 270  0054              #line 270 "C:\Users\hamed\OneDrive\Documents\project\htk-project\touch-2ch-1key\2ch-1key.h"
 270  0054  0FFF        	mov a,255
 270  0055  0380     R  	addm a,_counter32[0]
 270  0056  0FFF        	mov a,255
 270  0057  1380     R  	adcm a,_counter32[1]
 272  0058              #line 272 "C:\Users\hamed\OneDrive\Documents\project\htk-project\touch-2ch-1key\2ch-1key.h"
 272  0058  3800     R  	snz _counter32[1].7
 272  0059  2800     R  	jmp _L59
 273  005A              #line 273 "C:\Users\hamed\OneDrive\Documents\project\htk-project\touch-2ch-1key\2ch-1key.h"
 273  005A  1F80     R  	set _counter32[0]
 273  005B  1F80     R  	set _counter32[1]
 275  005C              #line 275 "C:\Users\hamed\OneDrive\Documents\project\htk-project\touch-2ch-1key\2ch-1key.h"
 275  005C  3194        	set [20].3
 275  005D  2800     R  	jmp _L58
 275  005E              _L59:
 278  005E              #line 278 "C:\Users\hamed\OneDrive\Documents\project\htk-project\touch-2ch-1key\2ch-1key.h"
 278  005E  3594        	clr [20].3
 278  005F              _L58:
 286  005F              #line 286 "C:\Users\hamed\OneDrive\Documents\project\htk-project\touch-2ch-1key\2ch-1key.h"
 286  005F  3C00     R  	sz _out1
 286  0060  2800     R  	jmp _L61
 286  0061  0F31        	mov a,49
 286  0062  0200     R  	sub a,_counterrgb[0]
 286  0063  0F00        	mov a,0
 286  0064  1200     R  	sbc a,_counterrgb[1]
 286  0065  1185        	swap acc
 286  0066  040A        	xor a,status
 286  0067  3985        	snz acc.3
 286  0068  2800     R  	jmp _L61
 287  0069              #line 287 "C:\Users\hamed\OneDrive\Documents\project\htk-project\touch-2ch-1key\2ch-1key.h"
 287  0069  3614        	clr [20].4
 290  006A              #line 290 "C:\Users\hamed\OneDrive\Documents\project\htk-project\touch-2ch-1key\2ch-1key.h"
 290  006A  0F50        	mov a,80
 290  006B  0200     R  	sub a,_counter2[0]
 290  006C  0F00        	mov a,0
 290  006D  1200     R  	sbc a,_counter2[1]
 290  006E  1185        	swap acc
"File: 2ch-1key.h    Assembler  Version HGASM0202      Page 16

 290  006F  040A        	xor a,status
 290  0070  3D85        	sz acc.3
 290  0071  2800     R  	jmp _L61
 291  0072              #line 291 "C:\Users\hamed\OneDrive\Documents\project\htk-project\touch-2ch-1key\2ch-1key.h"
 291  0072  0F02        	mov a,2
 291  0073  0380     R  	addm a,_counter2[0]
 291  0074  0F00        	mov a,0
 291  0075  1380     R  	adcm a,_counter2[1]
 291  0076              _L61:
 296  0076              #line 296 "C:\Users\hamed\OneDrive\Documents\project\htk-project\touch-2ch-1key\2ch-1key.h"
 296  0076  3C00     R  	sz _out2
 296  0077  2800     R  	jmp _L49
 296  0078  0F31        	mov a,49
 296  0079  0200     R  	sub a,_counterrgb[0]
 296  007A  0F00        	mov a,0
 296  007B  1200     R  	sbc a,_counterrgb[1]
 296  007C  1185        	swap acc
 296  007D  040A        	xor a,status
 296  007E  3985        	snz acc.3
 296  007F  2800     R  	jmp _L49
 299  0080              #line 299 "C:\Users\hamed\OneDrive\Documents\project\htk-project\touch-2ch-1key\2ch-1key.h"
 299  0080  3594        	clr [20].3
 302  0081              #line 302 "C:\Users\hamed\OneDrive\Documents\project\htk-project\touch-2ch-1key\2ch-1key.h"
 302  0081  0F50        	mov a,80
 302  0082  0200     R  	sub a,_counter22[0]
 302  0083  0F00        	mov a,0
 302  0084  1200     R  	sbc a,_counter22[1]
 302  0085  1185        	swap acc
 302  0086  040A        	xor a,status
 302  0087  3D85        	sz acc.3
 302  0088  2800     R  	jmp _L49
 303  0089              #line 303 "C:\Users\hamed\OneDrive\Documents\project\htk-project\touch-2ch-1key\2ch-1key.h"
 303  0089  0F02        	mov a,2
 303  008A  0380     R  	addm a,_counter22[0]
 303  008B  0F00        	mov a,0
 303  008C  1380     R  	adcm a,_counter22[1]
 303  008D              _L49:
 303  008D  0700     E  	mov a,r2
 303  008E  008A        	mov status,a
 303  008F  0700     E  	mov a,r1
 303  0090  0004        	reti
 303  0091              _int0 endp
 303  0091              
 303  0091              #line 303 "C:\Users\hamed\OneDrive\Documents\project\htk-project\touch-2ch-1key\2ch-1key.h"
 303  0091              #pragma debug scope 1 1
 303  0091              public _timer
 303  0091              #pragma debug scope 12 1
 319  0091              #line 319 "C:\Users\hamed\OneDrive\Documents\project\htk-project\touch-2ch-1key\2ch-1key.h"
 319  0000              @timer_code .section at 12 'code'
 319  0000  0080     E  	mov r1,a
 319  0001  070A        	mov a,status
 319  0002  0080     E  	mov r2,a
 319  0003  2800     R  	jmp _timer
 319  0004              #pragma debug scope 1 1
 319  0004              @dummy12 endp
 319  0004              #pragma debug scope 13 1
 319  0000              _timer .section 'code'
 319  0000              _timer proc
 321  0000              #line 321 "C:\Users\hamed\OneDrive\Documents\project\htk-project\touch-2ch-1key\2ch-1key.h"
 321  0000  1480     R  	inc _counter1[0]
"File: 2ch-1key.h    Assembler  Version HGASM0202      Page 17

 321  0001  3D0A        	sz z
 321  0002  1480     R  	inc _counter1[1]
 325  0003              #line 325 "C:\Users\hamed\OneDrive\Documents\project\htk-project\touch-2ch-1key\2ch-1key.h"
 325  0003  3800     R  	snz _out1
 325  0004  2800     R  	jmp _L70
 325  0005              #line 325 "C:\Users\hamed\OneDrive\Documents\project\htk-project\touch-2ch-1key\2ch-1key.h"
 325  0005  0F31        	mov a,49
 325  0006  0200     R  	sub a,_counterrgb[0]
 325  0007  0F00        	mov a,0
 325  0008  1200     R  	sbc a,_counterrgb[1]
 325  0009  1185        	swap acc
 325  000A  040A        	xor a,status
 325  000B  3985        	snz acc.3
 325  000C  2800     R  	jmp _L70
 327  000D              #line 327 "C:\Users\hamed\OneDrive\Documents\project\htk-project\touch-2ch-1key\2ch-1key.h"
 327  000D  0700     R  	mov a,_counter1[0]
 327  000E  0200     R  	sub a,_counter3[0]
 327  000F  0700     R  	mov a,_counter1[1]
 327  0010  1200     R  	sbc a,_counter3[1]
 327  0011  1185        	swap acc
 327  0012  040A        	xor a,status
 327  0013  3D85        	sz acc.3
 327  0014  2800     R  	jmp _L71
 328  0015              #line 328 "C:\Users\hamed\OneDrive\Documents\project\htk-project\touch-2ch-1key\2ch-1key.h"
 328  0015  3214        	set [20].4
 328  0016              _L71:
 331  0016              #line 331 "C:\Users\hamed\OneDrive\Documents\project\htk-project\touch-2ch-1key\2ch-1key.h"
 331  0016  0700     R  	mov a,_counter3[0]
 331  0017  0080     R  	mov _counter2[0],a
 331  0018  0700     R  	mov a,_counter3[1]
 331  0019  0080     R  	mov _counter2[1],a
 331  001A              _L70:
 334  001A              #line 334 "C:\Users\hamed\OneDrive\Documents\project\htk-project\touch-2ch-1key\2ch-1key.h"
 334  001A  3800     R  	snz _out2
 334  001B  2800     R  	jmp _L72
 334  001C  0F31        	mov a,49
 334  001D  0200     R  	sub a,_counterrgb[0]
 334  001E  0F00        	mov a,0
 334  001F  1200     R  	sbc a,_counterrgb[1]
 334  0020  1185        	swap acc
 334  0021  040A        	xor a,status
 334  0022  3985        	snz acc.3
 334  0023  2800     R  	jmp _L72
 336  0024              #line 336 "C:\Users\hamed\OneDrive\Documents\project\htk-project\touch-2ch-1key\2ch-1key.h"
 336  0024  0700     R  	mov a,_counter1[0]
 336  0025  0200     R  	sub a,_counter32[0]
 336  0026  0700     R  	mov a,_counter1[1]
 336  0027  1200     R  	sbc a,_counter32[1]
 336  0028  1185        	swap acc
 336  0029  040A        	xor a,status
 336  002A  3D85        	sz acc.3
 336  002B  2800     R  	jmp _L73
 337  002C              #line 337 "C:\Users\hamed\OneDrive\Documents\project\htk-project\touch-2ch-1key\2ch-1key.h"
 337  002C  3194        	set [20].3
 337  002D              _L73:
 340  002D              #line 340 "C:\Users\hamed\OneDrive\Documents\project\htk-project\touch-2ch-1key\2ch-1key.h"
 340  002D  0700     R  	mov a,_counter32[0]
 340  002E  0080     R  	mov _counter22[0],a
 340  002F  0700     R  	mov a,_counter32[1]
 340  0030  0080     R  	mov _counter22[1],a
"File: 2ch-1key.h    Assembler  Version HGASM0202      Page 18

 340  0031              _L72:
 344  0031              #line 344 "C:\Users\hamed\OneDrive\Documents\project\htk-project\touch-2ch-1key\2ch-1key.h"
 344  0031  3C00     R  	sz _out1
 344  0032  2800     R  	jmp _L74
 344  0033  0F31        	mov a,49
 344  0034  0200     R  	sub a,_counterrgb[0]
 344  0035  0F00        	mov a,0
 344  0036  1200     R  	sbc a,_counterrgb[1]
 344  0037  1185        	swap acc
 344  0038  040A        	xor a,status
 344  0039  3985        	snz acc.3
 344  003A  2800     R  	jmp _L74
 346  003B              #line 346 "C:\Users\hamed\OneDrive\Documents\project\htk-project\touch-2ch-1key\2ch-1key.h"
 346  003B  0700     R  	mov a,_counter1[0]
 346  003C  0200     R  	sub a,_counter2[0]
 346  003D  0700     R  	mov a,_counter1[1]
 346  003E  1200     R  	sbc a,_counter2[1]
 346  003F  1185        	swap acc
 346  0040  040A        	xor a,status
 346  0041  3D85        	sz acc.3
 346  0042  2800     R  	jmp _L75
 347  0043              #line 347 "C:\Users\hamed\OneDrive\Documents\project\htk-project\touch-2ch-1key\2ch-1key.h"
 347  0043  3214        	set [20].4
 347  0044              _L75:
 349  0044              #line 349 "C:\Users\hamed\OneDrive\Documents\project\htk-project\touch-2ch-1key\2ch-1key.h"
 349  0044  0700     R  	mov a,_ncount[0]
 349  0045  0080     R  	mov _counter3[0],a
 349  0046  0700     R  	mov a,_ncount[1]
 349  0047  0080     R  	mov _counter3[1],a
 349  0048              _L74:
 352  0048              #line 352 "C:\Users\hamed\OneDrive\Documents\project\htk-project\touch-2ch-1key\2ch-1key.h"
 352  0048  3C00     R  	sz _out2
 352  0049  2800     R  	jmp _L69
 352  004A  0F31        	mov a,49
 352  004B  0200     R  	sub a,_counterrgb[0]
 352  004C  0F00        	mov a,0
 352  004D  1200     R  	sbc a,_counterrgb[1]
 352  004E  1185        	swap acc
 352  004F  040A        	xor a,status
 352  0050  3985        	snz acc.3
 352  0051  2800     R  	jmp _L69
 355  0052              #line 355 "C:\Users\hamed\OneDrive\Documents\project\htk-project\touch-2ch-1key\2ch-1key.h"
 355  0052  0700     R  	mov a,_counter1[0]
 355  0053  0200     R  	sub a,_counter22[0]
 355  0054  0700     R  	mov a,_counter1[1]
 355  0055  1200     R  	sbc a,_counter22[1]
 355  0056  1185        	swap acc
 355  0057  040A        	xor a,status
 355  0058  3D85        	sz acc.3
 355  0059  2800     R  	jmp _L77
 356  005A              #line 356 "C:\Users\hamed\OneDrive\Documents\project\htk-project\touch-2ch-1key\2ch-1key.h"
 356  005A  3194        	set [20].3
 356  005B              _L77:
 358  005B              #line 358 "C:\Users\hamed\OneDrive\Documents\project\htk-project\touch-2ch-1key\2ch-1key.h"
 358  005B  0700     R  	mov a,_ncount[0]
 358  005C  0080     R  	mov _counter32[0],a
 358  005D  0700     R  	mov a,_ncount[1]
 358  005E  0080     R  	mov _counter32[1],a
 358  005F              _L69:
 358  005F  0700     E  	mov a,r2
"File: 2ch-1key.h    Assembler  Version HGASM0202      Page 19

 358  0060  008A        	mov status,a
 358  0061  0700     E  	mov a,r1
 358  0062  0004        	reti
 358  0063              _timer endp
 358  0063              
 358  0063              #line 358 "C:\Users\hamed\OneDrive\Documents\project\htk-project\touch-2ch-1key\2ch-1key.h"
 358  0063              #pragma debug scope 1 1
 358  0063              ___integ equ [13]
 358  0063              ___tmrc equ [29]
 358  0063              ___smod equ [11]
 358  0063              ___pac equ [21]
 358  0063              ___papu equ [22]
 358  0063              public _main
 358  0063              #pragma debug scope 14 1

  19  0063              #line 19 "C:\Users\hamed\OneDrive\Documents\project\htk-project\touch-2ch-1key\touch-2ch-1key.c"
  19  0063              IFDEF WITH_DEFAULT_STARTUP
  19  0063              extern _main_initial0:near
  19  0063              extern _main_startup:near
  19  0063              ENDIF
  19  0063              
  19  0063              ROMBANK 0 @start
  19  0000              @start .section com_l 'code'
  19  0000              _main_startup1:
  19  0000              @start .section com_e 'code'
  19  0000  2800     R  	jmp _main
  19  0001              
  19  0000              _main .section 'code'
  19  0000              _main proc
  23  0000              #line 23 "C:\Users\hamed\OneDrive\Documents\project\htk-project\touch-2ch-1key\touch-2ch-1key.c"
  23  0000  308D        	set [13].1
  24  0001              #line 24 "C:\Users\hamed\OneDrive\Documents\project\htk-project\touch-2ch-1key\touch-2ch-1key.c"
  24  0001  300D        	set [13].0
  25  0002              #line 25 "C:\Users\hamed\OneDrive\Documents\project\htk-project\touch-2ch-1key\touch-2ch-1key.c"
  25  0002  308E        	set [14].1
  30  0003              #line 30 "C:\Users\hamed\OneDrive\Documents\project\htk-project\touch-2ch-1key\touch-2ch-1key.c"
  30  0003  369D        	clr [29].5
  31  0004              #line 31 "C:\Users\hamed\OneDrive\Documents\project\htk-project\touch-2ch-1key\touch-2ch-1key.c"
  31  0004  321D        	set [29].4
  33  0005              #line 33 "C:\Users\hamed\OneDrive\Documents\project\htk-project\touch-2ch-1key\touch-2ch-1key.c"
  33  0005  341D        	clr [29].0
  34  0006              #line 34 "C:\Users\hamed\OneDrive\Documents\project\htk-project\touch-2ch-1key\touch-2ch-1key.c"
  34  0006  309D        	set [29].1
  35  0007              #line 35 "C:\Users\hamed\OneDrive\Documents\project\htk-project\touch-2ch-1key\touch-2ch-1key.c"
  35  0007  351D        	clr [29].2
  38  0008              #line 38 "C:\Users\hamed\OneDrive\Documents\project\htk-project\touch-2ch-1key\touch-2ch-1key.c"
  38  0008  300E        	set [14].0
  39  0009              #line 39 "C:\Users\hamed\OneDrive\Documents\project\htk-project\touch-2ch-1key\touch-2ch-1key.c"
  39  0009  300B        	set [11].0
  41  000A              #line 41 "C:\Users\hamed\OneDrive\Documents\project\htk-project\touch-2ch-1key\touch-2ch-1key.c"
  41  000A  330E        	set [14].6
  42  000B              #line 42 "C:\Users\hamed\OneDrive\Documents\project\htk-project\touch-2ch-1key\touch-2ch-1key.c"
  42  000B  318E        	set [14].3
  44  000C              #line 44 "C:\Users\hamed\OneDrive\Documents\project\htk-project\touch-2ch-1key\touch-2ch-1key.c"
  44  000C  0714        	mov a,[20]
  44  000D  0080     E  	mov ra,a
  45  000E              #line 45 "C:\Users\hamed\OneDrive\Documents\project\htk-project\touch-2ch-1key\touch-2ch-1key.c"
  45  000E  3095        	set [21].1
  46  000F              #line 46 "C:\Users\hamed\OneDrive\Documents\project\htk-project\touch-2ch-1key\touch-2ch-1key.c"
  46  000F  3096        	set [22].1
"File: touch-2ch-1key.c  Assembler  Version HGASM0202      Page 20

  48  0010              #line 48 "C:\Users\hamed\OneDrive\Documents\project\htk-project\touch-2ch-1key\touch-2ch-1key.c"
  48  0010  3615        	clr [21].4
  48  0011  3595        	clr [21].3
  48  0012  3515        	clr [21].2
  49  0013              #line 49 "C:\Users\hamed\OneDrive\Documents\project\htk-project\touch-2ch-1key\touch-2ch-1key.c"
  49  0013  3095        	set [21].1
  49  0014  3096        	set [22].1
  50  0015              #line 50 "C:\Users\hamed\OneDrive\Documents\project\htk-project\touch-2ch-1key\touch-2ch-1key.c"
  50  0015  0F01        	mov a,1
  50  0016  0080     R  	mov _delay_ms_2[0],a
  50  0017  1F00     R  	clr _delay_ms_2[1]
  50  0018  1F00     R  	clr _delay_ms_2[2]
  50  0019  1F00     R  	clr _delay_ms_2[3]
  50  001A  2000     R  	call _delay_ms
  51  001B              #line 51 "C:\Users\hamed\OneDrive\Documents\project\htk-project\touch-2ch-1key\touch-2ch-1key.c"
  51  001B  2000     R  	call _TuochKeyInit
  52  001C              #line 52 "C:\Users\hamed\OneDrive\Documents\project\htk-project\touch-2ch-1key\touch-2ch-1key.c"
  52  001C  0F01        	mov a,1
  52  001D  0080     R  	mov _delay_ms_2[0],a
  52  001E  1F00     R  	clr _delay_ms_2[1]
  52  001F  1F00     R  	clr _delay_ms_2[2]
  52  0020  1F00     R  	clr _delay_ms_2[3]
  52  0021  2000     R  	call _delay_ms
  53  0022              #line 53 "C:\Users\hamed\OneDrive\Documents\project\htk-project\touch-2ch-1key\touch-2ch-1key.c"
  53  0022  2000     R  	call _CalibrTuoch
  53  0023              _L79:
  57  0023              #line 57 "C:\Users\hamed\OneDrive\Documents\project\htk-project\touch-2ch-1key\touch-2ch-1key.c"
  57  0023              ;# 57 "C:\Users\hamed\OneDrive\Documents\project\htk-project\touch-2ch-1key\touch-2ch-1key.c" 1
  57  0023  0001        	clr wdt
  58  0024              #line 58 "C:\Users\hamed\OneDrive\Documents\project\htk-project\touch-2ch-1key\touch-2ch-1key.c"
  58  0024  2000     R  	call _Key_Select
  59  0025              #line 59 "C:\Users\hamed\OneDrive\Documents\project\htk-project\touch-2ch-1key\touch-2ch-1key.c"
  59  0025  2000     R  	call _Key_Touch
  59  0026  2800     R  	jmp _L79
  59  0027  2800     R  	jmp $
  59  0028              _main endp
  59  0028              
  59  0028              @dummy endp
  59  0028              
  59  0028              #line 59 "C:\Users\hamed\OneDrive\Documents\project\htk-project\touch-2ch-1key\touch-2ch-1key.c"
  59  0028              #pragma debug scope 1 1
  59  0028              public _Setinoff
  59  0000              @HCCINIT	.section 'data'

  19  0000              #line 19 "C:\Users\hamed\OneDrive\Documents\project\htk-project\touch-2ch-1key\2ch-1key.h"
  19  0000              @HCCINIT .section 'data'
  19  0000              _Setinoff label byte
  19  0000              #pragma debug variable 8 1 _Setinoff "Setinoff"
  19  0000              	db 0
  19  0000              @ROMDATA_BASE .section inpage 'code'
  19  0000              	db 0
  19  0001              @HCCINIT .section 'data'
  19  0001              public _function
  18  0001              #line 18 "C:\Users\hamed\OneDrive\Documents\project\htk-project\touch-2ch-1key\2ch-1key.h"
  18  0000              @BITDATASEC .section 'data'
  18  0000  00          _function	dbit 0
  18  0001              #pragma debug variable 2 1 _function "function"
  18  0001              public _out2
  17  0001              #line 17 "C:\Users\hamed\OneDrive\Documents\project\htk-project\touch-2ch-1key\2ch-1key.h"
  17  0001              @BITDATASEC .section 'data'
"File: 2ch-1key.h    Assembler  Version HGASM0202      Page 21

  17  0000              _out2	dbit 0
  17  0001              #pragma debug variable 2 1 _out2 "out2"
  17  0001              public _out1
  17  0001              #line 17 "C:\Users\hamed\OneDrive\Documents\project\htk-project\touch-2ch-1key\2ch-1key.h"
  17  0001              @BITDATASEC .section 'data'
  17  0000              _out1	dbit 0
  17  0001              #pragma debug variable 2 1 _out1 "out1"
  17  0001              public _counter32
  16  0001              #line 16 "C:\Users\hamed\OneDrive\Documents\project\htk-project\touch-2ch-1key\2ch-1key.h"
  16  0001              @HCCINIT .section 'data'
  16  0001              _counter32 label byte
  16  0001              #pragma debug variable 11 1 _counter32 "counter32"
  16  0001              	db 0
  16  0001              @ROMDATA_BASE .section inpage 'code'
  16  0001              	db 0
  16  0002              @HCCINIT .section 'data'
  16  0002              	db 0
  16  0001              @ROMDATA_BASE .section inpage 'code'
  16  0001              	db 0
  16  0003              @HCCINIT .section 'data'
  16  0003              public _counter22
  15  0003              #line 15 "C:\Users\hamed\OneDrive\Documents\project\htk-project\touch-2ch-1key\2ch-1key.h"
  15  0003              @HCCINIT .section 'data'
  15  0003              _counter22 label byte
  15  0003              #pragma debug variable 11 1 _counter22 "counter22"
  15  0003              	db 0
  15  0002              @ROMDATA_BASE .section inpage 'code'
  15  0002              	db 0
  15  0004              @HCCINIT .section 'data'
  15  0004              	db 0
  15  0002              @ROMDATA_BASE .section inpage 'code'
  15  0002              	db 0
  15  0005              @HCCINIT .section 'data'
  15  0005              public _counter3
  14  0005              #line 14 "C:\Users\hamed\OneDrive\Documents\project\htk-project\touch-2ch-1key\2ch-1key.h"
  14  0005              @HCCINIT .section 'data'
  14  0005              _counter3 label byte
  14  0005              #pragma debug variable 11 1 _counter3 "counter3"
  14  0005              	db 0
  14  0003              @ROMDATA_BASE .section inpage 'code'
  14  0003              	db 0
  14  0006              @HCCINIT .section 'data'
  14  0006              	db 0
  14  0003              @ROMDATA_BASE .section inpage 'code'
  14  0003              	db 0
  14  0007              @HCCINIT .section 'data'
  14  0007              public _counter2
  13  0007              #line 13 "C:\Users\hamed\OneDrive\Documents\project\htk-project\touch-2ch-1key\2ch-1key.h"
  13  0007              @HCCINIT .section 'data'
  13  0007              _counter2 label byte
  13  0007              #pragma debug variable 11 1 _counter2 "counter2"
  13  0007              	db 0
  13  0004              @ROMDATA_BASE .section inpage 'code'
  13  0004              	db 0
  13  0008              @HCCINIT .section 'data'
  13  0008              	db 0
  13  0004              @ROMDATA_BASE .section inpage 'code'
  13  0004              	db 0
  13  0009              @HCCINIT .section 'data'
  13  0009              public _counter1
"File: 2ch-1key.h    Assembler  Version HGASM0202      Page 22

  12  0009              #line 12 "C:\Users\hamed\OneDrive\Documents\project\htk-project\touch-2ch-1key\2ch-1key.h"
  12  0009              @HCCINIT .section 'data'
  12  0009              _counter1 label byte
  12  0009              #pragma debug variable 11 1 _counter1 "counter1"
  12  0009              	db 0
  12  0005              @ROMDATA_BASE .section inpage 'code'
  12  0005              	db 0
  12  000A              @HCCINIT .section 'data'
  12  000A              	db 0
  12  0005              @ROMDATA_BASE .section inpage 'code'
  12  0005              	db 0
  12  000B              @HCCINIT .section 'data'
  12  000B              public _ncount
  11  000B              #line 11 "C:\Users\hamed\OneDrive\Documents\project\htk-project\touch-2ch-1key\2ch-1key.h"
  11  000B              @HCCINIT .section 'data'
  11  000B              _ncount label byte
  11  000B              #pragma debug variable 11 1 _ncount "ncount"
  11  000B              	db 0
  11  0006              @ROMDATA_BASE .section inpage 'code'
  11  0006              	db 0
  11  000C              @HCCINIT .section 'data'
  11  000C              	db 0
  11  0006              @ROMDATA_BASE .section inpage 'code'
  11  0006              	db 0
  11  000D              @HCCINIT .section 'data'
  11  000D              public _counterrgb
   9  000D              #line 9 "C:\Users\hamed\OneDrive\Documents\project\htk-project\touch-2ch-1key\2ch-1key.h"
   9  000D              @HCCINIT .section 'data'
   9  000D              _counterrgb label byte
   9  000D              #pragma debug variable 11 1 _counterrgb "counterrgb"
   9  000D              	dw 15000
   9  0007              @ROMDATA_BASE .section inpage 'code'
   9  0007  3A98        	dc 15000
   9  000F              @HCCINIT .section 'data'
   9  000F              public _rgbpals
   9  000F              #line 9 "C:\Users\hamed\OneDrive\Documents\project\htk-project\touch-2ch-1key\2ch-1key.h"
   9  000F              @HCCINIT .section 'data'
   9  000F              _rgbpals label byte
   9  000F              #pragma debug variable 11 1 _rgbpals "rgbpals"
   9  000F              	db 0
   9  0008              @ROMDATA_BASE .section inpage 'code'
   9  0008              	db 0
   9  0010              @HCCINIT .section 'data'
   9  0010              	db 0
   9  0008              @ROMDATA_BASE .section inpage 'code'
   9  0008              	db 0
   9  0011              @HCCINIT .section 'data'
   9  0011              public _rgb2
   9  0011              #line 9 "C:\Users\hamed\OneDrive\Documents\project\htk-project\touch-2ch-1key\2ch-1key.h"
   9  0011              @HCCINIT .section 'data'
   9  0011              _rgb2 label byte
   9  0011              #pragma debug variable 11 1 _rgb2 "rgb2"
   9  0011              	db 0
   9  0009              @ROMDATA_BASE .section inpage 'code'
   9  0009              	db 0
   9  0012              @HCCINIT .section 'data'
   9  0012              	db 0
   9  0009              @ROMDATA_BASE .section inpage 'code'
   9  0009              	db 0
   9  0013              @HCCINIT .section 'data'
"File: 2ch-1key.h    Assembler  Version HGASM0202      Page 23

   9  0013              public _rgb1
   9  0013              #line 9 "C:\Users\hamed\OneDrive\Documents\project\htk-project\touch-2ch-1key\2ch-1key.h"
   9  0013              @HCCINIT .section 'data'
   9  0013              _rgb1 label byte
   9  0013              #pragma debug variable 11 1 _rgb1 "rgb1"
   9  0013              	db 0
   9  000A              @ROMDATA_BASE .section inpage 'code'
   9  000A              	db 0
   9  0014              @HCCINIT .section 'data'
   9  0014              	db 0
   9  000A              @ROMDATA_BASE .section inpage 'code'
   9  000A              	db 0
   9  0015              @HCCINIT .section 'data'
   9  0015              public _changeconter
   9  0015              #line 9 "C:\Users\hamed\OneDrive\Documents\project\htk-project\touch-2ch-1key\2ch-1key.h"
   9  0015              @HCCINIT .section 'data'
   9  0015              _changeconter label byte
   9  0015              #pragma debug variable 11 1 _changeconter "changeconter"
   9  0015              	db 0
   9  000B              @ROMDATA_BASE .section inpage 'code'
   9  000B              	db 0
   9  0016              @HCCINIT .section 'data'
   9  0016              	db 0
   9  000B              @ROMDATA_BASE .section inpage 'code'
   9  000B              	db 0
   9  0017              @HCCINIT .section 'data'
   9  0017              public _ch2change
   9  0017              #line 9 "C:\Users\hamed\OneDrive\Documents\project\htk-project\touch-2ch-1key\2ch-1key.h"
   9  0017              @HCCINIT .section 'data'
   9  0017              _ch2change label byte
   9  0017              #pragma debug variable 11 1 _ch2change "ch2change"
   9  0017              	db 0
   9  000C              @ROMDATA_BASE .section inpage 'code'
   9  000C              	db 0
   9  0018              @HCCINIT .section 'data'
   9  0018              	db 0
   9  000C              @ROMDATA_BASE .section inpage 'code'
   9  000C              	db 0
   9  0019              @HCCINIT .section 'data'
   9  0019              public _nsicl
   7  0019              #line 7 "C:\Users\hamed\OneDrive\Documents\project\htk-project\touch-2ch-1key\2ch-1key.h"
   7  0019              @HCCINIT .section 'data'
   7  0019              _nsicl label byte
   7  0019              #pragma debug variable 11 1 _nsicl "nsicl"
   7  0019              	dw 80
   7  000D              @ROMDATA_BASE .section inpage 'code'
   7  000D  0050        	dc 80
   7  001B              @HCCINIT .section 'data'
   7  001B              public _CalibrSample
   4  001B              #line 4 "C:\Users\hamed\OneDrive\Documents\project\htk-project\touch-2ch-1key\2ch-1key.h"
   4  001B              @HCCINIT .section 'data'
   4  001B              _CalibrSample label byte
   4  001B              #pragma debug variable 8 1 _CalibrSample "CalibrSample"
   4  001B              	db 0
   4  000E              @ROMDATA_BASE .section inpage 'code'
   4  000E              	db 0
   4  001C              @HCCINIT .section 'data'
   4  001C              public _CalibrCount
   4  001C              #line 4 "C:\Users\hamed\OneDrive\Documents\project\htk-project\touch-2ch-1key\2ch-1key.h"
   4  001C              @HCCINIT .section 'data'
"File: 2ch-1key.h    Assembler  Version HGASM0202      Page 24

   4  001C              _CalibrCount label byte
   4  001C              #pragma debug variable 8 1 _CalibrCount "CalibrCount"
   4  001C              	db 0
   4  000E              @ROMDATA_BASE .section inpage 'code'
   4  000E              	db 0
   4  001D              @HCCINIT .section 'data'
   4  001D              public _counter
   4  001D              #line 4 "C:\Users\hamed\OneDrive\Documents\project\htk-project\touch-2ch-1key\2ch-1key.h"
   4  001D              @HCCINIT .section 'data'
   4  001D              _counter label byte
   4  001D              #pragma debug variable 8 1 _counter "counter"
   4  001D              	db 0
   4  000F              @ROMDATA_BASE .section inpage 'code'
   4  000F              	db 0
   4  001E              @HCCINIT .section 'data'
   4  001E              public _i
   4  001E              #line 4 "C:\Users\hamed\OneDrive\Documents\project\htk-project\touch-2ch-1key\2ch-1key.h"
   4  001E              @HCCINIT .section 'data'
   4  001E              _i label byte
   4  001E              #pragma debug variable 8 1 _i "i"
   4  001E              	db 0
   4  000F              @ROMDATA_BASE .section inpage 'code'
   4  000F              	db 0
   4  001F              @HCCINIT .section 'data'
   4  001F              public _Count_T1
   3  001F              #line 3 "C:\Users\hamed\OneDrive\Documents\project\htk-project\touch-2ch-1key\2ch-1key.h"
   3  001F              @HCCINIT .section 'data'
   3  001F              _Count_T1 label byte
   3  001F              #pragma debug variable 12 1 _Count_T1 "Count_T1"
   3  001F              	db 0
   3  0010              @ROMDATA_BASE .section inpage 'code'
   3  0010              	db 0
   3  0020              @HCCINIT .section 'data'
   3  0020              	db 0
   3  0010              @ROMDATA_BASE .section inpage 'code'
   3  0010              	db 0
   3  0021              @HCCINIT .section 'data'
   3  0021              public _Count_S1
   2  0021              #line 2 "C:\Users\hamed\OneDrive\Documents\project\htk-project\touch-2ch-1key\2ch-1key.h"
   2  0021              @HCCINIT .section 'data'
   2  0021              _Count_S1 label byte
   2  0021              #pragma debug variable 12 1 _Count_S1 "Count_S1"
   2  0021              	db 0
   2  0011              @ROMDATA_BASE .section inpage 'code'
   2  0011              	db 0
   2  0022              @HCCINIT .section 'data'
   2  0022              	db 0
   2  0011              @ROMDATA_BASE .section inpage 'code'
   2  0011              	db 0
   2  0023              @HCCINIT .section 'data'
   2  0023              public _Count_C1_Backup
   1  0023              #line 1 "C:\Users\hamed\OneDrive\Documents\project\htk-project\touch-2ch-1key\2ch-1key.h"
   1  0023              @HCCINIT .section 'data'
   1  0023              _Count_C1_Backup label byte
   1  0023              #pragma debug variable 14 1 _Count_C1_Backup "Count_C1_Backup"
   1  0023              	db 0
   1  0012              @ROMDATA_BASE .section inpage 'code'
   1  0012              	db 0
   1  0024              @HCCINIT .section 'data'
   1  0024              	db 0
"File: 2ch-1key.h    Assembler  Version HGASM0202      Page 25

   1  0012              @ROMDATA_BASE .section inpage 'code'
   1  0012              	db 0
   1  0025              @HCCINIT .section 'data'
   1  0025              	db 0
   1  0013              @ROMDATA_BASE .section inpage 'code'
   1  0013              	db 0
   1  0026              @HCCINIT .section 'data'
   1  0026              	db 0
   1  0013              @ROMDATA_BASE .section inpage 'code'
   1  0013              	db 0
   1  0027              @HCCINIT .section 'data'
   1  0027              public _Count_C1
   1  0027              #line 1 "C:\Users\hamed\OneDrive\Documents\project\htk-project\touch-2ch-1key\2ch-1key.h"
   1  0027              @HCCINIT .section 'data'
   1  0027              _Count_C1 label byte
   1  0027              #pragma debug variable 14 1 _Count_C1 "Count_C1"
   1  0027              	db 0
   1  0014              @ROMDATA_BASE .section inpage 'code'
   1  0014              	db 0
   1  0028              @HCCINIT .section 'data'
   1  0028              	db 0
   1  0014              @ROMDATA_BASE .section inpage 'code'
   1  0014              	db 0
   1  0029              @HCCINIT .section 'data'
   1  0029              	db 0
   1  0015              @ROMDATA_BASE .section inpage 'code'
   1  0015              	db 0
   1  002A              @HCCINIT .section 'data'
   1  002A              	db 0
   1  0015              @ROMDATA_BASE .section inpage 'code'
   1  0015              	db 0
   1  002B              @HCCINIT .section 'data'
   1  002B              #pragma debug struct_end
   1  002B              #pragma debug struct_end
   1  002B              #pragma debug union_end
   1  002B              #pragma debug union_end
   1  002B              #pragma debug variable 43 1 ___smod "__smod" 1
   1  002B              #pragma debug struct_end
   1  002B              #pragma debug struct_end
   1  002B              #pragma debug union_end
   1  002B              #pragma debug union_end
   1  002B              #pragma debug variable 45 1 ___integ "__integ" 1
   1  002B              #pragma debug struct_end
   1  002B              #pragma debug struct_end
   1  002B              #pragma debug union_end
   1  002B              #pragma debug union_end
   1  002B              #pragma debug variable 47 1 ___intc0 "__intc0" 1
   1  002B              #pragma debug struct_end
   1  002B              #pragma debug struct_end
   1  002B              #pragma debug union_end
   1  002B              #pragma debug union_end
   1  002B              #pragma debug variable 49 1 ___pa "__pa" 1
   1  002B              #pragma debug struct_end
   1  002B              #pragma debug struct_end
   1  002B              #pragma debug union_end
   1  002B              #pragma debug union_end
   1  002B              #pragma debug variable 51 1 ___pac "__pac" 1
   1  002B              #pragma debug struct_end
   1  002B              #pragma debug struct_end
   1  002B              #pragma debug union_end
"File: 2ch-1key.h    Assembler  Version HGASM0202      Page 26

   1  002B              #pragma debug union_end
   1  002B              #pragma debug variable 53 1 ___papu "__papu" 1
   1  002B              #pragma debug struct_end
   1  002B              #pragma debug struct_end
   1  002B              #pragma debug union_end
   1  002B              #pragma debug union_end
   1  002B              #pragma debug variable 55 1 ___tmrc "__tmrc" 1
   1  002B              #pragma debug variable 8 1 ___tktmr "__tktmr" 1
   1  002B              #pragma debug struct_end
   1  002B              #pragma debug struct_end
   1  002B              #pragma debug union_end
   1  002B              #pragma debug union_end
   1  002B              #pragma debug variable 57 1 ___tkc0 "__tkc0" 1
   1  002B              #pragma debug struct_end
   1  002B              #pragma debug struct_end
   1  002B              #pragma debug union_end
   1  002B              #pragma debug union_end
   1  002B              #pragma debug variable 59 1 ___tkc1 "__tkc1" 1
   1  002B              #pragma debug variable 8 1 ___tkm016dl "__tkm016dl" 1
   1  002B              #pragma debug variable 8 1 ___tkm016dh "__tkm016dh" 1
   1  002B              #pragma debug variable 8 1 ___tkm0rol "__tkm0rol" 1
   1  002B              #pragma debug variable 8 1 ___tkm0roh "__tkm0roh" 1
   1  002B              #pragma debug struct_end
   1  002B              #pragma debug struct_end
   1  002B              #pragma debug union_end
   1  002B              #pragma debug union_end
   1  002B              #pragma debug variable 61 1 ___tkm0c0 "__tkm0c0" 1
   1  002B              #pragma debug struct_end
   1  002B              #pragma debug struct_end
   1  002B              #pragma debug union_end
   1  002B              #pragma debug union_end
   1  002B              #pragma debug variable 63 1 ___tkm0c1 "__tkm0c1" 1
   1  002B              extern r1:byte
   1  002B              extern r2:byte

  19  002B              #line 19 "C:\Users\hamed\OneDrive\Documents\project\htk-project\touch-2ch-1key\touch-2ch-1key.c"
  19  0000              @code .section at 0 'code'
  19  0000  2800     R  	jmp _main_startup1
  19  0001              
  19  0001              extern _builtin_holtek_mulsi3_2:byte
  19  0001              extern _builtin_holtek_mulsi3:near
  19  0001              extern _builtin_holtek_udivmodsi4_2:byte
  19  0001              extern _builtin_holtek_udivmodsi4:near
  19  0001              
  19  0001              ; 
  19  0001              ; Generated by holtek-gcc v3.19, Sat Oct 25 09:01:02 2025
  19  0001              ; Rebuild 718
  19  0001              ; end of file


        0 Errors, 0