"File: touch-rgb.c   Assembler  Version HGASM0202      Page 1


   1  0000              ; Generated by holtek-gcc v3.19, Sun Jan 21 13:12:39 2024
   2  0000              ; 
   3  0000              ; Configuration:
   4  0000              ;       without long instruction
   5  0000              ;       Single ROM, Multi-RAM
   6  0000              ;       bits_per_rom_unit:16
   7  0000              ;       with mp1
   8  0000              ;       with tbhp, address(0x9)
   9  0000              ;          Use tabrd-const
  10  0000              ;       
  11  0000              ;       
  12  0000              ;       
  13  0000              ; use 'tabrdc' instead of 'tabrd'
  14  0000              ;       
  15  0000              
  16  0000              #pragma translator "holtek-gcc 4.6.4" "3.19" "build 20130711"
  17  0000              ; Rebuild 718
  18  0000              
  19  0000              ir equ [2]
  20  0000              mp equ [3]
  21  0000              sbp equ [1]
  22  0000              acc equ [5]
  23  0000              bp equ [4]
  24  0000              tblp equ [7]
  25  0000              tbhp equ [9]
  26  0000              status equ [10]
  27  0000              c equ [10].0
  28  0000              ac equ [10].1
  29  0000              z equ [10].2
  30  0000              ov equ [10].3
  31  0000              intc equ [11]
  32  0000              
  33  0000              extern ra:byte
  34  0000              extern rb:byte
  35  0000              extern rc:byte
  36  0000              extern rd:byte
  37  0000              extern re:byte
  38  0000              extern rf:byte
  39  0000              extern rg:byte
  40  0000              extern rh:byte
  41  0000              extern _Crom2Prom:near
  42  0000              extern _Crom2PromNext:near
  43  0000              
  44  0000              RAMBANK 0 @HCCINIT, @HCCINIT0
  45  0000              
  46  0000              RAMBANK 0 @BITDATASEC, @BITDATASEC1
  47  0000              @HCCINIT	.section 'data'
  48  0000              @HCCINIT0	.section 'data'
  49  0000              @BITDATASEC	 .section 'data'
  50  0000              @BITDATASEC1	 .section 'data'
  51  0000              
  52  0000              #pragma debug scope 1 1
  53  0000              	extern __DELAY3:near
  54  0000              	extern __DELAYX3:near
  55  0000              	extern __DELAYX6:near
  56  0000              	extern __DELAYY5:near
  57  0000              	extern __DELAYY3:near
  58  0000              	extern _builtin_holtek_delay_2:byte
  59  0000              public _delay_10us
"File: touch-rgb.ASM  Assembler  Version HGASM0202      Page 2

  60  0000              #pragma debug scope 2 1

  11  0000              #line 11 "E:\hamed\touch2\touch-rgb\DELAY.h"
  11  0000              _delay_10us .section 'code'
  11  0000              _delay_10us proc
  11  0000              public _delay_10us_2
  11  0000  0004[           local _delay_10us_2 db 4 dup(?)	; 4,0
            00
            ]
  11  0004              #pragma debug variable 14 2 _delay_10us_2+0 "count_u"
  15  0004              #line 15 "E:\hamed\touch2\touch-rgb\DELAY.h"
  15  0000  1F00     E  	clr rd
  15  0001  1F00     E  	clr re
  15  0002  1F00     E  	clr rf
  15  0003  1F00     E  	clr rg
  15  0004  2800     R  	jmp _L2
  15  0005              _L3:
  17  0005              #line 17 "E:\hamed\touch2\touch-rgb\DELAY.h"
  17  0005              ;# 17 "E:\hamed\touch2\touch-rgb\DELAY.h" 1
  17  0005  0001        	clr wdt
  18  0006              #line 18 "E:\hamed\touch2\touch-rgb\DELAY.h"
  18  0006              ;# 18 "E:\hamed\touch2\touch-rgb\DELAY.h" 1
  18  0006  0000        	nop
  19  0007              #line 19 "E:\hamed\touch2\touch-rgb\DELAY.h"
  19  0007              ;# 19 "E:\hamed\touch2\touch-rgb\DELAY.h" 1
  19  0007  0000        	nop
  20  0008              #line 20 "E:\hamed\touch2\touch-rgb\DELAY.h"
  20  0008              ;# 20 "E:\hamed\touch2\touch-rgb\DELAY.h" 1
  20  0008  0000        	nop
  21  0009              #line 21 "E:\hamed\touch2\touch-rgb\DELAY.h"
  21  0009              ;# 21 "E:\hamed\touch2\touch-rgb\DELAY.h" 1
  21  0009  0000        	nop
  15  000A              #line 15 "E:\hamed\touch2\touch-rgb\DELAY.h"
  15  000A  0F01        	mov a,1
  15  000B  0380     E  	addm a,rd
  15  000C  0F00        	mov a,0
  15  000D  1380     E  	adcm a,re
  15  000E  1380     E  	adcm a,rf
  15  000F  1380     E  	adcm a,rg
  15  0010              _L2:
  15  0010  0700     E  	mov a,rd
  15  0011  0400     R  	xor a,_delay_10us_2[0]
  15  0012  0700     E  	mov a,re
  15  0013  3D0A        	sz z
  15  0014  0400     R  	xor a,_delay_10us_2[1]
  15  0015  0700     E  	mov a,rf
  15  0016  3D0A        	sz z
  15  0017  0400     R  	xor a,_delay_10us_2[2]
  15  0018  0700     E  	mov a,rg
  15  0019  3D0A        	sz z
  15  001A  0400     R  	xor a,_delay_10us_2[3]
  15  001B  390A        	snz z
  15  001C  2800     R  	jmp _L3
  15  001D  0003        	ret
  15  001E              _delay_10us endp
  15  001E              #line 15 "E:\hamed\touch2\touch-rgb\DELAY.h"
  15  001E              #pragma debug scope 1 1
  15  001E              public _delay_us
  15  001E              #pragma debug scope 3 1
  28  001E              #line 28 "E:\hamed\touch2\touch-rgb\DELAY.h"
"File: DELAY.h       Assembler  Version HGASM0202      Page 3

  28  0000              _delay_us .section 'code'
  28  0000              _delay_us proc
  28  0000              public _delay_us_2
  28  0000  0004[           local _delay_us_2 db 4 dup(?)	; 4,0
            00
            ]
  28  0004              #pragma debug variable 14 3 _delay_us_2+0 "count_u"
  32  0004              #line 32 "E:\hamed\touch2\touch-rgb\DELAY.h"
  32  0000  1F00     E  	clr rd
  32  0001  1F00     E  	clr re
  32  0002  1F00     E  	clr rf
  32  0003  1F00     E  	clr rg
  32  0004  2800     R  	jmp _L6
  32  0005              _L7:
  34  0005              #line 34 "E:\hamed\touch2\touch-rgb\DELAY.h"
  34  0005              ;# 34 "E:\hamed\touch2\touch-rgb\DELAY.h" 1
  34  0005  0001        	clr wdt
  35  0006              #line 35 "E:\hamed\touch2\touch-rgb\DELAY.h"
  35  0006              ;# 35 "E:\hamed\touch2\touch-rgb\DELAY.h" 1
  35  0006  0000        	nop
  32  0007              #line 32 "E:\hamed\touch2\touch-rgb\DELAY.h"
  32  0007  0F01        	mov a,1
  32  0008  0380     E  	addm a,rd
  32  0009  0F00        	mov a,0
  32  000A  1380     E  	adcm a,re
  32  000B  1380     E  	adcm a,rf
  32  000C  1380     E  	adcm a,rg
  32  000D              _L6:
  32  000D  0700     E  	mov a,rd
  32  000E  0400     R  	xor a,_delay_us_2[0]
  32  000F  0700     E  	mov a,re
  32  0010  3D0A        	sz z
  32  0011  0400     R  	xor a,_delay_us_2[1]
  32  0012  0700     E  	mov a,rf
  32  0013  3D0A        	sz z
  32  0014  0400     R  	xor a,_delay_us_2[2]
  32  0015  0700     E  	mov a,rg
  32  0016  3D0A        	sz z
  32  0017  0400     R  	xor a,_delay_us_2[3]
  32  0018  390A        	snz z
  32  0019  2800     R  	jmp _L7
  32  001A  0003        	ret
  32  001B              _delay_us endp
  32  001B              #line 32 "E:\hamed\touch2\touch-rgb\DELAY.h"
  32  001B              #pragma debug scope 1 1
  32  001B              public _delay_ms
  32  001B              #pragma debug scope 4 1
  42  001B              #line 42 "E:\hamed\touch2\touch-rgb\DELAY.h"
  42  0000              _delay_ms .section 'code'
  42  0000              _delay_ms proc
  42  0000              public _delay_ms_2
  42  0000  0008[           local _delay_ms_2 db 8 dup(?)	; 4,4
            00
            ]
  42  0008              #pragma debug variable 14 4 _delay_ms_2+0 "count_m"
  44  0008              #line 44 "E:\hamed\touch2\touch-rgb\DELAY.h"
  44  0000  0700     R  	mov a,_delay_ms_2[0]
  44  0001  0080     E  	mov _builtin_holtek_mulsi3_2[0],a
  44  0002  0700     R  	mov a,_delay_ms_2[1]
  44  0003  0080     E  	mov _builtin_holtek_mulsi3_2[1],a
"File: DELAY.h       Assembler  Version HGASM0202      Page 4

  44  0004  0700     R  	mov a,_delay_ms_2[2]
  44  0005  0080     E  	mov _builtin_holtek_mulsi3_2[2],a
  44  0006  0700     R  	mov a,_delay_ms_2[3]
  44  0007  0080     E  	mov _builtin_holtek_mulsi3_2[3],a
  44  0008  0F64        	mov a,100
  44  0009  0080     E  	mov _builtin_holtek_mulsi3_2[4],a
  44  000A  0F00        	mov a,0
  44  000B  0080     E  	mov _builtin_holtek_mulsi3_2[5],a
  44  000C  0F00        	mov a,0
  44  000D  0080     E  	mov _builtin_holtek_mulsi3_2[6],a
  44  000E  0F00        	mov a,0
  44  000F  0080     E  	mov _builtin_holtek_mulsi3_2[7],a
  44  0010  2000     E  	call _builtin_holtek_mulsi3
  44  0011  0700     E  	mov a,_builtin_holtek_mulsi3_2[8]
  44  0012  0080     R  	mov _delay_ms_2[4],a
  44  0013  0700     E  	mov a,_builtin_holtek_mulsi3_2[9]
  44  0014  0080     R  	mov _delay_ms_2[5],a
  44  0015  0700     E  	mov a,_builtin_holtek_mulsi3_2[10]
  44  0016  0080     R  	mov _delay_ms_2[6],a
  44  0017  0700     E  	mov a,_builtin_holtek_mulsi3_2[11]
  44  0018  0080     R  	mov _delay_ms_2[7],a
  45  0019              #line 45 "E:\hamed\touch2\touch-rgb\DELAY.h"
  45  0019  1F00     E  	clr rd
  45  001A  1F00     E  	clr re
  45  001B  1F00     E  	clr rf
  45  001C  1F00     E  	clr rg
  45  001D  2800     R  	jmp _L9
  45  001E              _L10:
  47  001E              #line 47 "E:\hamed\touch2\touch-rgb\DELAY.h"
  47  001E              ;# 47 "E:\hamed\touch2\touch-rgb\DELAY.h" 1
  47  001E  0001        	clr wdt
  48  001F              #line 48 "E:\hamed\touch2\touch-rgb\DELAY.h"
  48  001F              ;# 48 "E:\hamed\touch2\touch-rgb\DELAY.h" 1
  48  001F  0000        	nop
  49  0020              #line 49 "E:\hamed\touch2\touch-rgb\DELAY.h"
  49  0020              ;# 49 "E:\hamed\touch2\touch-rgb\DELAY.h" 1
  49  0020  0000        	nop
  50  0021              #line 50 "E:\hamed\touch2\touch-rgb\DELAY.h"
  50  0021              ;# 50 "E:\hamed\touch2\touch-rgb\DELAY.h" 1
  50  0021  0000        	nop
  51  0022              #line 51 "E:\hamed\touch2\touch-rgb\DELAY.h"
  51  0022              ;# 51 "E:\hamed\touch2\touch-rgb\DELAY.h" 1
  51  0022  0000        	nop
  45  0023              #line 45 "E:\hamed\touch2\touch-rgb\DELAY.h"
  45  0023  0F01        	mov a,1
  45  0024  0380     E  	addm a,rd
  45  0025  0F00        	mov a,0
  45  0026  1380     E  	adcm a,re
  45  0027  1380     E  	adcm a,rf
  45  0028  1380     E  	adcm a,rg
  45  0029              _L9:
  45  0029  0700     E  	mov a,rd
  45  002A  0400     R  	xor a,_delay_ms_2[4]
  45  002B  0700     E  	mov a,re
  45  002C  3D0A        	sz z
  45  002D  0400     R  	xor a,_delay_ms_2[5]
  45  002E  0700     E  	mov a,rf
  45  002F  3D0A        	sz z
  45  0030  0400     R  	xor a,_delay_ms_2[6]
  45  0031  0700     E  	mov a,rg
"File: DELAY.h       Assembler  Version HGASM0202      Page 5

  45  0032  3D0A        	sz z
  45  0033  0400     R  	xor a,_delay_ms_2[7]
  45  0034  390A        	snz z
  45  0035  2800     R  	jmp _L10
  45  0036  0003        	ret
  45  0037              _delay_ms endp
  45  0037              #line 45 "E:\hamed\touch2\touch-rgb\DELAY.h"
  45  0037              #pragma debug scope 1 1
  45  0037              ___intc0 equ [14]
  45  0037              ___tktmr equ [67]
  45  0037              ___tkc0 equ [68]
  45  0037              ___tkc1 equ [71]
  45  0037              ___tkm0c1 equ [77]
  45  0037              ___tkm0rol equ [74]
  45  0037              ___tkm0roh equ [75]
  45  0037              ___tkm0c0 equ [76]
  45  0037              public _TuochKeyInit
  45  0037              #pragma debug scope 5 1

  91  0037              #line 91 "E:\hamed\touch2\touch-rgb\RGB.h"
  91  0000              _TuochKeyInit .section 'code'
  91  0000              _TuochKeyInit proc
  93  0000              #line 93 "E:\hamed\touch2\touch-rgb\RGB.h"
  93  0000  350E        	clr [14].2
  94  0001              #line 94 "E:\hamed\touch2\touch-rgb\RGB.h"
  94  0001  368E        	clr [14].5
  95  0002              #line 95 "E:\hamed\touch2\touch-rgb\RGB.h"
  95  0002  1F43        	clr [67]
  96  0003              #line 96 "E:\hamed\touch2\touch-rgb\RGB.h"
  96  0003  34C4        	clr [68].1
  96  0004  3444        	clr [68].0
  97  0005              #line 97 "E:\hamed\touch2\touch-rgb\RGB.h"
  97  0005  30C7        	set [71].1
  97  0006  3047        	set [71].0
 100  0007              #line 100 "E:\hamed\touch2\touch-rgb\RGB.h"
 100  0007  35CD        	clr [77].3
 100  0008  354D        	clr [77].2
 100  0009  30CD        	set [77].1
 100  000A  304D        	set [77].0
 101  000B              #line 101 "E:\hamed\touch2\touch-rgb\RGB.h"
 101  000B  0FC8        	mov a,200
 101  000C  00CA        	mov [74],a
 101  000D  1F4B        	clr [75]
 102  000E              #line 102 "E:\hamed\touch2\touch-rgb\RGB.h"
 102  000E  32CC        	set [76].5
 103  000F              #line 103 "E:\hamed\touch2\touch-rgb\RGB.h"
 103  000F  324C        	set [76].4
 104  0010              #line 104 "E:\hamed\touch2\touch-rgb\RGB.h"
 104  0010  35CC        	clr [76].3
 105  0011              #line 105 "E:\hamed\touch2\touch-rgb\RGB.h"
 105  0011  314C        	set [76].2
 105  0012  30CC        	set [76].1
 105  0013  304C        	set [76].0
 106  0014              #line 106 "E:\hamed\touch2\touch-rgb\RGB.h"
 106  0014  37CD        	clr [77].7
 107  0015              #line 107 "E:\hamed\touch2\touch-rgb\RGB.h"
 107  0015  32CD        	set [77].5
 108  0016              #line 108 "E:\hamed\touch2\touch-rgb\RGB.h"
 108  0016  324D        	set [77].4
 108  0017  0003        	ret
"File: RGB.h         Assembler  Version HGASM0202      Page 6

 108  0018              _TuochKeyInit endp
 108  0018              #line 108 "E:\hamed\touch2\touch-rgb\RGB.h"
 108  0018              #pragma debug scope 1 1
 108  0018              ___pa equ [20]
 108  0018              public _Key_Touch
 108  0018              #pragma debug scope 6 1
 112  0018              #line 112 "E:\hamed\touch2\touch-rgb\RGB.h"
 112  0000              _Key_Touch .section 'code'
 112  0000              _Key_Touch proc
 114  0000              #line 114 "E:\hamed\touch2\touch-rgb\RGB.h"
 114  0000  0FCE        	mov a,206
 114  0001  0300     R  	add a,_Count_C1[0]
 114  0002  0080     E  	mov rd,a
 114  0003  0FFF        	mov a,255
 114  0004  1300     R  	adc a,_Count_C1[1]
 114  0005  0080     E  	mov re,a
 114  0006  0FFF        	mov a,255
 114  0007  1300     R  	adc a,_Count_C1[2]
 114  0008  0080     E  	mov rf,a
 114  0009  0FFF        	mov a,255
 114  000A  1300     R  	adc a,_Count_C1[3]
 114  000B  0080     E  	mov rg,a
 114  000C  0700     R  	mov a,_Count_S1[0]
 114  000D  0200     E  	sub a,rd
 114  000E  0700     R  	mov a,_Count_S1[1]
 114  000F  1200     E  	sbc a,re
 114  0010  1F05        	clr acc
 114  0011  1200     E  	sbc a,rf
 114  0012  1F05        	clr acc
 114  0013  1200     E  	sbc a,rg
 114  0014  3C0A        	sz c
 114  0015  2800     R  	jmp _L13
 116  0016              #line 116 "E:\hamed\touch2\touch-rgb\RGB.h"
 116  0016  1480     R  	inc _Count_T1[0]
 116  0017  3D0A        	sz z
 116  0018  1480     R  	inc _Count_T1[1]
 118  0019              #line 118 "E:\hamed\touch2\touch-rgb\RGB.h"
 118  0019  0FD0        	mov a,208
 118  001A  0200     R  	sub a,_Count_T1[0]
 118  001B  0F07        	mov a,7
 118  001C  1200     R  	sbc a,_Count_T1[1]
 118  001D  3C0A        	sz c
 118  001E  2800     R  	jmp _L14
 120  001F              #line 120 "E:\hamed\touch2\touch-rgb\RGB.h"
 120  001F  1F00     R  	clr _rgbpals[0]
 120  0020  1F00     R  	clr _rgbpals[1]
 121  0021              #line 121 "E:\hamed\touch2\touch-rgb\RGB.h"
 121  0021  0FD0        	mov a,-48
 121  0022  0080     R  	mov _Count_T1[0],a
 121  0023  0F07        	mov a,7
 121  0024  0080     R  	mov _Count_T1[1],a
 121  0025              _L14:
 124  0025              #line 124 "E:\hamed\touch2\touch-rgb\RGB.h"
 124  0025  0F2C        	mov a,44
 124  0026  0200     R  	sub a,_Count_T1[0]
 124  0027  0F01        	mov a,1
 124  0028  1200     R  	sbc a,_Count_T1[1]
 124  0029  3C0A        	sz c
 124  002A  2800     R  	jmp _L12
 124  002B  3800     R  	snz _q
"File: RGB.h         Assembler  Version HGASM0202      Page 7

 124  002C  2800     R  	jmp _L12
 124  002D  0700     R  	mov a,_rgbchange[0]
 124  002E  0500     R  	or a,_rgbchange[1]
 124  002F  390A        	snz z
 124  0030  2800     R  	jmp _L12
 126  0031              #line 126 "E:\hamed\touch2\touch-rgb\RGB.h"
 126  0031  0F01        	mov a,1
 126  0032  0080     R  	mov _rgbchange[0],a
 126  0033  1F00     R  	clr _rgbchange[1]
 127  0034              #line 127 "E:\hamed\touch2\touch-rgb\RGB.h"
 127  0034  1F00     R  	clr _rgbauto[0]
 127  0035  1F00     R  	clr _rgbauto[1]
 128  0036              #line 128 "E:\hamed\touch2\touch-rgb\RGB.h"
 128  0036  0FE8        	mov a,-24
 128  0037  0080     R  	mov _Count_T1[0],a
 128  0038  0F03        	mov a,3
 128  0039  0080     R  	mov _Count_T1[1],a
 130  003A              #line 130 "E:\hamed\touch2\touch-rgb\RGB.h"
 130  003A  3214        	set [20].4
 131  003B              #line 131 "E:\hamed\touch2\touch-rgb\RGB.h"
 131  003B  3194        	set [20].3
 132  003C              #line 132 "E:\hamed\touch2\touch-rgb\RGB.h"
 132  003C  3114        	set [20].2
 134  003D              #line 134 "E:\hamed\touch2\touch-rgb\RGB.h"
 134  003D  0F14        	mov a,20
 134  003E  0080     R  	mov _counterrgb[0],a
 134  003F  1F00     R  	clr _counterrgb[1]
 134  0040  2800     R  	jmp _L12
 134  0041              _L13:
 139  0041              #line 139 "E:\hamed\touch2\touch-rgb\RGB.h"
 139  0041  0FF6        	mov a,246
 139  0042  0300     R  	add a,_Count_C1[0]
 139  0043  0080     E  	mov rd,a
 139  0044  0FFF        	mov a,255
 139  0045  1300     R  	adc a,_Count_C1[1]
 139  0046  0080     E  	mov re,a
 139  0047  0FFF        	mov a,255
 139  0048  1300     R  	adc a,_Count_C1[2]
 139  0049  0080     E  	mov rf,a
 139  004A  0FFF        	mov a,255
 139  004B  1300     R  	adc a,_Count_C1[3]
 139  004C  0080     E  	mov rg,a
 139  004D  1080     E  	sz rg
 139  004E  2800     R  	jmp _L12
 139  004F  1080     E  	sz rf
 139  0050  2800     R  	jmp _L12
 139  0051  0700     E  	mov a,rd
 139  0052  0200     R  	sub a,_Count_S1[0]
 139  0053  0700     E  	mov a,re
 139  0054  1200     R  	sbc a,_Count_S1[1]
 139  0055  3C0A        	sz c
 139  0056  2800     R  	jmp _L12
 142  0057              #line 142 "E:\hamed\touch2\touch-rgb\RGB.h"
 142  0057  0F3B        	mov a,59
 142  0058  0200     R  	sub a,_Count_T1[0]
 142  0059  0F00        	mov a,0
 142  005A  1200     R  	sbc a,_Count_T1[1]
 142  005B  3C0A        	sz c
 142  005C  2800     R  	jmp _L18
 142  005D  0F68        	mov a,104
"File: RGB.h         Assembler  Version HGASM0202      Page 8

 142  005E  0200     R  	sub a,_Count_T1[0]
 142  005F  0F01        	mov a,1
 142  0060  1200     R  	sbc a,_Count_T1[1]
 142  0061  380A        	snz c
 142  0062  2800     R  	jmp _L18
 142  0063  0700     R  	mov a,_rgbchange[0]
 142  0064  0500     R  	or a,_rgbchange[1]
 142  0065  390A        	snz z
 142  0066  2800     R  	jmp _L18
 144  0067              #line 144 "E:\hamed\touch2\touch-rgb\RGB.h"
 144  0067  3800     R  	snz _q
 144  0068  2800     R  	jmp _L19
 144  0069  3400     R  	clr _q
 144  006A  2800     R  	jmp _L20
 144  006B              _L19:
 145  006B              #line 145 "E:\hamed\touch2\touch-rgb\RGB.h"
 145  006B  3000     R  	set _q
 145  006C              _L20:
 147  006C              #line 147 "E:\hamed\touch2\touch-rgb\RGB.h"
 147  006C  3800     R  	snz _q
 147  006D  2800     R  	jmp _L21
 147  006E  1480     R  	inc _rgbpals[0]
 147  006F  3D0A        	sz z
 147  0070  1480     R  	inc _rgbpals[1]
 147  0071              _L21:
 149  0071              #line 149 "E:\hamed\touch2\touch-rgb\RGB.h"
 149  0071  1F00     R  	clr _CalibrCount[0]
 150  0072              #line 150 "E:\hamed\touch2\touch-rgb\RGB.h"
 150  0072  1F00     R  	clr _CalibrSample[0]
 151  0073              #line 151 "E:\hamed\touch2\touch-rgb\RGB.h"
 151  0073  1F00     R  	clr _Count_C1_Backup[0]
 151  0074  1F00     R  	clr _Count_C1_Backup[1]
 151  0075  1F00     R  	clr _Count_C1_Backup[2]
 151  0076  1F00     R  	clr _Count_C1_Backup[3]
 151  0077              _L18:
 155  0077              #line 155 "E:\hamed\touch2\touch-rgb\RGB.h"
 155  0077  1F00     R  	clr _Count_T1[0]
 155  0078  1F00     R  	clr _Count_T1[1]
 157  0079              #line 157 "E:\hamed\touch2\touch-rgb\RGB.h"
 157  0079  1F00     R  	clr _rgbchange[0]
 157  007A  1F00     R  	clr _rgbchange[1]
 157  007B              _L12:
 157  007B  0003        	ret
 157  007C              _Key_Touch endp
 157  007C              #line 157 "E:\hamed\touch2\touch-rgb\RGB.h"
 157  007C              #pragma debug scope 1 1
 157  007C              ___tkm016dh equ [73]
 157  007C              ___tkm016dl equ [72]
 157  007C              public _CalibrTuoch
 157  007C              #pragma debug scope 7 1
 163  007C              #line 163 "E:\hamed\touch2\touch-rgb\RGB.h"
 163  0000              _CalibrTuoch .section 'code'
 163  0000              _CalibrTuoch proc
 163  0000  0002[           local _CalibrTuoch_2 db 2 dup(?)	; 0,2
            00
            ]
 165  0002              #line 165 "E:\hamed\touch2\touch-rgb\RGB.h"
 165  0000  36C4        	clr [68].5
 166  0001              #line 166 "E:\hamed\touch2\touch-rgb\RGB.h"
 166  0001  37CC        	clr [76].7
"File: RGB.h         Assembler  Version HGASM0202      Page 9

 166  0002  374C        	clr [76].6
 166  0003  0FF4        	mov a,-12
 166  0004  0080     R  	mov _delay_10us_2[0],a
 166  0005  0F01        	mov a,1
 166  0006  0080     R  	mov _delay_10us_2[1],a
 166  0007  1F00     R  	clr _delay_10us_2[2]
 166  0008  1F00     R  	clr _delay_10us_2[3]
 166  0009  2000     R  	call _delay_10us
 167  000A              #line 167 "E:\hamed\touch2\touch-rgb\RGB.h"
 167  000A              ;# 167 "E:\hamed\touch2\touch-rgb\RGB.h" 1
 167  000A  0001        	clr wdt
 168  000B              #line 168 "E:\hamed\touch2\touch-rgb\RGB.h"
 168  000B  1F00     R  	clr _i[0]
 168  000C              _L27:
 168  000C              #line 168 "E:\hamed\touch2\touch-rgb\RGB.h"
 168  000C  0F13        	mov a,19
 168  000D  0200     R  	sub a,_i[0]
 168  000E  380A        	snz c
 168  000F  2800     R  	jmp _L31
 170  0010              #line 170 "E:\hamed\touch2\touch-rgb\RGB.h"
 170  0010  32CD        	set [77].5
 171  0011              #line 171 "E:\hamed\touch2\touch-rgb\RGB.h"
 171  0011  324D        	set [77].4
 172  0012              #line 172 "E:\hamed\touch2\touch-rgb\RGB.h"
 172  0012  32C4        	set [68].5
 174  0013              #line 174 "E:\hamed\touch2\touch-rgb\RGB.h"
 174  0013              ;# 174 "E:\hamed\touch2\touch-rgb\RGB.h" 1
 174  0013  0001        	clr wdt
 174  0014              _L29:
 175  0014              #line 175 "E:\hamed\touch2\touch-rgb\RGB.h"
 175  0014  3B44        	snz [68].6
 175  0015  2800     R  	jmp _L29
 176  0016              #line 176 "E:\hamed\touch2\touch-rgb\RGB.h"
 176  0016  0749        	mov a,[73]
 176  0017  0080     R  	mov _CalibrTuoch_2[1],a
 176  0018  1F00     R  	clr _CalibrTuoch_2[0]
 176  0019  0700     R  	mov a,_CalibrTuoch_2[1]
 176  001A  0080     R  	mov _Count_S1[1],a
 176  001B  0748        	mov a,[72]
 176  001C  0500     R  	or a,_CalibrTuoch_2[0]
 176  001D  0080     R  	mov _Count_S1[0],a
 177  001E              #line 177 "E:\hamed\touch2\touch-rgb\RGB.h"
 177  001E  0700     R  	mov a,_Count_S1[0]
 177  001F  0380     R  	addm a,_Count_C1[0]
 177  0020  0700     R  	mov a,_Count_S1[1]
 177  0021  1380     R  	adcm a,_Count_C1[1]
 177  0022  1F05        	clr acc
 177  0023  1380     R  	adcm a,_Count_C1[2]
 177  0024  1380     R  	adcm a,_Count_C1[3]
 178  0025              #line 178 "E:\hamed\touch2\touch-rgb\RGB.h"
 178  0025  3744        	clr [68].6
 179  0026              #line 179 "E:\hamed\touch2\touch-rgb\RGB.h"
 179  0026  36C4        	clr [68].5
 180  0027              #line 180 "E:\hamed\touch2\touch-rgb\RGB.h"
 180  0027              ;# 180 "E:\hamed\touch2\touch-rgb\RGB.h" 1
 180  0027  0001        	clr wdt
 181  0028              #line 181 "E:\hamed\touch2\touch-rgb\RGB.h"
 181  0028  0F05        	mov a,5
 181  0029  0080     R  	mov _delay_ms_2[0],a
 181  002A  1F00     R  	clr _delay_ms_2[1]
"File: RGB.h         Assembler  Version HGASM0202      Page 10

 181  002B  1F00     R  	clr _delay_ms_2[2]
 181  002C  1F00     R  	clr _delay_ms_2[3]
 181  002D  2000     R  	call _delay_ms
 168  002E              #line 168 "E:\hamed\touch2\touch-rgb\RGB.h"
 168  002E  1480     R  	inc _i[0]
 168  002F  2800     R  	jmp _L27
 168  0030              _L31:
 183  0030              #line 183 "E:\hamed\touch2\touch-rgb\RGB.h"
 183  0030  1F00     E  	clr _builtin_holtek_udivmodsi4_2[12]
 183  0031  0700     R  	mov a,_Count_C1[0]  
 183  0032  0080     E  	mov _builtin_holtek_udivmodsi4_2[0],a  
 183  0033  0700     R  	mov a,_Count_C1[1]  
 183  0034  0080     E  	mov _builtin_holtek_udivmodsi4_2[1],a
 183  0035  0700     R  	mov a,_Count_C1[2]  
 183  0036  0080     E  	mov _builtin_holtek_udivmodsi4_2[2],a  
 183  0037  0700     R  	mov a,_Count_C1[3]  
 183  0038  0080     E  	mov _builtin_holtek_udivmodsi4_2[3],a
 183  0039  0F14        	mov a,20  
 183  003A  0080     E  	mov _builtin_holtek_udivmodsi4_2[4],a  
 183  003B  0F00        	mov a,0  
 183  003C  0080     E  	mov _builtin_holtek_udivmodsi4_2[5],a
 183  003D  1F00     E  	clr _builtin_holtek_udivmodsi4_2[6]
 183  003E  1F00     E  	clr _builtin_holtek_udivmodsi4_2[7]
 183  003F  2000     E  	call _builtin_holtek_udivmodsi4
 183  0040  0700     E  	mov a,_builtin_holtek_udivmodsi4_2[0]  
 183  0041  0080     R  	mov _Count_C1[0],a  
 183  0042  0700     E  	mov a,_builtin_holtek_udivmodsi4_2[1]  
 183  0043  0080     R  	mov _Count_C1[1],a
 183  0044  0700     E  	mov a,_builtin_holtek_udivmodsi4_2[2]  
 183  0045  0080     R  	mov _Count_C1[2],a  
 183  0046  0700     E  	mov a,_builtin_holtek_udivmodsi4_2[3]  
 183  0047  0080     R  	mov _Count_C1[3],a
 184  0048              #line 184 "E:\hamed\touch2\touch-rgb\RGB.h"
 184  0048              ;# 184 "E:\hamed\touch2\touch-rgb\RGB.h" 1
 184  0048  0001        	clr wdt
 184  0049  0003        	ret
 184  004A              _CalibrTuoch endp
 184  004A              #line 184 "E:\hamed\touch2\touch-rgb\RGB.h"
 184  004A              #pragma debug scope 1 1
 184  004A              public _Key_Select
 184  004A              #pragma debug scope 8 1
 189  004A              #line 189 "E:\hamed\touch2\touch-rgb\RGB.h"
 189  0000              _Key_Select .section 'code'
 189  0000              _Key_Select proc
 190  0000              #line 190 "E:\hamed\touch2\touch-rgb\RGB.h"
 190  0000  32CD        	set [77].5
 191  0001              #line 191 "E:\hamed\touch2\touch-rgb\RGB.h"
 191  0001  324D        	set [77].4
 192  0002              #line 192 "E:\hamed\touch2\touch-rgb\RGB.h"
 192  0002  32C4        	set [68].5
 193  0003              #line 193 "E:\hamed\touch2\touch-rgb\RGB.h"
 193  0003  37CC        	clr [76].7
 193  0004  374C        	clr [76].6
 193  0005              _L33:
 194  0005              #line 194 "E:\hamed\touch2\touch-rgb\RGB.h"
 194  0005  3F44        	sz [68].6
 194  0006  2800     R  	jmp _L39
 194  0007              ;# 194 "E:\hamed\touch2\touch-rgb\RGB.h" 1
 194  0007  0000        	nop
 194  0008  2800     R  	jmp _L33
"File: RGB.h         Assembler  Version HGASM0202      Page 11

 194  0009              _L39:
 195  0009              #line 195 "E:\hamed\touch2\touch-rgb\RGB.h"
 195  0009  0749        	mov a,[73]
 195  000A  0080     E  	mov rc,a
 195  000B  1F00     E  	clr rb
 195  000C  0700     E  	mov a,rc
 195  000D  0080     R  	mov _Count_S1[1],a
 195  000E  0748        	mov a,[72]
 195  000F  0500     E  	or a,rb
 195  0010  0080     R  	mov _Count_S1[0],a
 196  0011              #line 196 "E:\hamed\touch2\touch-rgb\RGB.h"
 196  0011  0700     R  	mov a,_rgbchange[0]
 196  0012  0500     R  	or a,_rgbchange[1]
 196  0013  390A        	snz z
 196  0014  2800     R  	jmp _L35
 196  0015  1480     R  	inc _CalibrCount[0]
 196  0016              _L35:
 197  0016              #line 197 "E:\hamed\touch2\touch-rgb\RGB.h"
 197  0016  0F64        	mov a,100
 197  0017  0200     R  	sub a,_CalibrCount[0]
 197  0018  3C0A        	sz c
 197  0019  2800     R  	jmp _L37
 199  001A              #line 199 "E:\hamed\touch2\touch-rgb\RGB.h"
 199  001A  1F00     R  	clr _CalibrCount[0]
 200  001B              #line 200 "E:\hamed\touch2\touch-rgb\RGB.h"
 200  001B  0700     R  	mov a,_Count_S1[0]
 200  001C  0380     R  	addm a,_Count_C1_Backup[0]
 200  001D  0700     R  	mov a,_Count_S1[1]
 200  001E  1380     R  	adcm a,_Count_C1_Backup[1]
 200  001F  1F05        	clr acc
 200  0020  1380     R  	adcm a,_Count_C1_Backup[2]
 200  0021  1380     R  	adcm a,_Count_C1_Backup[3]
 201  0022              #line 201 "E:\hamed\touch2\touch-rgb\RGB.h"
 201  0022  1480     R  	inc _CalibrSample[0]
 202  0023              #line 202 "E:\hamed\touch2\touch-rgb\RGB.h"
 202  0023  0F13        	mov a,19
 202  0024  0200     R  	sub a,_CalibrSample[0]
 202  0025  3C0A        	sz c
 202  0026  2800     R  	jmp _L37
 204  0027              #line 204 "E:\hamed\touch2\touch-rgb\RGB.h"
 204  0027  1F00     R  	clr _CalibrSample[0]
 205  0028              #line 205 "E:\hamed\touch2\touch-rgb\RGB.h"
 205  0028  1F00     E  	clr _builtin_holtek_udivmodsi4_2[12]
 205  0029  0700     R  	mov a,_Count_C1_Backup[0]  
 205  002A  0080     E  	mov _builtin_holtek_udivmodsi4_2[0],a  
 205  002B  0700     R  	mov a,_Count_C1_Backup[1]  
 205  002C  0080     E  	mov _builtin_holtek_udivmodsi4_2[1],a
 205  002D  0700     R  	mov a,_Count_C1_Backup[2]  
 205  002E  0080     E  	mov _builtin_holtek_udivmodsi4_2[2],a  
 205  002F  0700     R  	mov a,_Count_C1_Backup[3]  
 205  0030  0080     E  	mov _builtin_holtek_udivmodsi4_2[3],a
 205  0031  0F14        	mov a,20  
 205  0032  0080     E  	mov _builtin_holtek_udivmodsi4_2[4],a  
 205  0033  0F00        	mov a,0  
 205  0034  0080     E  	mov _builtin_holtek_udivmodsi4_2[5],a
 205  0035  1F00     E  	clr _builtin_holtek_udivmodsi4_2[6]
 205  0036  1F00     E  	clr _builtin_holtek_udivmodsi4_2[7]
 205  0037  2000     E  	call _builtin_holtek_udivmodsi4
 205  0038  0700     E  	mov a,_builtin_holtek_udivmodsi4_2[0]  
 205  0039  0080     R  	mov _Count_C1[0],a  
"File: RGB.h         Assembler  Version HGASM0202      Page 12

 205  003A  0700     E  	mov a,_builtin_holtek_udivmodsi4_2[1]  
 205  003B  0080     R  	mov _Count_C1[1],a
 205  003C  0700     E  	mov a,_builtin_holtek_udivmodsi4_2[2]  
 205  003D  0080     R  	mov _Count_C1[2],a  
 205  003E  0700     E  	mov a,_builtin_holtek_udivmodsi4_2[3]  
 205  003F  0080     R  	mov _Count_C1[3],a
 206  0040              #line 206 "E:\hamed\touch2\touch-rgb\RGB.h"
 206  0040  1F00     R  	clr _Count_C1_Backup[0]
 206  0041  1F00     R  	clr _Count_C1_Backup[1]
 206  0042  1F00     R  	clr _Count_C1_Backup[2]
 206  0043  1F00     R  	clr _Count_C1_Backup[3]
 206  0044              _L37:
 210  0044              #line 210 "E:\hamed\touch2\touch-rgb\RGB.h"
 210  0044  3744        	clr [68].6
 211  0045              #line 211 "E:\hamed\touch2\touch-rgb\RGB.h"
 211  0045  36C4        	clr [68].5
 211  0046  0003        	ret
 211  0047              _Key_Select endp
 211  0047              #line 211 "E:\hamed\touch2\touch-rgb\RGB.h"
 211  0047              #pragma debug scope 1 1
 211  0047              public _TOUCH_ISR
 211  0047              #pragma debug scope 9 1
 217  0047              #line 217 "E:\hamed\touch2\touch-rgb\RGB.h"
 217  0000              @TOUCH_ISR_code .section at 40 'code'
 217  0000              _TOUCH_ISR:
 217  0000  0004        	reti
 217  0001              #line 217 "E:\hamed\touch2\touch-rgb\RGB.h"
 217  0001              #pragma debug scope 1 1
 217  0001              public _int0
 217  0001              #pragma debug scope 10 1
 223  0001              #line 223 "E:\hamed\touch2\touch-rgb\RGB.h"
 223  0000              @int0_code .section at 4 'code'
 223  0000  0080     E  	mov r1,a
 223  0001  070A        	mov a,status
 223  0002  0080     E  	mov r2,a
 223  0003  2800     R  	jmp _int0
 223  0004              #pragma debug scope 1 1
 223  0004              @dummy4 endp
 223  0004              #pragma debug scope 11 1
 223  0000              _int0 .section 'code'
 223  0000              _int0 proc
 227  0000              #line 227 "E:\hamed\touch2\touch-rgb\RGB.h"
 227  0000  0F02        	mov a,2
 227  0001  0200     R  	sub a,_rgbpals[0]
 227  0002  0F00        	mov a,0
 227  0003  1200     R  	sbc a,_rgbpals[1]
 227  0004  1185        	swap acc
 227  0005  040A        	xor a,status
 227  0006  3985        	snz acc.3
 227  0007  2800     R  	jmp _L42
 227  0008              #line 227 "E:\hamed\touch2\touch-rgb\RGB.h"
 227  0008  0700     R  	mov a,_rgbauto[0]
 227  0009  0500     R  	or a,_rgbauto[1]
 227  000A  390A        	snz z
 227  000B  2800     R  	jmp _L42
 228  000C              #line 228 "E:\hamed\touch2\touch-rgb\RGB.h"
 228  000C  1F00     R  	clr _rgbpals[0]
 228  000D  1F00     R  	clr _rgbpals[1]
 229  000E              #line 229 "E:\hamed\touch2\touch-rgb\RGB.h"
 229  000E  0F01        	mov a,1
"File: RGB.h         Assembler  Version HGASM0202      Page 13

 229  000F  0080     R  	mov _rgbauto[0],a
 229  0010  1F00     R  	clr _rgbauto[1]
 230  0011              #line 230 "E:\hamed\touch2\touch-rgb\RGB.h"
 230  0011  3214        	set [20].4
 231  0012              #line 231 "E:\hamed\touch2\touch-rgb\RGB.h"
 231  0012  3194        	set [20].3
 232  0013              #line 232 "E:\hamed\touch2\touch-rgb\RGB.h"
 232  0013  3114        	set [20].2
 234  0014              #line 234 "E:\hamed\touch2\touch-rgb\RGB.h"
 234  0014  1F00     R  	clr _counterrgb[0]
 234  0015  1F00     R  	clr _counterrgb[1]
 234  0016              _L42:
 239  0016              #line 239 "E:\hamed\touch2\touch-rgb\RGB.h"
 239  0016  0700     R  	mov a,_rgbauto[0]
 239  0017  0500     R  	or a,_rgbauto[1]
 239  0018  390A        	snz z
 239  0019  2800     R  	jmp _L43
 239  001A  0700     R  	mov a,_rgbchange[0]
 239  001B  0500     R  	or a,_rgbchange[1]
 239  001C  3D0A        	sz z
 239  001D  2800     R  	jmp _L44
 239  001E              _L43:
 239  001E  1480     R  	inc _counterrgb[0]
 239  001F  3D0A        	sz z
 239  0020  1480     R  	inc _counterrgb[1]
 239  0021              _L44:
 240  0021              #line 240 "E:\hamed\touch2\touch-rgb\RGB.h"
 240  0021  0F1F        	mov a,31
 240  0022  0200     R  	sub a,_counterrgb[0]
 240  0023  0F4E        	mov a,78
 240  0024  1200     R  	sbc a,_counterrgb[1]
 240  0025  1185        	swap acc
 240  0026  040A        	xor a,status
 240  0027  3985        	snz acc.3
 240  0028  2800     R  	jmp _L45
 240  0029  0F20        	mov a,32
 240  002A  0080     R  	mov _counterrgb[0],a
 240  002B  0F4E        	mov a,78
 240  002C  0080     R  	mov _counterrgb[1],a
 240  002D              _L45:
 243  002D              #line 243 "E:\hamed\touch2\touch-rgb\RGB.h"
 243  002D  0700     R  	mov a,_counter1[0]
 243  002E  0080     R  	mov _ncount[0],a
 243  002F  0700     R  	mov a,_counter1[1]
 243  0030  0080     R  	mov _ncount[1],a
 245  0031              #line 245 "E:\hamed\touch2\touch-rgb\RGB.h"
 245  0031  1F00     R  	clr _counter1[0]
 245  0032  1F00     R  	clr _counter1[1]
 247  0033              #line 247 "E:\hamed\touch2\touch-rgb\RGB.h"
 247  0033  0700     R  	mov a,_rgbchange[0]
 247  0034  0500     R  	or a,_rgbchange[1]
 247  0035  390A        	snz z
 247  0036  2800     R  	jmp _L46
 247  0037  0700     R  	mov a,_rgbauto[0]
 247  0038  0500     R  	or a,_rgbauto[1]
 247  0039  3D0A        	sz z
 247  003A  2800     R  	jmp _L47
 247  003B              _L46:
 247  003B  3800     R  	snz _q
 247  003C  2800     R  	jmp _L47
"File: RGB.h         Assembler  Version HGASM0202      Page 14

 247  003D  0F31        	mov a,49
 247  003E  0200     R  	sub a,_counterrgb[0]
 247  003F  0F00        	mov a,0
 247  0040  1200     R  	sbc a,_counterrgb[1]
 247  0041  1185        	swap acc
 247  0042  040A        	xor a,status
 247  0043  3985        	snz acc.3
 247  0044  2800     R  	jmp _L47
 249  0045              #line 249 "E:\hamed\touch2\touch-rgb\RGB.h"
 249  0045  0700     R  	mov a,_rgbchange[0]
 249  0046  0C01        	xor a,1
 249  0047  0500     R  	or a,_rgbchange[1]
 249  0048  390A        	snz z
 249  0049  2800     R  	jmp _L49
 249  004A  1480     R  	inc _rgb1[0]
 249  004B  3D0A        	sz z
 249  004C  1480     R  	inc _rgb1[1]
 249  004D              _L49:
 250  004D              #line 250 "E:\hamed\touch2\touch-rgb\RGB.h"
 250  004D  0700     R  	mov a,_rgbauto[0]
 250  004E  0C01        	xor a,1
 250  004F  0500     R  	or a,_rgbauto[1]
 250  0050  390A        	snz z
 250  0051  2800     R  	jmp _L50
 250  0052  1480     R  	inc _rgb2[0]
 250  0053  3D0A        	sz z
 250  0054  1480     R  	inc _rgb2[1]
 250  0055              _L50:
 252  0055              #line 252 "E:\hamed\touch2\touch-rgb\RGB.h"
 252  0055  0F01        	mov a,1
 252  0056  0200     R  	sub a,_rgb1[0]
 252  0057  0F00        	mov a,0
 252  0058  1200     R  	sbc a,_rgb1[1]
 252  0059  1185        	swap acc
 252  005A  040A        	xor a,status
 252  005B  3D85        	sz acc.3
 252  005C  2800     R  	jmp _L51
 252  005D  0F06        	mov a,6
 252  005E  0200     R  	sub a,_rgb2[0]
 252  005F  0F00        	mov a,0
 252  0060  1200     R  	sbc a,_rgb2[1]
 252  0061  1185        	swap acc
 252  0062  040A        	xor a,status
 252  0063  3985        	snz acc.3
 252  0064  2800     R  	jmp _L47
 252  0065              _L51:
 254  0065              #line 254 "E:\hamed\touch2\touch-rgb\RGB.h"
 254  0065  1F00     R  	clr _rgb1[0]
 254  0066  1F00     R  	clr _rgb1[1]
 255  0067              #line 255 "E:\hamed\touch2\touch-rgb\RGB.h"
 255  0067  1F00     R  	clr _rgb2[0]
 255  0068  1F00     R  	clr _rgb2[1]
 257  0069              #line 257 "E:\hamed\touch2\touch-rgb\RGB.h"
 257  0069  0700     R  	mov a,_G[0]
 257  006A  0400     R  	xor a,_nsicl[0]
 257  006B  0700     R  	mov a,_G[1]
 257  006C  3D0A        	sz z
 257  006D  0400     R  	xor a,_nsicl[1]
 257  006E  390A        	snz z
 257  006F  2800     R  	jmp _L52
"File: RGB.h         Assembler  Version HGASM0202      Page 15

 258  0070              #line 258 "E:\hamed\touch2\touch-rgb\RGB.h"
 258  0070  0FFF        	mov a,255
 258  0071  0380     R  	addm a,_R[0]
 258  0072  0FFF        	mov a,255
 258  0073  1380     R  	adcm a,_R[1]
 259  0074              #line 259 "E:\hamed\touch2\touch-rgb\RGB.h"
 259  0074  0700     R  	mov a,_nsicl[0]
 259  0075  0200     R  	sub a,_R[0]
 259  0076  0080     E  	mov ra,a
 259  0077  0700     R  	mov a,_nsicl[1]
 259  0078  1200     R  	sbc a,_R[1]
 259  0079  0080     E  	mov rb,a
 259  007A  0700     E  	mov a,ra
 259  007B  0080     R  	mov _B[0],a
 259  007C  0700     E  	mov a,rb
 259  007D  0080     R  	mov _B[1],a
 259  007E              _L52:
 261  007E              #line 261 "E:\hamed\touch2\touch-rgb\RGB.h"
 261  007E  0700     R  	mov a,_R[0]
 261  007F  0400     R  	xor a,_nsicl[0]
 261  0080  0700     R  	mov a,_R[1]
 261  0081  3D0A        	sz z
 261  0082  0400     R  	xor a,_nsicl[1]
 261  0083  390A        	snz z
 261  0084  2800     R  	jmp _L53
 262  0085              #line 262 "E:\hamed\touch2\touch-rgb\RGB.h"
 262  0085  0FFF        	mov a,255
 262  0086  0380     R  	addm a,_B[0]
 262  0087  0FFF        	mov a,255
 262  0088  1380     R  	adcm a,_B[1]
 263  0089              #line 263 "E:\hamed\touch2\touch-rgb\RGB.h"
 263  0089  0700     R  	mov a,_nsicl[0]
 263  008A  0200     R  	sub a,_B[0]
 263  008B  0080     E  	mov ra,a
 263  008C  0700     R  	mov a,_nsicl[1]
 263  008D  1200     R  	sbc a,_B[1]
 263  008E  0080     E  	mov rb,a
 263  008F  0700     E  	mov a,ra
 263  0090  0080     R  	mov _G[0],a
 263  0091  0700     E  	mov a,rb
 263  0092  0080     R  	mov _G[1],a
 263  0093              _L53:
 265  0093              #line 265 "E:\hamed\touch2\touch-rgb\RGB.h"
 265  0093  0700     R  	mov a,_B[0]
 265  0094  0400     R  	xor a,_nsicl[0]
 265  0095  0700     R  	mov a,_B[1]
 265  0096  3D0A        	sz z
 265  0097  0400     R  	xor a,_nsicl[1]
 265  0098  390A        	snz z
 265  0099  2800     R  	jmp _L47
 266  009A              #line 266 "E:\hamed\touch2\touch-rgb\RGB.h"
 266  009A  0FFF        	mov a,255
 266  009B  0380     R  	addm a,_G[0]
 266  009C  0FFF        	mov a,255
 266  009D  1380     R  	adcm a,_G[1]
 267  009E              #line 267 "E:\hamed\touch2\touch-rgb\RGB.h"
 267  009E  0700     R  	mov a,_nsicl[0]
 267  009F  0200     R  	sub a,_G[0]
 267  00A0  0080     E  	mov ra,a
 267  00A1  0700     R  	mov a,_nsicl[1]
"File: RGB.h         Assembler  Version HGASM0202      Page 16

 267  00A2  1200     R  	sbc a,_G[1]
 267  00A3  0080     E  	mov rb,a
 267  00A4  0700     E  	mov a,ra
 267  00A5  0080     R  	mov _R[0],a
 267  00A6  0700     E  	mov a,rb
 267  00A7  0080     R  	mov _R[1],a
 267  00A8              _L47:
 272  00A8              #line 272 "E:\hamed\touch2\touch-rgb\RGB.h"
 272  00A8  3800     R  	snz _q
 272  00A9  2800     R  	jmp _L54
 272  00AA  0F31        	mov a,49
 272  00AB  0200     R  	sub a,_counterrgb[0]
 272  00AC  0F00        	mov a,0
 272  00AD  1200     R  	sbc a,_counterrgb[1]
 272  00AE  1185        	swap acc
 272  00AF  040A        	xor a,status
 272  00B0  3985        	snz acc.3
 272  00B1  2800     R  	jmp _L54
 274  00B2              #line 274 "E:\hamed\touch2\touch-rgb\RGB.h"
 274  00B2  0FFE        	mov a,254
 274  00B3  0380     R  	addm a,_counter3[0]
 274  00B4  0FFF        	mov a,255
 274  00B5  1380     R  	adcm a,_counter3[1]
 276  00B6              #line 276 "E:\hamed\touch2\touch-rgb\RGB.h"
 276  00B6  3800     R  	snz _counter3[1].7
 276  00B7  2800     R  	jmp _L55
 277  00B8              #line 277 "E:\hamed\touch2\touch-rgb\RGB.h"
 277  00B8  1F80     R  	set _counter3[0]
 277  00B9  1F80     R  	set _counter3[1]
 279  00BA              #line 279 "E:\hamed\touch2\touch-rgb\RGB.h"
 279  00BA  3C00     R  	sz _R[1].7
 279  00BB  2800     R  	jmp _LI1
 279  00BC  0700     R  	mov a,_R[0]
 279  00BD  0500     R  	or a,_R[1]
 279  00BE  390A        	snz z
 279  00BF  2800     R  	jmp _L56
 279  00C0              _LI1:
 280  00C0              #line 280 "E:\hamed\touch2\touch-rgb\RGB.h"
 280  00C0  3214        	set [20].4
 280  00C1  2800     R  	jmp _L57
 280  00C2              _L56:
 281  00C2              #line 281 "E:\hamed\touch2\touch-rgb\RGB.h"
 281  00C2  3614        	clr [20].4
 281  00C3  3614        	clr [20].4
 281  00C4  3614        	clr [20].4
 281  00C5  3614        	clr [20].4
 281  00C6              _L57:
 282  00C6              #line 282 "E:\hamed\touch2\touch-rgb\RGB.h"
 282  00C6  3C00     R  	sz _G[1].7
 282  00C7  2800     R  	jmp _LI2
 282  00C8  0700     R  	mov a,_G[0]
 282  00C9  0500     R  	or a,_G[1]
 282  00CA  390A        	snz z
 282  00CB  2800     R  	jmp _L58
 282  00CC              _LI2:
 283  00CC              #line 283 "E:\hamed\touch2\touch-rgb\RGB.h"
 283  00CC  3194        	set [20].3
 283  00CD  2800     R  	jmp _L59
 283  00CE              _L58:
 284  00CE              #line 284 "E:\hamed\touch2\touch-rgb\RGB.h"
"File: RGB.h         Assembler  Version HGASM0202      Page 17

 284  00CE  3594        	clr [20].3
 284  00CF  3594        	clr [20].3
 284  00D0  3594        	clr [20].3
 284  00D1  3594        	clr [20].3
 284  00D2              _L59:
 285  00D2              #line 285 "E:\hamed\touch2\touch-rgb\RGB.h"
 285  00D2  3C00     R  	sz _B[1].7
 285  00D3  2800     R  	jmp _LI3
 285  00D4  0700     R  	mov a,_B[0]
 285  00D5  0500     R  	or a,_B[1]
 285  00D6  390A        	snz z
 285  00D7  2800     R  	jmp _L60
 285  00D8              _LI3:
 286  00D8              #line 286 "E:\hamed\touch2\touch-rgb\RGB.h"
 286  00D8  3114        	set [20].2
 286  00D9  2800     R  	jmp _L54
 286  00DA              _L60:
 287  00DA              #line 287 "E:\hamed\touch2\touch-rgb\RGB.h"
 287  00DA  3514        	clr [20].2
 287  00DB  3514        	clr [20].2
 287  00DC  3514        	clr [20].2
 287  00DD  2800     R  	jmp _L67
 287  00DE              _L55:
 290  00DE              #line 290 "E:\hamed\touch2\touch-rgb\RGB.h"
 290  00DE  3614        	clr [20].4
 291  00DF              #line 291 "E:\hamed\touch2\touch-rgb\RGB.h"
 291  00DF  3594        	clr [20].3
 291  00E0              _L67:
 292  00E0              #line 292 "E:\hamed\touch2\touch-rgb\RGB.h"
 292  00E0  3514        	clr [20].2
 292  00E1              _L54:
 297  00E1              #line 297 "E:\hamed\touch2\touch-rgb\RGB.h"
 297  00E1  3C00     R  	sz _q
 297  00E2  2800     R  	jmp _L41
 297  00E3  0F31        	mov a,49
 297  00E4  0200     R  	sub a,_counterrgb[0]
 297  00E5  0F00        	mov a,0
 297  00E6  1200     R  	sbc a,_counterrgb[1]
 297  00E7  1185        	swap acc
 297  00E8  040A        	xor a,status
 297  00E9  3985        	snz acc.3
 297  00EA  2800     R  	jmp _L41
 298  00EB              #line 298 "E:\hamed\touch2\touch-rgb\RGB.h"
 298  00EB  3614        	clr [20].4
 298  00EC  3614        	clr [20].4
 298  00ED  3614        	clr [20].4
 298  00EE  3614        	clr [20].4
 299  00EF              #line 299 "E:\hamed\touch2\touch-rgb\RGB.h"
 299  00EF  3594        	clr [20].3
 299  00F0  3594        	clr [20].3
 299  00F1  3594        	clr [20].3
 299  00F2  3594        	clr [20].3
 300  00F3              #line 300 "E:\hamed\touch2\touch-rgb\RGB.h"
 300  00F3  3514        	clr [20].2
 300  00F4  3514        	clr [20].2
 300  00F5  3514        	clr [20].2
 300  00F6  3514        	clr [20].2
 301  00F7              #line 301 "E:\hamed\touch2\touch-rgb\RGB.h"
 301  00F7  0FA0        	mov a,160
 301  00F8  0200     R  	sub a,_counter2[0]
"File: RGB.h         Assembler  Version HGASM0202      Page 18

 301  00F9  0F00        	mov a,0
 301  00FA  1200     R  	sbc a,_counter2[1]
 301  00FB  1185        	swap acc
 301  00FC  040A        	xor a,status
 301  00FD  3D85        	sz acc.3
 301  00FE  2800     R  	jmp _L41
 302  00FF              #line 302 "E:\hamed\touch2\touch-rgb\RGB.h"
 302  00FF  0F04        	mov a,4
 302  0100  0380     R  	addm a,_counter2[0]
 302  0101  0F00        	mov a,0
 302  0102  1380     R  	adcm a,_counter2[1]
 302  0103              _L41:
 302  0103  0700     E  	mov a,r2
 302  0104  008A        	mov status,a
 302  0105  0700     E  	mov a,r1
 302  0106  0004        	reti
 302  0107              _int0 endp
 302  0107              
 302  0107              #line 302 "E:\hamed\touch2\touch-rgb\RGB.h"
 302  0107              #pragma debug scope 1 1
 302  0107              public _timer
 302  0107              #pragma debug scope 12 1
 318  0107              #line 318 "E:\hamed\touch2\touch-rgb\RGB.h"
 318  0000              @timer_code .section at 12 'code'
 318  0000  0080     E  	mov r1,a
 318  0001  070A        	mov a,status
 318  0002  0080     E  	mov r2,a
 318  0003  2800     R  	jmp _timer
 318  0004              #pragma debug scope 1 1
 318  0004              @dummy12 endp
 318  0004              #pragma debug scope 13 1
 318  0000              _timer .section 'code'
 318  0000              _timer proc
 320  0000              #line 320 "E:\hamed\touch2\touch-rgb\RGB.h"
 320  0000  1480     R  	inc _counter1[0]
 320  0001  3D0A        	sz z
 320  0002  1480     R  	inc _counter1[1]
 324  0003              #line 324 "E:\hamed\touch2\touch-rgb\RGB.h"
 324  0003  3800     R  	snz _q
 324  0004  2800     R  	jmp _L69
 324  0005              #line 324 "E:\hamed\touch2\touch-rgb\RGB.h"
 324  0005  0F31        	mov a,49
 324  0006  0200     R  	sub a,_counterrgb[0]
 324  0007  0F00        	mov a,0
 324  0008  1200     R  	sbc a,_counterrgb[1]
 324  0009  1185        	swap acc
 324  000A  040A        	xor a,status
 324  000B  3985        	snz acc.3
 324  000C  2800     R  	jmp _L69
 326  000D              #line 326 "E:\hamed\touch2\touch-rgb\RGB.h"
 326  000D  0700     R  	mov a,_counter1[0]
 326  000E  0200     R  	sub a,_counter3[0]
 326  000F  0700     R  	mov a,_counter1[1]
 326  0010  1200     R  	sbc a,_counter3[1]
 326  0011  1185        	swap acc
 326  0012  040A        	xor a,status
 326  0013  3D85        	sz acc.3
 326  0014  2800     R  	jmp _L70
 327  0015              #line 327 "E:\hamed\touch2\touch-rgb\RGB.h"
 327  0015  0700     R  	mov a,_counter1[0]
"File: RGB.h         Assembler  Version HGASM0202      Page 19

 327  0016  0200     R  	sub a,_R[0]
 327  0017  0700     R  	mov a,_counter1[1]
 327  0018  1200     R  	sbc a,_R[1]
 327  0019  1185        	swap acc
 327  001A  040A        	xor a,status
 327  001B  3D85        	sz acc.3
 327  001C  2800     R  	jmp _L71
 328  001D              #line 328 "E:\hamed\touch2\touch-rgb\RGB.h"
 328  001D  3214        	set [20].4
 328  001E  2800     R  	jmp _L72
 328  001F              _L71:
 329  001F              #line 329 "E:\hamed\touch2\touch-rgb\RGB.h"
 329  001F  3614        	clr [20].4
 329  0020  3614        	clr [20].4
 329  0021  3614        	clr [20].4
 329  0022  3614        	clr [20].4
 329  0023              _L72:
 330  0023              #line 330 "E:\hamed\touch2\touch-rgb\RGB.h"
 330  0023  0700     R  	mov a,_counter1[0]
 330  0024  0200     R  	sub a,_G[0]
 330  0025  0700     R  	mov a,_counter1[1]
 330  0026  1200     R  	sbc a,_G[1]
 330  0027  1185        	swap acc
 330  0028  040A        	xor a,status
 330  0029  3D85        	sz acc.3
 330  002A  2800     R  	jmp _L73
 331  002B              #line 331 "E:\hamed\touch2\touch-rgb\RGB.h"
 331  002B  3194        	set [20].3
 331  002C  2800     R  	jmp _L74
 331  002D              _L73:
 332  002D              #line 332 "E:\hamed\touch2\touch-rgb\RGB.h"
 332  002D  3594        	clr [20].3
 332  002E  3594        	clr [20].3
 332  002F  3594        	clr [20].3
 332  0030  3594        	clr [20].3
 332  0031              _L74:
 333  0031              #line 333 "E:\hamed\touch2\touch-rgb\RGB.h"
 333  0031  0700     R  	mov a,_counter1[0]
 333  0032  0200     R  	sub a,_B[0]
 333  0033  0700     R  	mov a,_counter1[1]
 333  0034  1200     R  	sbc a,_B[1]
 333  0035  1185        	swap acc
 333  0036  040A        	xor a,status
 333  0037  3D85        	sz acc.3
 333  0038  2800     R  	jmp _L75
 334  0039              #line 334 "E:\hamed\touch2\touch-rgb\RGB.h"
 334  0039  3114        	set [20].2
 334  003A  2800     R  	jmp _L70
 334  003B              _L75:
 335  003B              #line 335 "E:\hamed\touch2\touch-rgb\RGB.h"
 335  003B  3514        	clr [20].2
 335  003C  3514        	clr [20].2
 335  003D  3514        	clr [20].2
 335  003E  3514        	clr [20].2
 335  003F              _L70:
 337  003F              #line 337 "E:\hamed\touch2\touch-rgb\RGB.h"
 337  003F  1F00     R  	clr _counter2[0]
 337  0040  1F00     R  	clr _counter2[1]
 337  0041              _L69:
 341  0041              #line 341 "E:\hamed\touch2\touch-rgb\RGB.h"
"File: RGB.h         Assembler  Version HGASM0202      Page 20

 341  0041  3C00     R  	sz _q
 341  0042  2800     R  	jmp _L68
 341  0043  0F31        	mov a,49
 341  0044  0200     R  	sub a,_counterrgb[0]
 341  0045  0F00        	mov a,0
 341  0046  1200     R  	sbc a,_counterrgb[1]
 341  0047  1185        	swap acc
 341  0048  040A        	xor a,status
 341  0049  3985        	snz acc.3
 341  004A  2800     R  	jmp _L68
 343  004B              #line 343 "E:\hamed\touch2\touch-rgb\RGB.h"
 343  004B  0700     R  	mov a,_counter1[0]
 343  004C  0200     R  	sub a,_counter2[0]
 343  004D  0700     R  	mov a,_counter1[1]
 343  004E  1200     R  	sbc a,_counter2[1]
 343  004F  1185        	swap acc
 343  0050  040A        	xor a,status
 343  0051  3D85        	sz acc.3
 343  0052  2800     R  	jmp _L77
 344  0053              #line 344 "E:\hamed\touch2\touch-rgb\RGB.h"
 344  0053  0700     R  	mov a,_counter1[0]
 344  0054  0200     R  	sub a,_R[0]
 344  0055  0700     R  	mov a,_counter1[1]
 344  0056  1200     R  	sbc a,_R[1]
 344  0057  1185        	swap acc
 344  0058  040A        	xor a,status
 344  0059  3D85        	sz acc.3
 344  005A  2800     R  	jmp _L78
 345  005B              #line 345 "E:\hamed\touch2\touch-rgb\RGB.h"
 345  005B  3214        	set [20].4
 345  005C  2800     R  	jmp _L79
 345  005D              _L78:
 346  005D              #line 346 "E:\hamed\touch2\touch-rgb\RGB.h"
 346  005D  3614        	clr [20].4
 346  005E  3614        	clr [20].4
 346  005F  3614        	clr [20].4
 346  0060  3614        	clr [20].4
 346  0061              _L79:
 347  0061              #line 347 "E:\hamed\touch2\touch-rgb\RGB.h"
 347  0061  0700     R  	mov a,_counter1[0]
 347  0062  0200     R  	sub a,_G[0]
 347  0063  0700     R  	mov a,_counter1[1]
 347  0064  1200     R  	sbc a,_G[1]
 347  0065  1185        	swap acc
 347  0066  040A        	xor a,status
 347  0067  3D85        	sz acc.3
 347  0068  2800     R  	jmp _L80
 348  0069              #line 348 "E:\hamed\touch2\touch-rgb\RGB.h"
 348  0069  3194        	set [20].3
 348  006A  2800     R  	jmp _L81
 348  006B              _L80:
 349  006B              #line 349 "E:\hamed\touch2\touch-rgb\RGB.h"
 349  006B  3594        	clr [20].3
 349  006C  3594        	clr [20].3
 349  006D  3594        	clr [20].3
 349  006E  3594        	clr [20].3
 349  006F              _L81:
 350  006F              #line 350 "E:\hamed\touch2\touch-rgb\RGB.h"
 350  006F  0700     R  	mov a,_counter1[0]
 350  0070  0200     R  	sub a,_B[0]
"File: RGB.h         Assembler  Version HGASM0202      Page 21

 350  0071  0700     R  	mov a,_counter1[1]
 350  0072  1200     R  	sbc a,_B[1]
 350  0073  1185        	swap acc
 350  0074  040A        	xor a,status
 350  0075  3D85        	sz acc.3
 350  0076  2800     R  	jmp _L82
 351  0077              #line 351 "E:\hamed\touch2\touch-rgb\RGB.h"
 351  0077  3114        	set [20].2
 351  0078  2800     R  	jmp _L77
 351  0079              _L82:
 352  0079              #line 352 "E:\hamed\touch2\touch-rgb\RGB.h"
 352  0079  3514        	clr [20].2
 352  007A  3514        	clr [20].2
 352  007B  3514        	clr [20].2
 352  007C  3514        	clr [20].2
 352  007D              _L77:
 354  007D              #line 354 "E:\hamed\touch2\touch-rgb\RGB.h"
 354  007D  0700     R  	mov a,_ncount[0]
 354  007E  0080     R  	mov _counter3[0],a
 354  007F  0700     R  	mov a,_ncount[1]
 354  0080  0080     R  	mov _counter3[1],a
 354  0081              _L68:
 354  0081  0700     E  	mov a,r2
 354  0082  008A        	mov status,a
 354  0083  0700     E  	mov a,r1
 354  0084  0004        	reti
 354  0085              _timer endp
 354  0085              
 354  0085              #line 354 "E:\hamed\touch2\touch-rgb\RGB.h"
 354  0085              #pragma debug scope 1 1
 354  0085              ___integ equ [13]
 354  0085              ___tmrc equ [29]
 354  0085              ___smod equ [11]
 354  0085              ___pac equ [21]
 354  0085              public _main
 354  0085              #pragma debug scope 14 1

  15  0085              #line 15 "E:\hamed\touch2\touch-rgb\touch-rgb.c"
  15  0085              IFDEF WITH_DEFAULT_STARTUP
  15  0085              extern _main_initial0:near
  15  0085              extern _main_startup:near
  15  0085              ENDIF
  15  0085              
  15  0085              ROMBANK 0 @start
  15  0000              @start .section com_l 'code'
  15  0000              _main_startup1:
  15  0000              @start .section com_e 'code'
  15  0000  2800     R  	jmp _main
  15  0001              
  15  0000              _main .section 'code'
  15  0000              _main proc
  19  0000              #line 19 "E:\hamed\touch2\touch-rgb\touch-rgb.c"
  19  0000  308D        	set [13].1
  20  0001              #line 20 "E:\hamed\touch2\touch-rgb\touch-rgb.c"
  20  0001  300D        	set [13].0
  21  0002              #line 21 "E:\hamed\touch2\touch-rgb\touch-rgb.c"
  21  0002  308E        	set [14].1
  26  0003              #line 26 "E:\hamed\touch2\touch-rgb\touch-rgb.c"
  26  0003  369D        	clr [29].5
  27  0004              #line 27 "E:\hamed\touch2\touch-rgb\touch-rgb.c"
"File: touch-rgb.c   Assembler  Version HGASM0202      Page 22

  27  0004  321D        	set [29].4
  29  0005              #line 29 "E:\hamed\touch2\touch-rgb\touch-rgb.c"
  29  0005  301D        	set [29].0
  30  0006              #line 30 "E:\hamed\touch2\touch-rgb\touch-rgb.c"
  30  0006  349D        	clr [29].1
  31  0007              #line 31 "E:\hamed\touch2\touch-rgb\touch-rgb.c"
  31  0007  351D        	clr [29].2
  34  0008              #line 34 "E:\hamed\touch2\touch-rgb\touch-rgb.c"
  34  0008  300E        	set [14].0
  35  0009              #line 35 "E:\hamed\touch2\touch-rgb\touch-rgb.c"
  35  0009  300B        	set [11].0
  37  000A              #line 37 "E:\hamed\touch2\touch-rgb\touch-rgb.c"
  37  000A  330E        	set [14].6
  38  000B              #line 38 "E:\hamed\touch2\touch-rgb\touch-rgb.c"
  38  000B  318E        	set [14].3
  43  000C              #line 43 "E:\hamed\touch2\touch-rgb\touch-rgb.c"
  43  000C  3615        	clr [21].4
  43  000D  3595        	clr [21].3
  43  000E  3515        	clr [21].2
  44  000F              #line 44 "E:\hamed\touch2\touch-rgb\touch-rgb.c"
  44  000F  0F01        	mov a,1
  44  0010  0080     R  	mov _delay_ms_2[0],a
  44  0011  1F00     R  	clr _delay_ms_2[1]
  44  0012  1F00     R  	clr _delay_ms_2[2]
  44  0013  1F00     R  	clr _delay_ms_2[3]
  44  0014  2000     R  	call _delay_ms
  45  0015              #line 45 "E:\hamed\touch2\touch-rgb\touch-rgb.c"
  45  0015  2000     R  	call _TuochKeyInit
  46  0016              #line 46 "E:\hamed\touch2\touch-rgb\touch-rgb.c"
  46  0016  0F01        	mov a,1
  46  0017  0080     R  	mov _delay_ms_2[0],a
  46  0018  1F00     R  	clr _delay_ms_2[1]
  46  0019  1F00     R  	clr _delay_ms_2[2]
  46  001A  1F00     R  	clr _delay_ms_2[3]
  46  001B  2000     R  	call _delay_ms
  47  001C              #line 47 "E:\hamed\touch2\touch-rgb\touch-rgb.c"
  47  001C  2000     R  	call _CalibrTuoch
  47  001D              _L84:
  51  001D              #line 51 "E:\hamed\touch2\touch-rgb\touch-rgb.c"
  51  001D              ;# 51 "E:\hamed\touch2\touch-rgb\touch-rgb.c" 1
  51  001D  0001        	clr wdt
  52  001E              #line 52 "E:\hamed\touch2\touch-rgb\touch-rgb.c"
  52  001E  2000     R  	call _Key_Select
  53  001F              #line 53 "E:\hamed\touch2\touch-rgb\touch-rgb.c"
  53  001F  2000     R  	call _Key_Touch
  53  0020  2800     R  	jmp _L84
  53  0021  2800     R  	jmp $
  53  0022              _main endp
  53  0022              
  53  0022              @dummy endp
  53  0022              
  53  0022              #line 53 "E:\hamed\touch2\touch-rgb\touch-rgb.c"
  53  0022              #pragma debug scope 1 1
  53  0022              public _q
  53  0000              @HCCINIT	.section 'data'

  15  0000              #line 15 "E:\hamed\touch2\touch-rgb\RGB.h"
  15  0000              @BITDATASEC .section 'data'
  15  0000  00          _q	dbit 0
  15  0001              #pragma debug variable 2 1 _q "q"
"File: RGB.h         Assembler  Version HGASM0202      Page 23

  15  0001              public _counter3
  14  0001              #line 14 "E:\hamed\touch2\touch-rgb\RGB.h"
  14  0000              @HCCINIT .section 'data'
  14  0000              _counter3 label byte
  14  0000              #pragma debug variable 11 1 _counter3 "counter3"
  14  0000              	db 0
  14  0000              @ROMDATA_BASE .section inpage 'code'
  14  0000              	db 0
  14  0001              @HCCINIT .section 'data'
  14  0001              	db 0
  14  0001              @ROMDATA_BASE .section inpage 'code'
  14  0001              	db 0
  14  0002              @HCCINIT .section 'data'
  14  0002              public _counter2
  13  0002              #line 13 "E:\hamed\touch2\touch-rgb\RGB.h"
  13  0002              @HCCINIT .section 'data'
  13  0002              _counter2 label byte
  13  0002              #pragma debug variable 11 1 _counter2 "counter2"
  13  0002              	db 0
  13  0001              @ROMDATA_BASE .section inpage 'code'
  13  0001              	db 0
  13  0003              @HCCINIT .section 'data'
  13  0003              	db 0
  13  0002              @ROMDATA_BASE .section inpage 'code'
  13  0002              	db 0
  13  0004              @HCCINIT .section 'data'
  13  0004              public _counter1
  12  0004              #line 12 "E:\hamed\touch2\touch-rgb\RGB.h"
  12  0004              @HCCINIT .section 'data'
  12  0004              _counter1 label byte
  12  0004              #pragma debug variable 11 1 _counter1 "counter1"
  12  0004              	db 0
  12  0002              @ROMDATA_BASE .section inpage 'code'
  12  0002              	db 0
  12  0005              @HCCINIT .section 'data'
  12  0005              	db 0
  12  0003              @ROMDATA_BASE .section inpage 'code'
  12  0003              	db 0
  12  0006              @HCCINIT .section 'data'
  12  0006              public _ncount
  11  0006              #line 11 "E:\hamed\touch2\touch-rgb\RGB.h"
  11  0006              @HCCINIT .section 'data'
  11  0006              _ncount label byte
  11  0006              #pragma debug variable 11 1 _ncount "ncount"
  11  0006              	db 0
  11  0003              @ROMDATA_BASE .section inpage 'code'
  11  0003              	db 0
  11  0007              @HCCINIT .section 'data'
  11  0007              	db 0
  11  0004              @ROMDATA_BASE .section inpage 'code'
  11  0004              	db 0
  11  0008              @HCCINIT .section 'data'
  11  0008              public _counterrgb
   9  0008              #line 9 "E:\hamed\touch2\touch-rgb\RGB.h"
   9  0008              @HCCINIT .section 'data'
   9  0008              _counterrgb label byte
   9  0008              #pragma debug variable 11 1 _counterrgb "counterrgb"
   9  0008              	dw 15000
   9  0004              @ROMDATA_BASE .section inpage 'code'
   9  0004  3A98        	dc 15000
"File: RGB.h         Assembler  Version HGASM0202      Page 24

   9  000A              @HCCINIT .section 'data'
   9  000A              public _rgbpals
   9  000A              #line 9 "E:\hamed\touch2\touch-rgb\RGB.h"
   9  000A              @HCCINIT .section 'data'
   9  000A              _rgbpals label byte
   9  000A              #pragma debug variable 11 1 _rgbpals "rgbpals"
   9  000A              	db 0
   9  0005              @ROMDATA_BASE .section inpage 'code'
   9  0005              	db 0
   9  000B              @HCCINIT .section 'data'
   9  000B              	db 0
   9  0006              @ROMDATA_BASE .section inpage 'code'
   9  0006              	db 0
   9  000C              @HCCINIT .section 'data'
   9  000C              public _rgb2
   9  000C              #line 9 "E:\hamed\touch2\touch-rgb\RGB.h"
   9  000C              @HCCINIT .section 'data'
   9  000C              _rgb2 label byte
   9  000C              #pragma debug variable 11 1 _rgb2 "rgb2"
   9  000C              	db 0
   9  0006              @ROMDATA_BASE .section inpage 'code'
   9  0006              	db 0
   9  000D              @HCCINIT .section 'data'
   9  000D              	db 0
   9  0007              @ROMDATA_BASE .section inpage 'code'
   9  0007              	db 0
   9  000E              @HCCINIT .section 'data'
   9  000E              public _rgb1
   9  000E              #line 9 "E:\hamed\touch2\touch-rgb\RGB.h"
   9  000E              @HCCINIT .section 'data'
   9  000E              _rgb1 label byte
   9  000E              #pragma debug variable 11 1 _rgb1 "rgb1"
   9  000E              	db 0
   9  0007              @ROMDATA_BASE .section inpage 'code'
   9  0007              	db 0
   9  000F              @HCCINIT .section 'data'
   9  000F              	db 0
   9  0008              @ROMDATA_BASE .section inpage 'code'
   9  0008              	db 0
   9  0010              @HCCINIT .section 'data'
   9  0010              public _rgbauto
   9  0010              #line 9 "E:\hamed\touch2\touch-rgb\RGB.h"
   9  0010              @HCCINIT .section 'data'
   9  0010              _rgbauto label byte
   9  0010              #pragma debug variable 11 1 _rgbauto "rgbauto"
   9  0010              	db 0
   9  0008              @ROMDATA_BASE .section inpage 'code'
   9  0008              	db 0
   9  0011              @HCCINIT .section 'data'
   9  0011              	db 0
   9  0009              @ROMDATA_BASE .section inpage 'code'
   9  0009              	db 0
   9  0012              @HCCINIT .section 'data'
   9  0012              public _rgbchange
   9  0012              #line 9 "E:\hamed\touch2\touch-rgb\RGB.h"
   9  0012              @HCCINIT .section 'data'
   9  0012              _rgbchange label byte
   9  0012              #pragma debug variable 11 1 _rgbchange "rgbchange"
   9  0012              	db 0
   9  0009              @ROMDATA_BASE .section inpage 'code'
"File: RGB.h         Assembler  Version HGASM0202      Page 25

   9  0009              	db 0
   9  0013              @HCCINIT .section 'data'
   9  0013              	db 0
   9  000A              @ROMDATA_BASE .section inpage 'code'
   9  000A              	db 0
   9  0014              @HCCINIT .section 'data'
   9  0014              public _B
   9  0014              #line 9 "E:\hamed\touch2\touch-rgb\RGB.h"
   9  0014              @HCCINIT .section 'data'
   9  0014              _B label byte
   9  0014              #pragma debug variable 11 1 _B "B"
   9  0014              	db 0
   9  000A              @ROMDATA_BASE .section inpage 'code'
   9  000A              	db 0
   9  0015              @HCCINIT .section 'data'
   9  0015              	db 0
   9  000B              @ROMDATA_BASE .section inpage 'code'
   9  000B              	db 0
   9  0016              @HCCINIT .section 'data'
   9  0016              public _G
   9  0016              #line 9 "E:\hamed\touch2\touch-rgb\RGB.h"
   9  0016              @HCCINIT .section 'data'
   9  0016              _G label byte
   9  0016              #pragma debug variable 11 1 _G "G"
   9  0016              	dw 160
   9  000B              @ROMDATA_BASE .section inpage 'code'
   9  000B  00A0        	dc 160
   9  0018              @HCCINIT .section 'data'
   9  0018              public _R
   9  0018              #line 9 "E:\hamed\touch2\touch-rgb\RGB.h"
   9  0018              @HCCINIT .section 'data'
   9  0018              _R label byte
   9  0018              #pragma debug variable 11 1 _R "R"
   9  0018              	dw 160
   9  000C              @ROMDATA_BASE .section inpage 'code'
   9  000C  00A0        	dc 160
   9  001A              @HCCINIT .section 'data'
   9  001A              public _nsicl
   7  001A              #line 7 "E:\hamed\touch2\touch-rgb\RGB.h"
   7  001A              @HCCINIT .section 'data'
   7  001A              _nsicl label byte
   7  001A              #pragma debug variable 11 1 _nsicl "nsicl"
   7  001A              	dw 160
   7  000D              @ROMDATA_BASE .section inpage 'code'
   7  000D  00A0        	dc 160
   7  001C              @HCCINIT .section 'data'
   7  001C              public _CalibrSample
   4  001C              #line 4 "E:\hamed\touch2\touch-rgb\RGB.h"
   4  001C              @HCCINIT .section 'data'
   4  001C              _CalibrSample label byte
   4  001C              #pragma debug variable 8 1 _CalibrSample "CalibrSample"
   4  001C              	db 0
   4  000E              @ROMDATA_BASE .section inpage 'code'
   4  000E              	db 0
   4  001D              @HCCINIT .section 'data'
   4  001D              public _CalibrCount
   4  001D              #line 4 "E:\hamed\touch2\touch-rgb\RGB.h"
   4  001D              @HCCINIT .section 'data'
   4  001D              _CalibrCount label byte
   4  001D              #pragma debug variable 8 1 _CalibrCount "CalibrCount"
"File: RGB.h         Assembler  Version HGASM0202      Page 26

   4  001D              	db 0
   4  000F              @ROMDATA_BASE .section inpage 'code'
   4  000F              	db 0
   4  001E              @HCCINIT .section 'data'
   4  001E              public _counter
   4  001E              #line 4 "E:\hamed\touch2\touch-rgb\RGB.h"
   4  001E              @HCCINIT .section 'data'
   4  001E              _counter label byte
   4  001E              #pragma debug variable 8 1 _counter "counter"
   4  001E              	db 0
   4  000F              @ROMDATA_BASE .section inpage 'code'
   4  000F              	db 0
   4  001F              @HCCINIT .section 'data'
   4  001F              public _i
   4  001F              #line 4 "E:\hamed\touch2\touch-rgb\RGB.h"
   4  001F              @HCCINIT .section 'data'
   4  001F              _i label byte
   4  001F              #pragma debug variable 8 1 _i "i"
   4  001F              	db 0
   4  0010              @ROMDATA_BASE .section inpage 'code'
   4  0010              	db 0
   4  0020              @HCCINIT .section 'data'
   4  0020              public _Count_T1
   3  0020              #line 3 "E:\hamed\touch2\touch-rgb\RGB.h"
   3  0020              @HCCINIT .section 'data'
   3  0020              _Count_T1 label byte
   3  0020              #pragma debug variable 12 1 _Count_T1 "Count_T1"
   3  0020              	db 0
   3  0010              @ROMDATA_BASE .section inpage 'code'
   3  0010              	db 0
   3  0021              @HCCINIT .section 'data'
   3  0021              	db 0
   3  0011              @ROMDATA_BASE .section inpage 'code'
   3  0011              	db 0
   3  0022              @HCCINIT .section 'data'
   3  0022              public _Count_S1
   2  0022              #line 2 "E:\hamed\touch2\touch-rgb\RGB.h"
   2  0022              @HCCINIT .section 'data'
   2  0022              _Count_S1 label byte
   2  0022              #pragma debug variable 12 1 _Count_S1 "Count_S1"
   2  0022              	db 0
   2  0011              @ROMDATA_BASE .section inpage 'code'
   2  0011              	db 0
   2  0023              @HCCINIT .section 'data'
   2  0023              	db 0
   2  0012              @ROMDATA_BASE .section inpage 'code'
   2  0012              	db 0
   2  0024              @HCCINIT .section 'data'
   2  0024              public _Count_C1_Backup
   1  0024              #line 1 "E:\hamed\touch2\touch-rgb\RGB.h"
   1  0024              @HCCINIT .section 'data'
   1  0024              _Count_C1_Backup label byte
   1  0024              #pragma debug variable 14 1 _Count_C1_Backup "Count_C1_Backup"
   1  0024              	db 0
   1  0012              @ROMDATA_BASE .section inpage 'code'
   1  0012              	db 0
   1  0025              @HCCINIT .section 'data'
   1  0025              	db 0
   1  0013              @ROMDATA_BASE .section inpage 'code'
   1  0013              	db 0
"File: RGB.h         Assembler  Version HGASM0202      Page 27

   1  0026              @HCCINIT .section 'data'
   1  0026              	db 0
   1  0013              @ROMDATA_BASE .section inpage 'code'
   1  0013              	db 0
   1  0027              @HCCINIT .section 'data'
   1  0027              	db 0
   1  0014              @ROMDATA_BASE .section inpage 'code'
   1  0014              	db 0
   1  0028              @HCCINIT .section 'data'
   1  0028              public _Count_C1
   1  0028              #line 1 "E:\hamed\touch2\touch-rgb\RGB.h"
   1  0028              @HCCINIT .section 'data'
   1  0028              _Count_C1 label byte
   1  0028              #pragma debug variable 14 1 _Count_C1 "Count_C1"
   1  0028              	db 0
   1  0014              @ROMDATA_BASE .section inpage 'code'
   1  0014              	db 0
   1  0029              @HCCINIT .section 'data'
   1  0029              	db 0
   1  0015              @ROMDATA_BASE .section inpage 'code'
   1  0015              	db 0
   1  002A              @HCCINIT .section 'data'
   1  002A              	db 0
   1  0015              @ROMDATA_BASE .section inpage 'code'
   1  0015              	db 0
   1  002B              @HCCINIT .section 'data'
   1  002B              	db 0
   1  0016              @ROMDATA_BASE .section inpage 'code'
   1  0016              	db 0
   1  002C              @HCCINIT .section 'data'
   1  002C              #pragma debug struct_end
   1  002C              #pragma debug struct_end
   1  002C              #pragma debug union_end
   1  002C              #pragma debug union_end
   1  002C              #pragma debug variable 43 1 ___smod "__smod" 1
   1  002C              #pragma debug struct_end
   1  002C              #pragma debug struct_end
   1  002C              #pragma debug union_end
   1  002C              #pragma debug union_end
   1  002C              #pragma debug variable 45 1 ___integ "__integ" 1
   1  002C              #pragma debug struct_end
   1  002C              #pragma debug struct_end
   1  002C              #pragma debug union_end
   1  002C              #pragma debug union_end
   1  002C              #pragma debug variable 47 1 ___intc0 "__intc0" 1
   1  002C              #pragma debug struct_end
   1  002C              #pragma debug struct_end
   1  002C              #pragma debug union_end
   1  002C              #pragma debug union_end
   1  002C              #pragma debug variable 49 1 ___pa "__pa" 1
   1  002C              #pragma debug struct_end
   1  002C              #pragma debug struct_end
   1  002C              #pragma debug union_end
   1  002C              #pragma debug union_end
   1  002C              #pragma debug variable 51 1 ___pac "__pac" 1
   1  002C              #pragma debug struct_end
   1  002C              #pragma debug struct_end
   1  002C              #pragma debug union_end
   1  002C              #pragma debug union_end
   1  002C              #pragma debug variable 53 1 ___tmrc "__tmrc" 1
"File: RGB.h         Assembler  Version HGASM0202      Page 28

   1  002C              #pragma debug variable 8 1 ___tktmr "__tktmr" 1
   1  002C              #pragma debug struct_end
   1  002C              #pragma debug struct_end
   1  002C              #pragma debug union_end
   1  002C              #pragma debug union_end
   1  002C              #pragma debug variable 55 1 ___tkc0 "__tkc0" 1
   1  002C              #pragma debug struct_end
   1  002C              #pragma debug struct_end
   1  002C              #pragma debug union_end
   1  002C              #pragma debug union_end
   1  002C              #pragma debug variable 57 1 ___tkc1 "__tkc1" 1
   1  002C              #pragma debug variable 8 1 ___tkm016dl "__tkm016dl" 1
   1  002C              #pragma debug variable 8 1 ___tkm016dh "__tkm016dh" 1
   1  002C              #pragma debug variable 8 1 ___tkm0rol "__tkm0rol" 1
   1  002C              #pragma debug variable 8 1 ___tkm0roh "__tkm0roh" 1
   1  002C              #pragma debug struct_end
   1  002C              #pragma debug struct_end
   1  002C              #pragma debug union_end
   1  002C              #pragma debug union_end
   1  002C              #pragma debug variable 59 1 ___tkm0c0 "__tkm0c0" 1
   1  002C              #pragma debug struct_end
   1  002C              #pragma debug struct_end
   1  002C              #pragma debug union_end
   1  002C              #pragma debug union_end
   1  002C              #pragma debug variable 61 1 ___tkm0c1 "__tkm0c1" 1
   1  002C              extern r1:byte
   1  002C              extern r2:byte

  15  002C              #line 15 "E:\hamed\touch2\touch-rgb\touch-rgb.c"
  15  0000              @code .section at 0 'code'
  15  0000  2800     R  	jmp _main_startup1
  15  0001              
  15  0001              extern _builtin_holtek_mulsi3_2:byte
  15  0001              extern _builtin_holtek_mulsi3:near
  15  0001              extern _builtin_holtek_udivmodsi4_2:byte
  15  0001              extern _builtin_holtek_udivmodsi4:near
  15  0001              
  15  0001              ; 
  15  0001              ; Generated by holtek-gcc v3.19, Sun Jan 21 13:12:39 2024
  15  0001              ; Rebuild 718
  15  0001              ; end of file


        0 Errors, 0