"File: RGB-2key.c    Assembler  Version HGASM0202      Page 1


   1  0000              ; Generated by holtek-gcc v3.19, Tue Jul 30 15:52:21 2024
   2  0000              ; 
   3  0000              ; Configuration:
   4  0000              ;       without long instruction
   5  0000              ;       Single ROM, Multi-RAM
   6  0000              ;       bits_per_rom_unit:16
   7  0000              ;       with mp1
   8  0000              ;       with tbhp, address(0x9)
   9  0000              ;          Use tabrd-const
  10  0000              ;       
  11  0000              ;       
  12  0000              ;       
  13  0000              ; use 'tabrdc' instead of 'tabrd'
  14  0000              ;       
  15  0000              
  16  0000              #pragma translator "holtek-gcc 4.6.4" "3.19" "build 20130711"
  17  0000              ; Rebuild 718
  18  0000              
  19  0000              ir equ [2]
  20  0000              mp equ [3]
  21  0000              sbp equ [1]
  22  0000              acc equ [5]
  23  0000              bp equ [4]
  24  0000              tblp equ [7]
  25  0000              tbhp equ [9]
  26  0000              status equ [10]
  27  0000              c equ [10].0
  28  0000              ac equ [10].1
  29  0000              z equ [10].2
  30  0000              ov equ [10].3
  31  0000              intc equ [11]
  32  0000              
  33  0000              extern ra:byte
  34  0000              extern rb:byte
  35  0000              extern rc:byte
  36  0000              extern rd:byte
  37  0000              extern re:byte
  38  0000              extern rf:byte
  39  0000              extern rg:byte
  40  0000              extern rh:byte
  41  0000              extern _Crom2Prom:near
  42  0000              extern _Crom2PromNext:near
  43  0000              
  44  0000              RAMBANK 0 @HCCINIT, @HCCINIT0
  45  0000              
  46  0000              RAMBANK 0 @BITDATASEC, @BITDATASEC1
  47  0000              @HCCINIT	.section 'data'
  48  0000              @HCCINIT0	.section 'data'
  49  0000              @BITDATASEC	 .section 'data'
  50  0000              @BITDATASEC1	 .section 'data'
  51  0000              
  52  0000              #pragma debug scope 1 1
  53  0000              	extern __DELAY3:near
  54  0000              	extern __DELAYX3:near
  55  0000              	extern __DELAYX6:near
  56  0000              	extern __DELAYY5:near
  57  0000              	extern __DELAYY3:near
  58  0000              	extern _builtin_holtek_delay_2:byte
  59  0000              public _delay_10us
"File: RGB-2key.ASM  Assembler  Version HGASM0202      Page 2

  60  0000              #pragma debug scope 2 1

  11  0000              #line 11 "E:\hamed\touch2\touch-rgb-2key\RGB-2key\DELAY.h"
  11  0000              _delay_10us .section 'code'
  11  0000              _delay_10us proc
  11  0000              public _delay_10us_2
  11  0000  0004[           local _delay_10us_2 db 4 dup(?)	; 4,0
            00
            ]
  11  0004              #pragma debug variable 14 2 _delay_10us_2+0 "count_u"
  15  0004              #line 15 "E:\hamed\touch2\touch-rgb-2key\RGB-2key\DELAY.h"
  15  0000  1F00     E  	clr rd
  15  0001  1F00     E  	clr re
  15  0002  1F00     E  	clr rf
  15  0003  1F00     E  	clr rg
  15  0004  2800     R  	jmp _L2
  15  0005              _L3:
  17  0005              #line 17 "E:\hamed\touch2\touch-rgb-2key\RGB-2key\DELAY.h"
  17  0005              ;# 17 "E:\hamed\touch2\touch-rgb-2key\RGB-2key\DELAY.h" 1
  17  0005  0001        	clr wdt
  18  0006              #line 18 "E:\hamed\touch2\touch-rgb-2key\RGB-2key\DELAY.h"
  18  0006              ;# 18 "E:\hamed\touch2\touch-rgb-2key\RGB-2key\DELAY.h" 1
  18  0006  0000        	nop
  19  0007              #line 19 "E:\hamed\touch2\touch-rgb-2key\RGB-2key\DELAY.h"
  19  0007              ;# 19 "E:\hamed\touch2\touch-rgb-2key\RGB-2key\DELAY.h" 1
  19  0007  0000        	nop
  20  0008              #line 20 "E:\hamed\touch2\touch-rgb-2key\RGB-2key\DELAY.h"
  20  0008              ;# 20 "E:\hamed\touch2\touch-rgb-2key\RGB-2key\DELAY.h" 1
  20  0008  0000        	nop
  21  0009              #line 21 "E:\hamed\touch2\touch-rgb-2key\RGB-2key\DELAY.h"
  21  0009              ;# 21 "E:\hamed\touch2\touch-rgb-2key\RGB-2key\DELAY.h" 1
  21  0009  0000        	nop
  15  000A              #line 15 "E:\hamed\touch2\touch-rgb-2key\RGB-2key\DELAY.h"
  15  000A  0F01        	mov a,1
  15  000B  0380     E  	addm a,rd
  15  000C  0F00        	mov a,0
  15  000D  1380     E  	adcm a,re
  15  000E  1380     E  	adcm a,rf
  15  000F  1380     E  	adcm a,rg
  15  0010              _L2:
  15  0010  0700     E  	mov a,rd
  15  0011  0400     R  	xor a,_delay_10us_2[0]
  15  0012  0700     E  	mov a,re
  15  0013  3D0A        	sz z
  15  0014  0400     R  	xor a,_delay_10us_2[1]
  15  0015  0700     E  	mov a,rf
  15  0016  3D0A        	sz z
  15  0017  0400     R  	xor a,_delay_10us_2[2]
  15  0018  0700     E  	mov a,rg
  15  0019  3D0A        	sz z
  15  001A  0400     R  	xor a,_delay_10us_2[3]
  15  001B  390A        	snz z
  15  001C  2800     R  	jmp _L3
  15  001D  0003        	ret
  15  001E              _delay_10us endp
  15  001E              #line 15 "E:\hamed\touch2\touch-rgb-2key\RGB-2key\DELAY.h"
  15  001E              #pragma debug scope 1 1
  15  001E              public _delay_us
  15  001E              #pragma debug scope 3 1
  28  001E              #line 28 "E:\hamed\touch2\touch-rgb-2key\RGB-2key\DELAY.h"
"File: DELAY.h       Assembler  Version HGASM0202      Page 3

  28  0000              _delay_us .section 'code'
  28  0000              _delay_us proc
  28  0000              public _delay_us_2
  28  0000  0004[           local _delay_us_2 db 4 dup(?)	; 4,0
            00
            ]
  28  0004              #pragma debug variable 14 3 _delay_us_2+0 "count_u"
  32  0004              #line 32 "E:\hamed\touch2\touch-rgb-2key\RGB-2key\DELAY.h"
  32  0000  1F00     E  	clr rd
  32  0001  1F00     E  	clr re
  32  0002  1F00     E  	clr rf
  32  0003  1F00     E  	clr rg
  32  0004  2800     R  	jmp _L6
  32  0005              _L7:
  34  0005              #line 34 "E:\hamed\touch2\touch-rgb-2key\RGB-2key\DELAY.h"
  34  0005              ;# 34 "E:\hamed\touch2\touch-rgb-2key\RGB-2key\DELAY.h" 1
  34  0005  0001        	clr wdt
  35  0006              #line 35 "E:\hamed\touch2\touch-rgb-2key\RGB-2key\DELAY.h"
  35  0006              ;# 35 "E:\hamed\touch2\touch-rgb-2key\RGB-2key\DELAY.h" 1
  35  0006  0000        	nop
  32  0007              #line 32 "E:\hamed\touch2\touch-rgb-2key\RGB-2key\DELAY.h"
  32  0007  0F01        	mov a,1
  32  0008  0380     E  	addm a,rd
  32  0009  0F00        	mov a,0
  32  000A  1380     E  	adcm a,re
  32  000B  1380     E  	adcm a,rf
  32  000C  1380     E  	adcm a,rg
  32  000D              _L6:
  32  000D  0700     E  	mov a,rd
  32  000E  0400     R  	xor a,_delay_us_2[0]
  32  000F  0700     E  	mov a,re
  32  0010  3D0A        	sz z
  32  0011  0400     R  	xor a,_delay_us_2[1]
  32  0012  0700     E  	mov a,rf
  32  0013  3D0A        	sz z
  32  0014  0400     R  	xor a,_delay_us_2[2]
  32  0015  0700     E  	mov a,rg
  32  0016  3D0A        	sz z
  32  0017  0400     R  	xor a,_delay_us_2[3]
  32  0018  390A        	snz z
  32  0019  2800     R  	jmp _L7
  32  001A  0003        	ret
  32  001B              _delay_us endp
  32  001B              #line 32 "E:\hamed\touch2\touch-rgb-2key\RGB-2key\DELAY.h"
  32  001B              #pragma debug scope 1 1
  32  001B              public _delay_ms
  32  001B              #pragma debug scope 4 1
  42  001B              #line 42 "E:\hamed\touch2\touch-rgb-2key\RGB-2key\DELAY.h"
  42  0000              _delay_ms .section 'code'
  42  0000              _delay_ms proc
  42  0000              public _delay_ms_2
  42  0000  0008[           local _delay_ms_2 db 8 dup(?)	; 4,4
            00
            ]
  42  0008              #pragma debug variable 14 4 _delay_ms_2+0 "count_m"
  44  0008              #line 44 "E:\hamed\touch2\touch-rgb-2key\RGB-2key\DELAY.h"
  44  0000  0700     R  	mov a,_delay_ms_2[0]
  44  0001  0080     E  	mov _builtin_holtek_mulsi3_2[0],a
  44  0002  0700     R  	mov a,_delay_ms_2[1]
  44  0003  0080     E  	mov _builtin_holtek_mulsi3_2[1],a
"File: DELAY.h       Assembler  Version HGASM0202      Page 4

  44  0004  0700     R  	mov a,_delay_ms_2[2]
  44  0005  0080     E  	mov _builtin_holtek_mulsi3_2[2],a
  44  0006  0700     R  	mov a,_delay_ms_2[3]
  44  0007  0080     E  	mov _builtin_holtek_mulsi3_2[3],a
  44  0008  0F64        	mov a,100
  44  0009  0080     E  	mov _builtin_holtek_mulsi3_2[4],a
  44  000A  0F00        	mov a,0
  44  000B  0080     E  	mov _builtin_holtek_mulsi3_2[5],a
  44  000C  0F00        	mov a,0
  44  000D  0080     E  	mov _builtin_holtek_mulsi3_2[6],a
  44  000E  0F00        	mov a,0
  44  000F  0080     E  	mov _builtin_holtek_mulsi3_2[7],a
  44  0010  2000     E  	call _builtin_holtek_mulsi3
  44  0011  0700     E  	mov a,_builtin_holtek_mulsi3_2[8]
  44  0012  0080     R  	mov _delay_ms_2[4],a
  44  0013  0700     E  	mov a,_builtin_holtek_mulsi3_2[9]
  44  0014  0080     R  	mov _delay_ms_2[5],a
  44  0015  0700     E  	mov a,_builtin_holtek_mulsi3_2[10]
  44  0016  0080     R  	mov _delay_ms_2[6],a
  44  0017  0700     E  	mov a,_builtin_holtek_mulsi3_2[11]
  44  0018  0080     R  	mov _delay_ms_2[7],a
  45  0019              #line 45 "E:\hamed\touch2\touch-rgb-2key\RGB-2key\DELAY.h"
  45  0019  1F00     E  	clr rd
  45  001A  1F00     E  	clr re
  45  001B  1F00     E  	clr rf
  45  001C  1F00     E  	clr rg
  45  001D  2800     R  	jmp _L9
  45  001E              _L10:
  47  001E              #line 47 "E:\hamed\touch2\touch-rgb-2key\RGB-2key\DELAY.h"
  47  001E              ;# 47 "E:\hamed\touch2\touch-rgb-2key\RGB-2key\DELAY.h" 1
  47  001E  0001        	clr wdt
  48  001F              #line 48 "E:\hamed\touch2\touch-rgb-2key\RGB-2key\DELAY.h"
  48  001F              ;# 48 "E:\hamed\touch2\touch-rgb-2key\RGB-2key\DELAY.h" 1
  48  001F  0000        	nop
  49  0020              #line 49 "E:\hamed\touch2\touch-rgb-2key\RGB-2key\DELAY.h"
  49  0020              ;# 49 "E:\hamed\touch2\touch-rgb-2key\RGB-2key\DELAY.h" 1
  49  0020  0000        	nop
  50  0021              #line 50 "E:\hamed\touch2\touch-rgb-2key\RGB-2key\DELAY.h"
  50  0021              ;# 50 "E:\hamed\touch2\touch-rgb-2key\RGB-2key\DELAY.h" 1
  50  0021  0000        	nop
  51  0022              #line 51 "E:\hamed\touch2\touch-rgb-2key\RGB-2key\DELAY.h"
  51  0022              ;# 51 "E:\hamed\touch2\touch-rgb-2key\RGB-2key\DELAY.h" 1
  51  0022  0000        	nop
  45  0023              #line 45 "E:\hamed\touch2\touch-rgb-2key\RGB-2key\DELAY.h"
  45  0023  0F01        	mov a,1
  45  0024  0380     E  	addm a,rd
  45  0025  0F00        	mov a,0
  45  0026  1380     E  	adcm a,re
  45  0027  1380     E  	adcm a,rf
  45  0028  1380     E  	adcm a,rg
  45  0029              _L9:
  45  0029  0700     E  	mov a,rd
  45  002A  0400     R  	xor a,_delay_ms_2[4]
  45  002B  0700     E  	mov a,re
  45  002C  3D0A        	sz z
  45  002D  0400     R  	xor a,_delay_ms_2[5]
  45  002E  0700     E  	mov a,rf
  45  002F  3D0A        	sz z
  45  0030  0400     R  	xor a,_delay_ms_2[6]
  45  0031  0700     E  	mov a,rg
"File: DELAY.h       Assembler  Version HGASM0202      Page 5

  45  0032  3D0A        	sz z
  45  0033  0400     R  	xor a,_delay_ms_2[7]
  45  0034  390A        	snz z
  45  0035  2800     R  	jmp _L10
  45  0036  0003        	ret
  45  0037              _delay_ms endp
  45  0037              #line 45 "E:\hamed\touch2\touch-rgb-2key\RGB-2key\DELAY.h"
  45  0037              #pragma debug scope 1 1
  45  0037              ___intc0 equ [14]
  45  0037              ___tktmr equ [67]
  45  0037              ___tkc0 equ [68]
  45  0037              ___tkc1 equ [71]
  45  0037              ___tkm0c1 equ [77]
  45  0037              ___tkm0rol equ [74]
  45  0037              ___tkm0roh equ [75]
  45  0037              ___tkm0c0 equ [76]
  45  0037              public _TuochKeyInit
  45  0037              #pragma debug scope 5 1

  95  0037              #line 95 "E:\hamed\touch2\touch-rgb-2key\RGB-2key\RGB-2key.h"
  95  0000              _TuochKeyInit .section 'code'
  95  0000              _TuochKeyInit proc
  97  0000              #line 97 "E:\hamed\touch2\touch-rgb-2key\RGB-2key\RGB-2key.h"
  97  0000  350E        	clr [14].2
  98  0001              #line 98 "E:\hamed\touch2\touch-rgb-2key\RGB-2key\RGB-2key.h"
  98  0001  368E        	clr [14].5
  99  0002              #line 99 "E:\hamed\touch2\touch-rgb-2key\RGB-2key\RGB-2key.h"
  99  0002  1F43        	clr [67]
 100  0003              #line 100 "E:\hamed\touch2\touch-rgb-2key\RGB-2key\RGB-2key.h"
 100  0003  34C4        	clr [68].1
 100  0004  3444        	clr [68].0
 101  0005              #line 101 "E:\hamed\touch2\touch-rgb-2key\RGB-2key\RGB-2key.h"
 101  0005  30C7        	set [71].1
 101  0006  3047        	set [71].0
 104  0007              #line 104 "E:\hamed\touch2\touch-rgb-2key\RGB-2key\RGB-2key.h"
 104  0007  35CD        	clr [77].3
 104  0008  354D        	clr [77].2
 104  0009  30CD        	set [77].1
 104  000A  304D        	set [77].0
 105  000B              #line 105 "E:\hamed\touch2\touch-rgb-2key\RGB-2key\RGB-2key.h"
 105  000B  0FC8        	mov a,200
 105  000C  00CA        	mov [74],a
 105  000D  1F4B        	clr [75]
 106  000E              #line 106 "E:\hamed\touch2\touch-rgb-2key\RGB-2key\RGB-2key.h"
 106  000E  32CC        	set [76].5
 107  000F              #line 107 "E:\hamed\touch2\touch-rgb-2key\RGB-2key\RGB-2key.h"
 107  000F  324C        	set [76].4
 108  0010              #line 108 "E:\hamed\touch2\touch-rgb-2key\RGB-2key\RGB-2key.h"
 108  0010  35CC        	clr [76].3
 109  0011              #line 109 "E:\hamed\touch2\touch-rgb-2key\RGB-2key\RGB-2key.h"
 109  0011  314C        	set [76].2
 109  0012  30CC        	set [76].1
 109  0013  304C        	set [76].0
 110  0014              #line 110 "E:\hamed\touch2\touch-rgb-2key\RGB-2key\RGB-2key.h"
 110  0014  37CD        	clr [77].7
 111  0015              #line 111 "E:\hamed\touch2\touch-rgb-2key\RGB-2key\RGB-2key.h"
 111  0015  32CD        	set [77].5
 112  0016              #line 112 "E:\hamed\touch2\touch-rgb-2key\RGB-2key\RGB-2key.h"
 112  0016  324D        	set [77].4
 112  0017  0003        	ret
"File: RGB-2key.h    Assembler  Version HGASM0202      Page 6

 112  0018              _TuochKeyInit endp
 112  0018              #line 112 "E:\hamed\touch2\touch-rgb-2key\RGB-2key\RGB-2key.h"
 112  0018              #pragma debug scope 1 1
 112  0018              ___pa equ [20]
 112  0018              public _Key_Touch
 112  0018              #pragma debug scope 6 1
 116  0018              #line 116 "E:\hamed\touch2\touch-rgb-2key\RGB-2key\RGB-2key.h"
 116  0000              _Key_Touch .section 'code'
 116  0000              _Key_Touch proc
 117  0000              #line 117 "E:\hamed\touch2\touch-rgb-2key\RGB-2key\RGB-2key.h"
 117  0000  0FCE        	mov a,206
 117  0001  0300     R  	add a,_Count_C1[0]
 117  0002  0080     E  	mov rd,a
 117  0003  0FFF        	mov a,255
 117  0004  1300     R  	adc a,_Count_C1[1]
 117  0005  0080     E  	mov re,a
 117  0006  0FFF        	mov a,255
 117  0007  1300     R  	adc a,_Count_C1[2]
 117  0008  0080     E  	mov rf,a
 117  0009  0FFF        	mov a,255
 117  000A  1300     R  	adc a,_Count_C1[3]
 117  000B  0080     E  	mov rg,a
 117  000C  0700     R  	mov a,_Count_S1[0]
 117  000D  0200     E  	sub a,rd
 117  000E  0700     R  	mov a,_Count_S1[1]
 117  000F  1200     E  	sbc a,re
 117  0010  1F05        	clr acc
 117  0011  1200     E  	sbc a,rf
 117  0012  1F05        	clr acc
 117  0013  1200     E  	sbc a,rg
 117  0014  3C0A        	sz c
 117  0015  2800     R  	jmp _L13
 119  0016              #line 119 "E:\hamed\touch2\touch-rgb-2key\RGB-2key\RGB-2key.h"
 119  0016  1480     R  	inc _Count_T1[0]
 119  0017  3D0A        	sz z
 119  0018  1480     R  	inc _Count_T1[1]
 119  0019  0FE8        	mov a,232
 119  001A  0200     R  	sub a,_Count_T1[0]
 119  001B  0F03        	mov a,3
 119  001C  1200     R  	sbc a,_Count_T1[1]
 119  001D  3C0A        	sz c
 119  001E  2800     R  	jmp _L15
 119  001F  0FE8        	mov a,-24
 119  0020  0080     R  	mov _Count_T1[0],a
 119  0021  0F03        	mov a,3
 119  0022  0080     R  	mov _Count_T1[1],a
 119  0023  2800     R  	jmp _L15
 119  0024              _L13:
 121  0024              #line 121 "E:\hamed\touch2\touch-rgb-2key\RGB-2key\RGB-2key.h"
 121  0024  0FF6        	mov a,246
 121  0025  0300     R  	add a,_Count_C1[0]
 121  0026  0080     E  	mov rd,a
 121  0027  0FFF        	mov a,255
 121  0028  1300     R  	adc a,_Count_C1[1]
 121  0029  0080     E  	mov re,a
 121  002A  0FFF        	mov a,255
 121  002B  1300     R  	adc a,_Count_C1[2]
 121  002C  0080     E  	mov rf,a
 121  002D  0FFF        	mov a,255
 121  002E  1300     R  	adc a,_Count_C1[3]
"File: RGB-2key.h    Assembler  Version HGASM0202      Page 7

 121  002F  0080     E  	mov rg,a
 121  0030  1080     E  	sz rg
 121  0031  2800     R  	jmp _L15
 121  0032  1080     E  	sz rf
 121  0033  2800     R  	jmp _L15
 121  0034  0700     E  	mov a,rd
 121  0035  0200     R  	sub a,_Count_S1[0]
 121  0036  0700     E  	mov a,re
 121  0037  1200     R  	sbc a,_Count_S1[1]
 121  0038  3C0A        	sz c
 121  0039  2800     R  	jmp _L15
 123  003A              #line 123 "E:\hamed\touch2\touch-rgb-2key\RGB-2key\RGB-2key.h"
 123  003A  1F00     R  	clr _Count_T1[0]
 123  003B  1F00     R  	clr _Count_T1[1]
 123  003C              _L15:
 125  003C              #line 125 "E:\hamed\touch2\touch-rgb-2key\RGB-2key\RGB-2key.h"
 125  003C  0700     R  	mov a,_Count_T1[0]
 125  003D  0C3C        	xor a,60
 125  003E  0500     R  	or a,_Count_T1[1]
 125  003F  390A        	snz z
 125  0040  2800     R  	jmp _L17
 127  0041              #line 127 "E:\hamed\touch2\touch-rgb-2key\RGB-2key\RGB-2key.h"
 127  0041  3800     R  	snz _q
 127  0042  2800     R  	jmp _L18
 127  0043  3400     R  	clr _q
 127  0044  2800     R  	jmp _L19
 127  0045              _L18:
 128  0045              #line 128 "E:\hamed\touch2\touch-rgb-2key\RGB-2key\RGB-2key.h"
 128  0045  3000     R  	set _q
 128  0046              _L19:
 130  0046              #line 130 "E:\hamed\touch2\touch-rgb-2key\RGB-2key\RGB-2key.h"
 130  0046  1F00     R  	clr _CalibrCount1[0]
 131  0047              #line 131 "E:\hamed\touch2\touch-rgb-2key\RGB-2key\RGB-2key.h"
 131  0047  1F00     R  	clr _CalibrSample1[0]
 132  0048              #line 132 "E:\hamed\touch2\touch-rgb-2key\RGB-2key\RGB-2key.h"
 132  0048  1F00     R  	clr _Count_C1_Backup[0]
 132  0049  1F00     R  	clr _Count_C1_Backup[1]
 132  004A  1F00     R  	clr _Count_C1_Backup[2]
 132  004B  1F00     R  	clr _Count_C1_Backup[3]
 132  004C              _L17:
 144  004C              #line 144 "E:\hamed\touch2\touch-rgb-2key\RGB-2key\RGB-2key.h"
 144  004C  0FC9        	mov a,201
 144  004D  0300     R  	add a,_Count_C2[0]
 144  004E  0080     E  	mov rd,a
 144  004F  0FFF        	mov a,255
 144  0050  1300     R  	adc a,_Count_C2[1]
 144  0051  0080     E  	mov re,a
 144  0052  0FFF        	mov a,255
 144  0053  1300     R  	adc a,_Count_C2[2]
 144  0054  0080     E  	mov rf,a
 144  0055  0FFF        	mov a,255
 144  0056  1300     R  	adc a,_Count_C2[3]
 144  0057  0080     E  	mov rg,a
 144  0058  0700     R  	mov a,_Count_S2[0]
 144  0059  0200     E  	sub a,rd
 144  005A  0700     R  	mov a,_Count_S2[1]
 144  005B  1200     E  	sbc a,re
 144  005C  1F05        	clr acc
 144  005D  1200     E  	sbc a,rf
 144  005E  1F05        	clr acc
"File: RGB-2key.h    Assembler  Version HGASM0202      Page 8

 144  005F  1200     E  	sbc a,rg
 144  0060  3C0A        	sz c
 144  0061  2800     R  	jmp _L20
 146  0062              #line 146 "E:\hamed\touch2\touch-rgb-2key\RGB-2key\RGB-2key.h"
 146  0062  1480     R  	inc _Count_T2[0]
 146  0063  3D0A        	sz z
 146  0064  1480     R  	inc _Count_T2[1]
 148  0065              #line 148 "E:\hamed\touch2\touch-rgb-2key\RGB-2key\RGB-2key.h"
 148  0065  0FD0        	mov a,208
 148  0066  0200     R  	sub a,_Count_T2[0]
 148  0067  0F07        	mov a,7
 148  0068  1200     R  	sbc a,_Count_T2[1]
 148  0069  3C0A        	sz c
 148  006A  2800     R  	jmp _L21
 150  006B              #line 150 "E:\hamed\touch2\touch-rgb-2key\RGB-2key\RGB-2key.h"
 150  006B  1F00     R  	clr _rgbpals[0]
 150  006C  1F00     R  	clr _rgbpals[1]
 151  006D              #line 151 "E:\hamed\touch2\touch-rgb-2key\RGB-2key\RGB-2key.h"
 151  006D  0FD0        	mov a,-48
 151  006E  0080     R  	mov _Count_T1[0],a
 151  006F  0F07        	mov a,7
 151  0070  0080     R  	mov _Count_T1[1],a
 151  0071              _L21:
 154  0071              #line 154 "E:\hamed\touch2\touch-rgb-2key\RGB-2key\RGB-2key.h"
 154  0071  0F2C        	mov a,44
 154  0072  0200     R  	sub a,_Count_T2[0]
 154  0073  0F01        	mov a,1
 154  0074  1200     R  	sbc a,_Count_T2[1]
 154  0075  3C0A        	sz c
 154  0076  2800     R  	jmp _L12
 154  0077  3800     R  	snz _q
 154  0078  2800     R  	jmp _L12
 154  0079  0700     R  	mov a,_rgbchange[0]
 154  007A  0500     R  	or a,_rgbchange[1]
 154  007B  390A        	snz z
 154  007C  2800     R  	jmp _L12
 156  007D              #line 156 "E:\hamed\touch2\touch-rgb-2key\RGB-2key\RGB-2key.h"
 156  007D  0F01        	mov a,1
 156  007E  0080     R  	mov _rgbchange[0],a
 156  007F  1F00     R  	clr _rgbchange[1]
 157  0080              #line 157 "E:\hamed\touch2\touch-rgb-2key\RGB-2key\RGB-2key.h"
 157  0080  1F00     R  	clr _rgbauto[0]
 157  0081  1F00     R  	clr _rgbauto[1]
 158  0082              #line 158 "E:\hamed\touch2\touch-rgb-2key\RGB-2key\RGB-2key.h"
 158  0082  0FE8        	mov a,-24
 158  0083  0080     R  	mov _Count_T2[0],a
 158  0084  0F03        	mov a,3
 158  0085  0080     R  	mov _Count_T2[1],a
 160  0086              #line 160 "E:\hamed\touch2\touch-rgb-2key\RGB-2key\RGB-2key.h"
 160  0086  3214        	set [20].4
 161  0087              #line 161 "E:\hamed\touch2\touch-rgb-2key\RGB-2key\RGB-2key.h"
 161  0087  3194        	set [20].3
 162  0088              #line 162 "E:\hamed\touch2\touch-rgb-2key\RGB-2key\RGB-2key.h"
 162  0088  3114        	set [20].2
 164  0089              #line 164 "E:\hamed\touch2\touch-rgb-2key\RGB-2key\RGB-2key.h"
 164  0089  0FEC        	mov a,-20
 164  008A  0080     R  	mov _counterrgb[0],a
 164  008B  1F80     R  	set _counterrgb[1]
 166  008C              #line 166 "E:\hamed\touch2\touch-rgb-2key\RGB-2key\RGB-2key.h"
 166  008C  1F00     R  	clr _rgbpals[0]
"File: RGB-2key.h    Assembler  Version HGASM0202      Page 9

 166  008D  1F00     R  	clr _rgbpals[1]
 168  008E              #line 168 "E:\hamed\touch2\touch-rgb-2key\RGB-2key\RGB-2key.h"
 168  008E  1F00     R  	clr _B[0]
 168  008F  1F00     R  	clr _B[1]
 168  0090  0F50        	mov a,80
 168  0091  0080     R  	mov _R[0],a
 168  0092  1F00     R  	clr _R[1]
 168  0093  0F50        	mov a,80
 168  0094  0080     R  	mov _G[0],a
 168  0095  1F00     R  	clr _G[1]
 169  0096              #line 169 "E:\hamed\touch2\touch-rgb-2key\RGB-2key\RGB-2key.h"
 169  0096  1F00     R  	clr _RGB[0]
 169  0097  1F00     R  	clr _RGB[1]
 169  0098  2800     R  	jmp _L12
 169  0099              _L20:
 174  0099              #line 174 "E:\hamed\touch2\touch-rgb-2key\RGB-2key\RGB-2key.h"
 174  0099  0FF6        	mov a,246
 174  009A  0300     R  	add a,_Count_C2[0]
 174  009B  0080     E  	mov rd,a
 174  009C  0FFF        	mov a,255
 174  009D  1300     R  	adc a,_Count_C2[1]
 174  009E  0080     E  	mov re,a
 174  009F  0FFF        	mov a,255
 174  00A0  1300     R  	adc a,_Count_C2[2]
 174  00A1  0080     E  	mov rf,a
 174  00A2  0FFF        	mov a,255
 174  00A3  1300     R  	adc a,_Count_C2[3]
 174  00A4  0080     E  	mov rg,a
 174  00A5  1080     E  	sz rg
 174  00A6  2800     R  	jmp _L12
 174  00A7  1080     E  	sz rf
 174  00A8  2800     R  	jmp _L12
 174  00A9  0700     E  	mov a,rd
 174  00AA  0200     R  	sub a,_Count_S2[0]
 174  00AB  0700     E  	mov a,re
 174  00AC  1200     R  	sbc a,_Count_S2[1]
 174  00AD  3C0A        	sz c
 174  00AE  2800     R  	jmp _L12
 174  00AF  3800     R  	snz _q
 174  00B0  2800     R  	jmp _L12
 177  00B1              #line 177 "E:\hamed\touch2\touch-rgb-2key\RGB-2key\RGB-2key.h"
 177  00B1  0F45        	mov a,69
 177  00B2  0200     R  	sub a,_Count_T2[0]
 177  00B3  0F00        	mov a,0
 177  00B4  1200     R  	sbc a,_Count_T2[1]
 177  00B5  3C0A        	sz c
 177  00B6  2800     R  	jmp _L25
 177  00B7  0F68        	mov a,104
 177  00B8  0200     R  	sub a,_Count_T2[0]
 177  00B9  0F01        	mov a,1
 177  00BA  1200     R  	sbc a,_Count_T2[1]
 177  00BB  380A        	snz c
 177  00BC  2800     R  	jmp _L25
 177  00BD  0700     R  	mov a,_rgbchange[0]
 177  00BE  0500     R  	or a,_rgbchange[1]
 177  00BF  390A        	snz z
 177  00C0  2800     R  	jmp _L25
 179  00C1              #line 179 "E:\hamed\touch2\touch-rgb-2key\RGB-2key\RGB-2key.h"
 179  00C1  1F00     R  	clr _B[0]
 179  00C2  1F00     R  	clr _B[1]
"File: RGB-2key.h    Assembler  Version HGASM0202      Page 10

 179  00C3  0F50        	mov a,80
 179  00C4  0080     R  	mov _R[0],a
 179  00C5  1F00     R  	clr _R[1]
 179  00C6  0F50        	mov a,80
 179  00C7  0080     R  	mov _G[0],a
 179  00C8  1F00     R  	clr _G[1]
 180  00C9              #line 180 "E:\hamed\touch2\touch-rgb-2key\RGB-2key\RGB-2key.h"
 180  00C9  1F00     R  	clr _RGB[0]
 180  00CA  1F00     R  	clr _RGB[1]
 182  00CB              #line 182 "E:\hamed\touch2\touch-rgb-2key\RGB-2key\RGB-2key.h"
 182  00CB  1480     R  	inc _rgbpals[0]
 182  00CC  3D0A        	sz z
 182  00CD  1480     R  	inc _rgbpals[1]
 184  00CE              #line 184 "E:\hamed\touch2\touch-rgb-2key\RGB-2key\RGB-2key.h"
 184  00CE  0F05        	mov a,5
 184  00CF  0200     R  	sub a,_rgbpals[0]
 184  00D0  0F00        	mov a,0
 184  00D1  1200     R  	sbc a,_rgbpals[1]
 184  00D2  1185        	swap acc
 184  00D3  040A        	xor a,status
 184  00D4  3985        	snz acc.3
 184  00D5  2800     R  	jmp _L26
 184  00D6  0F01        	mov a,1
 184  00D7  0080     R  	mov _rgbpals[0],a
 184  00D8  1F00     R  	clr _rgbpals[1]
 184  00D9              _L26:
 186  00D9              #line 186 "E:\hamed\touch2\touch-rgb-2key\RGB-2key\RGB-2key.h"
 186  00D9  0FEC        	mov a,-20
 186  00DA  0080     R  	mov _counterrgb[0],a
 186  00DB  1F80     R  	set _counterrgb[1]
 188  00DC              #line 188 "E:\hamed\touch2\touch-rgb-2key\RGB-2key\RGB-2key.h"
 188  00DC  3214        	set [20].4
 189  00DD              #line 189 "E:\hamed\touch2\touch-rgb-2key\RGB-2key\RGB-2key.h"
 189  00DD  3194        	set [20].3
 190  00DE              #line 190 "E:\hamed\touch2\touch-rgb-2key\RGB-2key\RGB-2key.h"
 190  00DE  3114        	set [20].2
 193  00DF              #line 193 "E:\hamed\touch2\touch-rgb-2key\RGB-2key\RGB-2key.h"
 193  00DF  1F00     R  	clr _CalibrCount2[0]
 194  00E0              #line 194 "E:\hamed\touch2\touch-rgb-2key\RGB-2key\RGB-2key.h"
 194  00E0  1F00     R  	clr _CalibrSample2[0]
 195  00E1              #line 195 "E:\hamed\touch2\touch-rgb-2key\RGB-2key\RGB-2key.h"
 195  00E1  1F00     R  	clr _Count_C2_Backup[0]
 195  00E2  1F00     R  	clr _Count_C2_Backup[1]
 195  00E3  1F00     R  	clr _Count_C2_Backup[2]
 195  00E4  1F00     R  	clr _Count_C2_Backup[3]
 195  00E5              _L25:
 199  00E5              #line 199 "E:\hamed\touch2\touch-rgb-2key\RGB-2key\RGB-2key.h"
 199  00E5  1F00     R  	clr _Count_T2[0]
 199  00E6  1F00     R  	clr _Count_T2[1]
 201  00E7              #line 201 "E:\hamed\touch2\touch-rgb-2key\RGB-2key\RGB-2key.h"
 201  00E7  1F00     R  	clr _rgbchange[0]
 201  00E8  1F00     R  	clr _rgbchange[1]
 201  00E9              _L12:
 201  00E9  0003        	ret
 201  00EA              _Key_Touch endp
 201  00EA              #line 201 "E:\hamed\touch2\touch-rgb-2key\RGB-2key\RGB-2key.h"
 201  00EA              #pragma debug scope 1 1
 201  00EA              ___tkm016dh equ [73]
 201  00EA              ___tkm016dl equ [72]
 201  00EA              public _CalibrTuoch
"File: RGB-2key.h    Assembler  Version HGASM0202      Page 11

 201  00EA              #pragma debug scope 7 1
 207  00EA              #line 207 "E:\hamed\touch2\touch-rgb-2key\RGB-2key\RGB-2key.h"
 207  0000              _CalibrTuoch .section 'code'
 207  0000              _CalibrTuoch proc
 207  0000  0004[           local _CalibrTuoch_2 db 4 dup(?)	; 0,4
            00
            ]
 209  0004              #line 209 "E:\hamed\touch2\touch-rgb-2key\RGB-2key\RGB-2key.h"
 209  0000  36C4        	clr [68].5
 210  0001              #line 210 "E:\hamed\touch2\touch-rgb-2key\RGB-2key\RGB-2key.h"
 210  0001  37CC        	clr [76].7
 210  0002  374C        	clr [76].6
 210  0003  0FF4        	mov a,-12
 210  0004  0080     R  	mov _delay_10us_2[0],a
 210  0005  0F01        	mov a,1
 210  0006  0080     R  	mov _delay_10us_2[1],a
 210  0007  1F00     R  	clr _delay_10us_2[2]
 210  0008  1F00     R  	clr _delay_10us_2[3]
 210  0009  2000     R  	call _delay_10us
 211  000A              #line 211 "E:\hamed\touch2\touch-rgb-2key\RGB-2key\RGB-2key.h"
 211  000A              ;# 211 "E:\hamed\touch2\touch-rgb-2key\RGB-2key\RGB-2key.h" 1
 211  000A  0001        	clr wdt
 212  000B              #line 212 "E:\hamed\touch2\touch-rgb-2key\RGB-2key\RGB-2key.h"
 212  000B  1F00     R  	clr _i[0]
 212  000C              _L29:
 212  000C              #line 212 "E:\hamed\touch2\touch-rgb-2key\RGB-2key\RGB-2key.h"
 212  000C  0F13        	mov a,19
 212  000D  0200     R  	sub a,_i[0]
 212  000E  380A        	snz c
 212  000F  2800     R  	jmp _L37
 214  0010              #line 214 "E:\hamed\touch2\touch-rgb-2key\RGB-2key\RGB-2key.h"
 214  0010  32CD        	set [77].5
 215  0011              #line 215 "E:\hamed\touch2\touch-rgb-2key\RGB-2key\RGB-2key.h"
 215  0011  324D        	set [77].4
 216  0012              #line 216 "E:\hamed\touch2\touch-rgb-2key\RGB-2key\RGB-2key.h"
 216  0012  32C4        	set [68].5
 218  0013              #line 218 "E:\hamed\touch2\touch-rgb-2key\RGB-2key\RGB-2key.h"
 218  0013              ;# 218 "E:\hamed\touch2\touch-rgb-2key\RGB-2key\RGB-2key.h" 1
 218  0013  0001        	clr wdt
 218  0014              _L31:
 219  0014              #line 219 "E:\hamed\touch2\touch-rgb-2key\RGB-2key\RGB-2key.h"
 219  0014  3B44        	snz [68].6
 219  0015  2800     R  	jmp _L31
 220  0016              #line 220 "E:\hamed\touch2\touch-rgb-2key\RGB-2key\RGB-2key.h"
 220  0016  0749        	mov a,[73]
 220  0017  0080     R  	mov _CalibrTuoch_2[1],a
 220  0018  1F00     R  	clr _CalibrTuoch_2[0]
 220  0019  0700     R  	mov a,_CalibrTuoch_2[1]
 220  001A  0080     R  	mov _Count_S1[1],a
 220  001B  0748        	mov a,[72]
 220  001C  0500     R  	or a,_CalibrTuoch_2[0]
 220  001D  0080     R  	mov _Count_S1[0],a
 221  001E              #line 221 "E:\hamed\touch2\touch-rgb-2key\RGB-2key\RGB-2key.h"
 221  001E  0700     R  	mov a,_Count_S1[0]
 221  001F  0380     R  	addm a,_Count_C1[0]
 221  0020  0700     R  	mov a,_Count_S1[1]
 221  0021  1380     R  	adcm a,_Count_C1[1]
 221  0022  1F05        	clr acc
 221  0023  1380     R  	adcm a,_Count_C1[2]
 221  0024  1380     R  	adcm a,_Count_C1[3]
"File: RGB-2key.h    Assembler  Version HGASM0202      Page 12

 222  0025              #line 222 "E:\hamed\touch2\touch-rgb-2key\RGB-2key\RGB-2key.h"
 222  0025  3744        	clr [68].6
 223  0026              #line 223 "E:\hamed\touch2\touch-rgb-2key\RGB-2key\RGB-2key.h"
 223  0026  36C4        	clr [68].5
 224  0027              #line 224 "E:\hamed\touch2\touch-rgb-2key\RGB-2key\RGB-2key.h"
 224  0027              ;# 224 "E:\hamed\touch2\touch-rgb-2key\RGB-2key\RGB-2key.h" 1
 224  0027  0001        	clr wdt
 225  0028              #line 225 "E:\hamed\touch2\touch-rgb-2key\RGB-2key\RGB-2key.h"
 225  0028  0F05        	mov a,5
 225  0029  0080     R  	mov _delay_ms_2[0],a
 225  002A  1F00     R  	clr _delay_ms_2[1]
 225  002B  1F00     R  	clr _delay_ms_2[2]
 225  002C  1F00     R  	clr _delay_ms_2[3]
 225  002D  2000     R  	call _delay_ms
 212  002E              #line 212 "E:\hamed\touch2\touch-rgb-2key\RGB-2key\RGB-2key.h"
 212  002E  1480     R  	inc _i[0]
 212  002F  2800     R  	jmp _L29
 212  0030              _L37:
 227  0030              #line 227 "E:\hamed\touch2\touch-rgb-2key\RGB-2key\RGB-2key.h"
 227  0030  1F00     E  	clr _builtin_holtek_udivmodsi4_2[12]
 227  0031  0700     R  	mov a,_Count_C1[0]  
 227  0032  0080     E  	mov _builtin_holtek_udivmodsi4_2[0],a  
 227  0033  0700     R  	mov a,_Count_C1[1]  
 227  0034  0080     E  	mov _builtin_holtek_udivmodsi4_2[1],a
 227  0035  0700     R  	mov a,_Count_C1[2]  
 227  0036  0080     E  	mov _builtin_holtek_udivmodsi4_2[2],a  
 227  0037  0700     R  	mov a,_Count_C1[3]  
 227  0038  0080     E  	mov _builtin_holtek_udivmodsi4_2[3],a
 227  0039  0F14        	mov a,20  
 227  003A  0080     E  	mov _builtin_holtek_udivmodsi4_2[4],a  
 227  003B  0F00        	mov a,0  
 227  003C  0080     E  	mov _builtin_holtek_udivmodsi4_2[5],a
 227  003D  1F00     E  	clr _builtin_holtek_udivmodsi4_2[6]
 227  003E  1F00     E  	clr _builtin_holtek_udivmodsi4_2[7]
 227  003F  2000     E  	call _builtin_holtek_udivmodsi4
 227  0040  0700     E  	mov a,_builtin_holtek_udivmodsi4_2[0]  
 227  0041  0080     R  	mov _Count_C1[0],a  
 227  0042  0700     E  	mov a,_builtin_holtek_udivmodsi4_2[1]  
 227  0043  0080     R  	mov _Count_C1[1],a
 227  0044  0700     E  	mov a,_builtin_holtek_udivmodsi4_2[2]  
 227  0045  0080     R  	mov _Count_C1[2],a  
 227  0046  0700     E  	mov a,_builtin_holtek_udivmodsi4_2[3]  
 227  0047  0080     R  	mov _Count_C1[3],a
 230  0048              #line 230 "E:\hamed\touch2\touch-rgb-2key\RGB-2key\RGB-2key.h"
 230  0048  36C4        	clr [68].5
 231  0049              #line 231 "E:\hamed\touch2\touch-rgb-2key\RGB-2key\RGB-2key.h"
 231  0049  37CC        	clr [76].7
 231  004A  334C        	set [76].6
 231  004B  0FF4        	mov a,-12
 231  004C  0080     R  	mov _delay_10us_2[0],a
 231  004D  0F01        	mov a,1
 231  004E  0080     R  	mov _delay_10us_2[1],a
 231  004F  1F00     R  	clr _delay_10us_2[2]
 231  0050  1F00     R  	clr _delay_10us_2[3]
 231  0051  2000     R  	call _delay_10us
 232  0052              #line 232 "E:\hamed\touch2\touch-rgb-2key\RGB-2key\RGB-2key.h"
 232  0052              ;# 232 "E:\hamed\touch2\touch-rgb-2key\RGB-2key\RGB-2key.h" 1
 232  0052  0001        	clr wdt
 233  0053              #line 233 "E:\hamed\touch2\touch-rgb-2key\RGB-2key\RGB-2key.h"
 233  0053  1F00     R  	clr _i[0]
"File: RGB-2key.h    Assembler  Version HGASM0202      Page 13

 233  0054              _L33:
 233  0054  0F13        	mov a,19
 233  0055  0200     R  	sub a,_i[0]
 233  0056  380A        	snz c
 233  0057  2800     R  	jmp _L38
 235  0058              #line 235 "E:\hamed\touch2\touch-rgb-2key\RGB-2key\RGB-2key.h"
 235  0058  32CD        	set [77].5
 236  0059              #line 236 "E:\hamed\touch2\touch-rgb-2key\RGB-2key\RGB-2key.h"
 236  0059  324D        	set [77].4
 237  005A              #line 237 "E:\hamed\touch2\touch-rgb-2key\RGB-2key\RGB-2key.h"
 237  005A  32C4        	set [68].5
 239  005B              #line 239 "E:\hamed\touch2\touch-rgb-2key\RGB-2key\RGB-2key.h"
 239  005B              ;# 239 "E:\hamed\touch2\touch-rgb-2key\RGB-2key\RGB-2key.h" 1
 239  005B  0001        	clr wdt
 239  005C              _L35:
 240  005C              #line 240 "E:\hamed\touch2\touch-rgb-2key\RGB-2key\RGB-2key.h"
 240  005C  3B44        	snz [68].6
 240  005D  2800     R  	jmp _L35
 241  005E              #line 241 "E:\hamed\touch2\touch-rgb-2key\RGB-2key\RGB-2key.h"
 241  005E  0749        	mov a,[73]
 241  005F  0080     R  	mov _CalibrTuoch_2[3],a
 241  0060  1F00     R  	clr _CalibrTuoch_2[2]
 241  0061  0700     R  	mov a,_CalibrTuoch_2[3]
 241  0062  0080     R  	mov _Count_S2[1],a
 241  0063  0748        	mov a,[72]
 241  0064  0500     R  	or a,_CalibrTuoch_2[2]
 241  0065  0080     R  	mov _Count_S2[0],a
 242  0066              #line 242 "E:\hamed\touch2\touch-rgb-2key\RGB-2key\RGB-2key.h"
 242  0066  0700     R  	mov a,_Count_S2[0]
 242  0067  0380     R  	addm a,_Count_C2[0]
 242  0068  0700     R  	mov a,_Count_S2[1]
 242  0069  1380     R  	adcm a,_Count_C2[1]
 242  006A  1F05        	clr acc
 242  006B  1380     R  	adcm a,_Count_C2[2]
 242  006C  1380     R  	adcm a,_Count_C2[3]
 243  006D              #line 243 "E:\hamed\touch2\touch-rgb-2key\RGB-2key\RGB-2key.h"
 243  006D  3744        	clr [68].6
 244  006E              #line 244 "E:\hamed\touch2\touch-rgb-2key\RGB-2key\RGB-2key.h"
 244  006E  36C4        	clr [68].5
 245  006F              #line 245 "E:\hamed\touch2\touch-rgb-2key\RGB-2key\RGB-2key.h"
 245  006F              ;# 245 "E:\hamed\touch2\touch-rgb-2key\RGB-2key\RGB-2key.h" 1
 245  006F  0001        	clr wdt
 246  0070              #line 246 "E:\hamed\touch2\touch-rgb-2key\RGB-2key\RGB-2key.h"
 246  0070  0F05        	mov a,5
 246  0071  0080     R  	mov _delay_ms_2[0],a
 246  0072  1F00     R  	clr _delay_ms_2[1]
 246  0073  1F00     R  	clr _delay_ms_2[2]
 246  0074  1F00     R  	clr _delay_ms_2[3]
 246  0075  2000     R  	call _delay_ms
 233  0076              #line 233 "E:\hamed\touch2\touch-rgb-2key\RGB-2key\RGB-2key.h"
 233  0076  1480     R  	inc _i[0]
 233  0077  2800     R  	jmp _L33
 233  0078              _L38:
 248  0078              #line 248 "E:\hamed\touch2\touch-rgb-2key\RGB-2key\RGB-2key.h"
 248  0078  1F00     E  	clr _builtin_holtek_udivmodsi4_2[12]
 248  0079  0700     R  	mov a,_Count_C2[0]  
 248  007A  0080     E  	mov _builtin_holtek_udivmodsi4_2[0],a  
 248  007B  0700     R  	mov a,_Count_C2[1]  
 248  007C  0080     E  	mov _builtin_holtek_udivmodsi4_2[1],a
 248  007D  0700     R  	mov a,_Count_C2[2]  
"File: RGB-2key.h    Assembler  Version HGASM0202      Page 14

 248  007E  0080     E  	mov _builtin_holtek_udivmodsi4_2[2],a  
 248  007F  0700     R  	mov a,_Count_C2[3]  
 248  0080  0080     E  	mov _builtin_holtek_udivmodsi4_2[3],a
 248  0081  0F14        	mov a,20  
 248  0082  0080     E  	mov _builtin_holtek_udivmodsi4_2[4],a  
 248  0083  0F00        	mov a,0  
 248  0084  0080     E  	mov _builtin_holtek_udivmodsi4_2[5],a
 248  0085  1F00     E  	clr _builtin_holtek_udivmodsi4_2[6]
 248  0086  1F00     E  	clr _builtin_holtek_udivmodsi4_2[7]
 248  0087  2000     E  	call _builtin_holtek_udivmodsi4
 248  0088  0700     E  	mov a,_builtin_holtek_udivmodsi4_2[0]  
 248  0089  0080     R  	mov _Count_C2[0],a  
 248  008A  0700     E  	mov a,_builtin_holtek_udivmodsi4_2[1]  
 248  008B  0080     R  	mov _Count_C2[1],a
 248  008C  0700     E  	mov a,_builtin_holtek_udivmodsi4_2[2]  
 248  008D  0080     R  	mov _Count_C2[2],a  
 248  008E  0700     E  	mov a,_builtin_holtek_udivmodsi4_2[3]  
 248  008F  0080     R  	mov _Count_C2[3],a
 252  0090              #line 252 "E:\hamed\touch2\touch-rgb-2key\RGB-2key\RGB-2key.h"
 252  0090              ;# 252 "E:\hamed\touch2\touch-rgb-2key\RGB-2key\RGB-2key.h" 1
 252  0090  0001        	clr wdt
 252  0091  0003        	ret
 252  0092              _CalibrTuoch endp
 252  0092              #line 252 "E:\hamed\touch2\touch-rgb-2key\RGB-2key\RGB-2key.h"
 252  0092              #pragma debug scope 1 1
 252  0092              public _Key_Select
 252  0092              #pragma debug scope 8 1
 257  0092              #line 257 "E:\hamed\touch2\touch-rgb-2key\RGB-2key\RGB-2key.h"
 257  0000              _Key_Select .section 'code'
 257  0000              _Key_Select proc
 257  0000  00              local _Key_Select_2 db 1 dup(?)	; 0,1
 257  0000  0080     E  	mov ra,a
 257  0001  0080     R  	mov _Key_Select_2[0],a
 257  0002              #pragma debug variable 7 8 _Key_Select_2+0 "sel"
 258  0002              #line 258 "E:\hamed\touch2\touch-rgb-2key\RGB-2key\RGB-2key.h"
 258  0002  1080     E  	sz ra
 258  0003  2800     R  	jmp _L40
 259  0004              #line 259 "E:\hamed\touch2\touch-rgb-2key\RGB-2key\RGB-2key.h"
 259  0004  32CD        	set [77].5
 259  0005  324D        	set [77].4
 259  0006  32C4        	set [68].5
 259  0007  37CC        	clr [76].7
 259  0008  374C        	clr [76].6
 259  0009              _L41:
 261  0009              #line 261 "E:\hamed\touch2\touch-rgb-2key\RGB-2key\RGB-2key.h"
 261  0009  3F44        	sz [68].6
 261  000A  2800     R  	jmp _L54
 261  000B              ;# 261 "E:\hamed\touch2\touch-rgb-2key\RGB-2key\RGB-2key.h" 1
 261  000B  0000        	nop
 261  000C  2800     R  	jmp _L41
 261  000D              _L54:
 262  000D              #line 262 "E:\hamed\touch2\touch-rgb-2key\RGB-2key\RGB-2key.h"
 262  000D  0749        	mov a,[73]
 262  000E  0080     E  	mov rc,a
 262  000F  1F00     E  	clr rb
 262  0010  0700     E  	mov a,rc
 262  0011  0080     R  	mov _Count_S1[1],a
 262  0012  0748        	mov a,[72]
 262  0013  0500     E  	or a,rb
 262  0014  0080     R  	mov _Count_S1[0],a
"File: RGB-2key.h    Assembler  Version HGASM0202      Page 15

 263  0015              #line 263 "E:\hamed\touch2\touch-rgb-2key\RGB-2key\RGB-2key.h"
 263  0015  0700     R  	mov a,_rgbchange[0]
 263  0016  0500     R  	or a,_rgbchange[1]
 263  0017  390A        	snz z
 263  0018  2800     R  	jmp _L43
 263  0019  1480     R  	inc _CalibrCount1[0]
 263  001A              _L43:
 264  001A              #line 264 "E:\hamed\touch2\touch-rgb-2key\RGB-2key\RGB-2key.h"
 264  001A  0F32        	mov a,50
 264  001B  0200     R  	sub a,_CalibrCount1[0]
 264  001C  3C0A        	sz c
 264  001D  2800     R  	jmp _L52
 266  001E              #line 266 "E:\hamed\touch2\touch-rgb-2key\RGB-2key\RGB-2key.h"
 266  001E  1F00     R  	clr _CalibrCount1[0]
 267  001F              #line 267 "E:\hamed\touch2\touch-rgb-2key\RGB-2key\RGB-2key.h"
 267  001F  0700     R  	mov a,_Count_S1[0]
 267  0020  0380     R  	addm a,_Count_C1_Backup[0]
 267  0021  0700     R  	mov a,_Count_S1[1]
 267  0022  1380     R  	adcm a,_Count_C1_Backup[1]
 267  0023  1F05        	clr acc
 267  0024  1380     R  	adcm a,_Count_C1_Backup[2]
 267  0025  1380     R  	adcm a,_Count_C1_Backup[3]
 268  0026              #line 268 "E:\hamed\touch2\touch-rgb-2key\RGB-2key\RGB-2key.h"
 268  0026  1480     R  	inc _CalibrSample1[0]
 269  0027              #line 269 "E:\hamed\touch2\touch-rgb-2key\RGB-2key\RGB-2key.h"
 269  0027  0F13        	mov a,19
 269  0028  0200     R  	sub a,_CalibrSample1[0]
 269  0029  3C0A        	sz c
 269  002A  2800     R  	jmp _L52
 271  002B              #line 271 "E:\hamed\touch2\touch-rgb-2key\RGB-2key\RGB-2key.h"
 271  002B  1F00     R  	clr _CalibrSample1[0]
 272  002C              #line 272 "E:\hamed\touch2\touch-rgb-2key\RGB-2key\RGB-2key.h"
 272  002C  1F00     E  	clr _builtin_holtek_udivmodsi4_2[12]
 272  002D  0700     R  	mov a,_Count_C1_Backup[0]  
 272  002E  0080     E  	mov _builtin_holtek_udivmodsi4_2[0],a  
 272  002F  0700     R  	mov a,_Count_C1_Backup[1]  
 272  0030  0080     E  	mov _builtin_holtek_udivmodsi4_2[1],a
 272  0031  0700     R  	mov a,_Count_C1_Backup[2]  
 272  0032  0080     E  	mov _builtin_holtek_udivmodsi4_2[2],a  
 272  0033  0700     R  	mov a,_Count_C1_Backup[3]  
 272  0034  0080     E  	mov _builtin_holtek_udivmodsi4_2[3],a
 272  0035  0F14        	mov a,20  
 272  0036  0080     E  	mov _builtin_holtek_udivmodsi4_2[4],a  
 272  0037  0F00        	mov a,0  
 272  0038  0080     E  	mov _builtin_holtek_udivmodsi4_2[5],a
 272  0039  1F00     E  	clr _builtin_holtek_udivmodsi4_2[6]
 272  003A  1F00     E  	clr _builtin_holtek_udivmodsi4_2[7]
 272  003B  2000     E  	call _builtin_holtek_udivmodsi4
 272  003C  0700     E  	mov a,_builtin_holtek_udivmodsi4_2[0]  
 272  003D  0080     R  	mov _Count_C1[0],a  
 272  003E  0700     E  	mov a,_builtin_holtek_udivmodsi4_2[1]  
 272  003F  0080     R  	mov _Count_C1[1],a
 272  0040  0700     E  	mov a,_builtin_holtek_udivmodsi4_2[2]  
 272  0041  0080     R  	mov _Count_C1[2],a  
 272  0042  0700     E  	mov a,_builtin_holtek_udivmodsi4_2[3]  
 272  0043  0080     R  	mov _Count_C1[3],a
 273  0044              #line 273 "E:\hamed\touch2\touch-rgb-2key\RGB-2key\RGB-2key.h"
 273  0044  1F00     R  	clr _Count_C1_Backup[0]
 273  0045  1F00     R  	clr _Count_C1_Backup[1]
 273  0046  1F00     R  	clr _Count_C1_Backup[2]
"File: RGB-2key.h    Assembler  Version HGASM0202      Page 16

 273  0047  1F00     R  	clr _Count_C1_Backup[3]
 273  0048  2800     R  	jmp _L52
 273  0049              _L40:
 281  0049              #line 281 "E:\hamed\touch2\touch-rgb-2key\RGB-2key\RGB-2key.h"
 281  0049  1700     R  	sdza _Key_Select_2[0]
 281  004A  2800     R  	jmp _L39
 282  004B              #line 282 "E:\hamed\touch2\touch-rgb-2key\RGB-2key\RGB-2key.h"
 282  004B  32CD        	set [77].5
 282  004C  324D        	set [77].4
 282  004D  32C4        	set [68].5
 282  004E  37CC        	clr [76].7
 282  004F  334C        	set [76].6
 282  0050              _L48:
 284  0050              #line 284 "E:\hamed\touch2\touch-rgb-2key\RGB-2key\RGB-2key.h"
 284  0050  3F44        	sz [68].6
 284  0051  2800     R  	jmp _L55
 284  0052              ;# 284 "E:\hamed\touch2\touch-rgb-2key\RGB-2key\RGB-2key.h" 1
 284  0052  0000        	nop
 284  0053  2800     R  	jmp _L48
 284  0054              _L55:
 285  0054              #line 285 "E:\hamed\touch2\touch-rgb-2key\RGB-2key\RGB-2key.h"
 285  0054  0749        	mov a,[73]
 285  0055  0080     E  	mov rc,a
 285  0056  1F00     E  	clr rb
 285  0057  0700     E  	mov a,rc
 285  0058  0080     R  	mov _Count_S2[1],a
 285  0059  0748        	mov a,[72]
 285  005A  0500     E  	or a,rb
 285  005B  0080     R  	mov _Count_S2[0],a
 286  005C              #line 286 "E:\hamed\touch2\touch-rgb-2key\RGB-2key\RGB-2key.h"
 286  005C  0700     R  	mov a,_rgbchange[0]
 286  005D  0500     R  	or a,_rgbchange[1]
 286  005E  390A        	snz z
 286  005F  2800     R  	jmp _L50
 286  0060  1480     R  	inc _CalibrCount2[0]
 286  0061              _L50:
 287  0061              #line 287 "E:\hamed\touch2\touch-rgb-2key\RGB-2key\RGB-2key.h"
 287  0061  0F32        	mov a,50
 287  0062  0200     R  	sub a,_CalibrCount2[0]
 287  0063  3C0A        	sz c
 287  0064  2800     R  	jmp _L52
 289  0065              #line 289 "E:\hamed\touch2\touch-rgb-2key\RGB-2key\RGB-2key.h"
 289  0065  1F00     R  	clr _CalibrCount2[0]
 290  0066              #line 290 "E:\hamed\touch2\touch-rgb-2key\RGB-2key\RGB-2key.h"
 290  0066  0700     R  	mov a,_Count_S2[0]
 290  0067  0380     R  	addm a,_Count_C2_Backup[0]
 290  0068  0700     R  	mov a,_Count_S2[1]
 290  0069  1380     R  	adcm a,_Count_C2_Backup[1]
 290  006A  1F05        	clr acc
 290  006B  1380     R  	adcm a,_Count_C2_Backup[2]
 290  006C  1380     R  	adcm a,_Count_C2_Backup[3]
 291  006D              #line 291 "E:\hamed\touch2\touch-rgb-2key\RGB-2key\RGB-2key.h"
 291  006D  1480     R  	inc _CalibrSample2[0]
 292  006E              #line 292 "E:\hamed\touch2\touch-rgb-2key\RGB-2key\RGB-2key.h"
 292  006E  0F13        	mov a,19
 292  006F  0200     R  	sub a,_CalibrSample2[0]
 292  0070  3C0A        	sz c
 292  0071  2800     R  	jmp _L52
 294  0072              #line 294 "E:\hamed\touch2\touch-rgb-2key\RGB-2key\RGB-2key.h"
 294  0072  1F00     R  	clr _CalibrSample2[0]
"File: RGB-2key.h    Assembler  Version HGASM0202      Page 17

 295  0073              #line 295 "E:\hamed\touch2\touch-rgb-2key\RGB-2key\RGB-2key.h"
 295  0073  1F00     E  	clr _builtin_holtek_udivmodsi4_2[12]
 295  0074  0700     R  	mov a,_Count_C2_Backup[0]  
 295  0075  0080     E  	mov _builtin_holtek_udivmodsi4_2[0],a  
 295  0076  0700     R  	mov a,_Count_C2_Backup[1]  
 295  0077  0080     E  	mov _builtin_holtek_udivmodsi4_2[1],a
 295  0078  0700     R  	mov a,_Count_C2_Backup[2]  
 295  0079  0080     E  	mov _builtin_holtek_udivmodsi4_2[2],a  
 295  007A  0700     R  	mov a,_Count_C2_Backup[3]  
 295  007B  0080     E  	mov _builtin_holtek_udivmodsi4_2[3],a
 295  007C  0F14        	mov a,20  
 295  007D  0080     E  	mov _builtin_holtek_udivmodsi4_2[4],a  
 295  007E  0F00        	mov a,0  
 295  007F  0080     E  	mov _builtin_holtek_udivmodsi4_2[5],a
 295  0080  1F00     E  	clr _builtin_holtek_udivmodsi4_2[6]
 295  0081  1F00     E  	clr _builtin_holtek_udivmodsi4_2[7]
 295  0082  2000     E  	call _builtin_holtek_udivmodsi4
 295  0083  0700     E  	mov a,_builtin_holtek_udivmodsi4_2[0]  
 295  0084  0080     R  	mov _Count_C2[0],a  
 295  0085  0700     E  	mov a,_builtin_holtek_udivmodsi4_2[1]  
 295  0086  0080     R  	mov _Count_C2[1],a
 295  0087  0700     E  	mov a,_builtin_holtek_udivmodsi4_2[2]  
 295  0088  0080     R  	mov _Count_C2[2],a  
 295  0089  0700     E  	mov a,_builtin_holtek_udivmodsi4_2[3]  
 295  008A  0080     R  	mov _Count_C2[3],a
 296  008B              #line 296 "E:\hamed\touch2\touch-rgb-2key\RGB-2key\RGB-2key.h"
 296  008B  1F00     R  	clr _Count_C2_Backup[0]
 296  008C  1F00     R  	clr _Count_C2_Backup[1]
 296  008D  1F00     R  	clr _Count_C2_Backup[2]
 296  008E  1F00     R  	clr _Count_C2_Backup[3]
 296  008F              _L52:
 300  008F              #line 300 "E:\hamed\touch2\touch-rgb-2key\RGB-2key\RGB-2key.h"
 300  008F  3744        	clr [68].6
 301  0090              #line 301 "E:\hamed\touch2\touch-rgb-2key\RGB-2key\RGB-2key.h"
 301  0090  36C4        	clr [68].5
 301  0091              _L39:
 301  0091  0003        	ret
 301  0092              _Key_Select endp
 301  0092              #line 301 "E:\hamed\touch2\touch-rgb-2key\RGB-2key\RGB-2key.h"
 301  0092              #pragma debug scope 1 1
 301  0092              public _TOUCH_ISR
 301  0092              #pragma debug scope 9 1
 308  0092              #line 308 "E:\hamed\touch2\touch-rgb-2key\RGB-2key\RGB-2key.h"
 308  0000              @TOUCH_ISR_code .section at 40 'code'
 308  0000              _TOUCH_ISR:
 308  0000  0004        	reti
 308  0001              #line 308 "E:\hamed\touch2\touch-rgb-2key\RGB-2key\RGB-2key.h"
 308  0001              #pragma debug scope 1 1
 308  0001              public _int0
 308  0001              #pragma debug scope 10 1
 314  0001              #line 314 "E:\hamed\touch2\touch-rgb-2key\RGB-2key\RGB-2key.h"
 314  0000              @int0_code .section at 4 'code'
 314  0000  0080     E  	mov r1,a
 314  0001  070A        	mov a,status
 314  0002  0080     E  	mov r2,a
 314  0003  2800     R  	jmp _int0
 314  0004              #pragma debug scope 1 1
 314  0004              @dummy4 endp
 314  0004              #pragma debug scope 11 1
 314  0000              _int0 .section 'code'
"File: RGB-2key.h    Assembler  Version HGASM0202      Page 18

 314  0000              _int0 proc
 319  0000              #line 319 "E:\hamed\touch2\touch-rgb-2key\RGB-2key\RGB-2key.h"
 319  0000  0700     R  	mov a,_rgbpals[0]
 319  0001  0500     R  	or a,_rgbpals[1]
 319  0002  390A        	snz z
 319  0003  2800     R  	jmp _L58
 319  0004              #line 319 "E:\hamed\touch2\touch-rgb-2key\RGB-2key\RGB-2key.h"
 319  0004  0700     R  	mov a,_rgbchange[0]
 319  0005  0C01        	xor a,1
 319  0006  0500     R  	or a,_rgbchange[1]
 319  0007  390A        	snz z
 319  0008  2800     R  	jmp _L59
 319  0009              _L58:
 319  0009  1480     R  	inc _counterrgb[0]
 319  000A  3D0A        	sz z
 319  000B  1480     R  	inc _counterrgb[1]
 319  000C              _L59:
 320  000C              #line 320 "E:\hamed\touch2\touch-rgb-2key\RGB-2key\RGB-2key.h"
 320  000C  0FE7        	mov a,231
 320  000D  0200     R  	sub a,_counterrgb[0]
 320  000E  0F03        	mov a,3
 320  000F  1200     R  	sbc a,_counterrgb[1]
 320  0010  1185        	swap acc
 320  0011  040A        	xor a,status
 320  0012  3985        	snz acc.3
 320  0013  2800     R  	jmp _L60
 320  0014  1F00     R  	clr _counterrgb[0]
 320  0015  1F00     R  	clr _counterrgb[1]
 320  0016              _L60:
 323  0016              #line 323 "E:\hamed\touch2\touch-rgb-2key\RGB-2key\RGB-2key.h"
 323  0016  0700     R  	mov a,_counter1[0]
 323  0017  0080     R  	mov _ncount[0],a
 323  0018  0700     R  	mov a,_counter1[1]
 323  0019  0080     R  	mov _ncount[1],a
 325  001A              #line 325 "E:\hamed\touch2\touch-rgb-2key\RGB-2key\RGB-2key.h"
 325  001A  1F00     R  	clr _counter1[0]
 325  001B  1F00     R  	clr _counter1[1]
 327  001C              #line 327 "E:\hamed\touch2\touch-rgb-2key\RGB-2key\RGB-2key.h"
 327  001C  0700     R  	mov a,_rgbpals[0]
 327  001D  0C01        	xor a,1
 327  001E  0500     R  	or a,_rgbpals[1]
 327  001F  3D0A        	sz z
 327  0020  2800     R  	jmp _L61
 327  0021  0700     R  	mov a,_rgbpals[0]
 327  0022  0C02        	xor a,2
 327  0023  0500     R  	or a,_rgbpals[1]
 327  0024  3D0A        	sz z
 327  0025  2800     R  	jmp _L61
 327  0026  0700     R  	mov a,_rgbchange[0]
 327  0027  0C01        	xor a,1
 327  0028  0500     R  	or a,_rgbchange[1]
 327  0029  390A        	snz z
 327  002A  2800     R  	jmp _L62
 327  002B              _L61:
 327  002B  3800     R  	snz _q
 327  002C  2800     R  	jmp _L62
 327  002D  3C00     R  	sz _counterrgb[1].7
 327  002E  2800     R  	jmp _L62
 329  002F              #line 329 "E:\hamed\touch2\touch-rgb-2key\RGB-2key\RGB-2key.h"
 329  002F  0700     R  	mov a,_rgbpals[0]
"File: RGB-2key.h    Assembler  Version HGASM0202      Page 19

 329  0030  0C01        	xor a,1
 329  0031  0500     R  	or a,_rgbpals[1]
 329  0032  390A        	snz z
 329  0033  2800     R  	jmp _L64
 329  0034  0F01        	mov a,1
 329  0035  0080     R  	mov _rgb1[0],a
 329  0036  1F00     R  	clr _rgb1[1]
 329  0037              _L64:
 330  0037              #line 330 "E:\hamed\touch2\touch-rgb-2key\RGB-2key\RGB-2key.h"
 330  0037  0700     R  	mov a,_rgbchange[0]
 330  0038  0C01        	xor a,1
 330  0039  0500     R  	or a,_rgbchange[1]
 330  003A  390A        	snz z
 330  003B  2800     R  	jmp _L65
 330  003C  0F03        	mov a,3
 330  003D  0080     R  	mov _rgb1[0],a
 330  003E  1F00     R  	clr _rgb1[1]
 330  003F              _L65:
 331  003F              #line 331 "E:\hamed\touch2\touch-rgb-2key\RGB-2key\RGB-2key.h"
 331  003F  0700     R  	mov a,_rgbpals[0]
 331  0040  0C02        	xor a,2
 331  0041  0500     R  	or a,_rgbpals[1]
 331  0042  390A        	snz z
 331  0043  2800     R  	jmp _L66
 331  0044  0F0A        	mov a,10
 331  0045  0080     R  	mov _rgb1[0],a
 331  0046  1F00     R  	clr _rgb1[1]
 331  0047              _L66:
 333  0047              #line 333 "E:\hamed\touch2\touch-rgb-2key\RGB-2key\RGB-2key.h"
 333  0047  0700     R  	mov a,_counterrgb[0]
 333  0048  0080     E  	mov _builtin_holtek_udivmodhi4_2[0],a
 333  0049  0700     R  	mov a,_counterrgb[1]
 333  004A  0080     E  	mov _builtin_holtek_udivmodhi4_2[1],a
 333  004B  0700     R  	mov a,_rgb1[0]
 333  004C  0080     E  	mov _builtin_holtek_udivmodhi4_2[2],a
 333  004D  0700     R  	mov a,_rgb1[1]
 333  004E  0080     E  	mov _builtin_holtek_udivmodhi4_2[3],a
 333  004F  2000     E  	call _builtin_holtek_divmodhi4
 333  0050  0700     E  	mov a,_builtin_holtek_udivmodhi4_2[4]
 333  0051  0080     E  	mov rb,a
 333  0052  0700     E  	mov a,_builtin_holtek_udivmodhi4_2[5]
 333  0053  0080     E  	mov rc,a
 333  0054  0700     E  	mov a,rb
 333  0055  0500     E  	or a,rc
 333  0056  390A        	snz z
 333  0057  2800     R  	jmp _L62
 350  0058              #line 350 "E:\hamed\touch2\touch-rgb-2key\RGB-2key\RGB-2key.h"
 350  0058  0700     R  	mov a,_RGB[0]
 350  0059  0500     R  	or a,_RGB[1]
 350  005A  390A        	snz z
 350  005B  2800     R  	jmp _L68
 351  005C              #line 351 "E:\hamed\touch2\touch-rgb-2key\RGB-2key\RGB-2key.h"
 351  005C  0FFF        	mov a,255
 351  005D  0380     R  	addm a,_G[0]
 351  005E  0FFF        	mov a,255
 351  005F  1380     R  	adcm a,_G[1]
 352  0060              #line 352 "E:\hamed\touch2\touch-rgb-2key\RGB-2key\RGB-2key.h"
 352  0060  3C00     R  	sz _G[1].7
 352  0061  2800     R  	jmp _LI1
 352  0062  0700     R  	mov a,_G[0]
"File: RGB-2key.h    Assembler  Version HGASM0202      Page 20

 352  0063  0500     R  	or a,_G[1]
 352  0064  390A        	snz z
 352  0065  2800     R  	jmp _L68
 352  0066              _LI1:
 352  0066  0F01        	mov a,1
 352  0067  0080     R  	mov _RGB[0],a
 352  0068  1F00     R  	clr _RGB[1]
 352  0069              _L68:
 354  0069              #line 354 "E:\hamed\touch2\touch-rgb-2key\RGB-2key\RGB-2key.h"
 354  0069  0700     R  	mov a,_RGB[0]
 354  006A  0C01        	xor a,1
 354  006B  0500     R  	or a,_RGB[1]
 354  006C  390A        	snz z
 354  006D  2800     R  	jmp _L71
 355  006E              #line 355 "E:\hamed\touch2\touch-rgb-2key\RGB-2key\RGB-2key.h"
 355  006E  1480     R  	inc _B[0]
 355  006F  3D0A        	sz z
 355  0070  1480     R  	inc _B[1]
 356  0071              #line 356 "E:\hamed\touch2\touch-rgb-2key\RGB-2key\RGB-2key.h"
 356  0071  0F4F        	mov a,79
 356  0072  0200     R  	sub a,_B[0]
 356  0073  0F00        	mov a,0
 356  0074  1200     R  	sbc a,_B[1]
 356  0075  1185        	swap acc
 356  0076  040A        	xor a,status
 356  0077  3985        	snz acc.3
 356  0078  2800     R  	jmp _L71
 356  0079  0F02        	mov a,2
 356  007A  0080     R  	mov _RGB[0],a
 356  007B  1F00     R  	clr _RGB[1]
 356  007C              _L71:
 358  007C              #line 358 "E:\hamed\touch2\touch-rgb-2key\RGB-2key\RGB-2key.h"
 358  007C  0700     R  	mov a,_RGB[0]
 358  007D  0C02        	xor a,2
 358  007E  0500     R  	or a,_RGB[1]
 358  007F  390A        	snz z
 358  0080  2800     R  	jmp _L74
 359  0081              #line 359 "E:\hamed\touch2\touch-rgb-2key\RGB-2key\RGB-2key.h"
 359  0081  0FFF        	mov a,255
 359  0082  0380     R  	addm a,_R[0]
 359  0083  0FFF        	mov a,255
 359  0084  1380     R  	adcm a,_R[1]
 360  0085              #line 360 "E:\hamed\touch2\touch-rgb-2key\RGB-2key\RGB-2key.h"
 360  0085  3C00     R  	sz _R[1].7
 360  0086  2800     R  	jmp _LI2
 360  0087  0700     R  	mov a,_R[0]
 360  0088  0500     R  	or a,_R[1]
 360  0089  390A        	snz z
 360  008A  2800     R  	jmp _L74
 360  008B              _LI2:
 360  008B  0F03        	mov a,3
 360  008C  0080     R  	mov _RGB[0],a
 360  008D  1F00     R  	clr _RGB[1]
 360  008E              _L74:
 362  008E              #line 362 "E:\hamed\touch2\touch-rgb-2key\RGB-2key\RGB-2key.h"
 362  008E  0700     R  	mov a,_RGB[0]
 362  008F  0C03        	xor a,3
 362  0090  0500     R  	or a,_RGB[1]
 362  0091  390A        	snz z
 362  0092  2800     R  	jmp _L77
"File: RGB-2key.h    Assembler  Version HGASM0202      Page 21

 363  0093              #line 363 "E:\hamed\touch2\touch-rgb-2key\RGB-2key\RGB-2key.h"
 363  0093  1480     R  	inc _G[0]
 363  0094  3D0A        	sz z
 363  0095  1480     R  	inc _G[1]
 364  0096              #line 364 "E:\hamed\touch2\touch-rgb-2key\RGB-2key\RGB-2key.h"
 364  0096  0F4F        	mov a,79
 364  0097  0200     R  	sub a,_G[0]
 364  0098  0F00        	mov a,0
 364  0099  1200     R  	sbc a,_G[1]
 364  009A  1185        	swap acc
 364  009B  040A        	xor a,status
 364  009C  3985        	snz acc.3
 364  009D  2800     R  	jmp _L77
 364  009E  0F04        	mov a,4
 364  009F  0080     R  	mov _RGB[0],a
 364  00A0  1F00     R  	clr _RGB[1]
 364  00A1              _L77:
 366  00A1              #line 366 "E:\hamed\touch2\touch-rgb-2key\RGB-2key\RGB-2key.h"
 366  00A1  0700     R  	mov a,_RGB[0]
 366  00A2  0C04        	xor a,4
 366  00A3  0500     R  	or a,_RGB[1]
 366  00A4  390A        	snz z
 366  00A5  2800     R  	jmp _L80
 367  00A6              #line 367 "E:\hamed\touch2\touch-rgb-2key\RGB-2key\RGB-2key.h"
 367  00A6  0FFF        	mov a,255
 367  00A7  0380     R  	addm a,_B[0]
 367  00A8  0FFF        	mov a,255
 367  00A9  1380     R  	adcm a,_B[1]
 368  00AA              #line 368 "E:\hamed\touch2\touch-rgb-2key\RGB-2key\RGB-2key.h"
 368  00AA  3C00     R  	sz _B[1].7
 368  00AB  2800     R  	jmp _LI3
 368  00AC  0700     R  	mov a,_B[0]
 368  00AD  0500     R  	or a,_B[1]
 368  00AE  390A        	snz z
 368  00AF  2800     R  	jmp _L80
 368  00B0              _LI3:
 368  00B0  0F05        	mov a,5
 368  00B1  0080     R  	mov _RGB[0],a
 368  00B2  1F00     R  	clr _RGB[1]
 368  00B3              _L80:
 370  00B3              #line 370 "E:\hamed\touch2\touch-rgb-2key\RGB-2key\RGB-2key.h"
 370  00B3  0700     R  	mov a,_RGB[0]
 370  00B4  0C05        	xor a,5
 370  00B5  0500     R  	or a,_RGB[1]
 370  00B6  390A        	snz z
 370  00B7  2800     R  	jmp _L83
 371  00B8              #line 371 "E:\hamed\touch2\touch-rgb-2key\RGB-2key\RGB-2key.h"
 371  00B8  0FFF        	mov a,255
 371  00B9  0380     R  	addm a,_G[0]
 371  00BA  0FFF        	mov a,255
 371  00BB  1380     R  	adcm a,_G[1]
 372  00BC              #line 372 "E:\hamed\touch2\touch-rgb-2key\RGB-2key\RGB-2key.h"
 372  00BC  3C00     R  	sz _G[1].7
 372  00BD  2800     R  	jmp _LI4
 372  00BE  0700     R  	mov a,_G[0]
 372  00BF  0500     R  	or a,_G[1]
 372  00C0  390A        	snz z
 372  00C1  2800     R  	jmp _L83
 372  00C2              _LI4:
 372  00C2  0F06        	mov a,6
"File: RGB-2key.h    Assembler  Version HGASM0202      Page 22

 372  00C3  0080     R  	mov _RGB[0],a
 372  00C4  1F00     R  	clr _RGB[1]
 372  00C5              _L83:
 374  00C5              #line 374 "E:\hamed\touch2\touch-rgb-2key\RGB-2key\RGB-2key.h"
 374  00C5  0700     R  	mov a,_RGB[0]
 374  00C6  0C06        	xor a,6
 374  00C7  0500     R  	or a,_RGB[1]
 374  00C8  390A        	snz z
 374  00C9  2800     R  	jmp _L62
 375  00CA              #line 375 "E:\hamed\touch2\touch-rgb-2key\RGB-2key\RGB-2key.h"
 375  00CA  1480     R  	inc _G[0]
 375  00CB  3D0A        	sz z
 375  00CC  1480     R  	inc _G[1]
 376  00CD              #line 376 "E:\hamed\touch2\touch-rgb-2key\RGB-2key\RGB-2key.h"
 376  00CD  1480     R  	inc _R[0]
 376  00CE  3D0A        	sz z
 376  00CF  1480     R  	inc _R[1]
 377  00D0              #line 377 "E:\hamed\touch2\touch-rgb-2key\RGB-2key\RGB-2key.h"
 377  00D0  0F4F        	mov a,79
 377  00D1  0200     R  	sub a,_G[0]
 377  00D2  0F00        	mov a,0
 377  00D3  1200     R  	sbc a,_G[1]
 377  00D4  1185        	swap acc
 377  00D5  040A        	xor a,status
 377  00D6  3985        	snz acc.3
 377  00D7  2800     R  	jmp _L62
 377  00D8  0F4F        	mov a,79
 377  00D9  0200     R  	sub a,_R[0]
 377  00DA  0F00        	mov a,0
 377  00DB  1200     R  	sbc a,_R[1]
 377  00DC  1185        	swap acc
 377  00DD  040A        	xor a,status
 377  00DE  3985        	snz acc.3
 377  00DF  2800     R  	jmp _L62
 377  00E0  1F00     R  	clr _RGB[0]
 377  00E1  1F00     R  	clr _RGB[1]
 377  00E2              _L62:
 383  00E2              #line 383 "E:\hamed\touch2\touch-rgb-2key\RGB-2key\RGB-2key.h"
 383  00E2  0700     R  	mov a,_rgbpals[0]
 383  00E3  0C03        	xor a,3
 383  00E4  0500     R  	or a,_rgbpals[1]
 383  00E5  3D0A        	sz z
 383  00E6  2800     R  	jmp _L85
 383  00E7  0700     R  	mov a,_rgbpals[0]
 383  00E8  0C04        	xor a,4
 383  00E9  0500     R  	or a,_rgbpals[1]
 383  00EA  390A        	snz z
 383  00EB  2800     R  	jmp _L86
 383  00EC              _L85:
 383  00EC  3800     R  	snz _q
 383  00ED  2800     R  	jmp _L86
 383  00EE  3C00     R  	sz _counterrgb[1].7
 383  00EF  2800     R  	jmp _L86
 385  00F0              #line 385 "E:\hamed\touch2\touch-rgb-2key\RGB-2key\RGB-2key.h"
 385  00F0  0700     R  	mov a,_rgbpals[0]
 385  00F1  0C03        	xor a,3
 385  00F2  0500     R  	or a,_rgbpals[1]
 385  00F3  390A        	snz z
 385  00F4  2800     R  	jmp _L88
 385  00F5  0F28        	mov a,40
"File: RGB-2key.h    Assembler  Version HGASM0202      Page 23

 385  00F6  0080     R  	mov _rgb1[0],a
 385  00F7  1F00     R  	clr _rgb1[1]
 385  00F8              _L88:
 386  00F8              #line 386 "E:\hamed\touch2\touch-rgb-2key\RGB-2key\RGB-2key.h"
 386  00F8  0700     R  	mov a,_rgbpals[0]
 386  00F9  0C04        	xor a,4
 386  00FA  0500     R  	or a,_rgbpals[1]
 386  00FB  390A        	snz z
 386  00FC  2800     R  	jmp _L89
 386  00FD  0FD2        	mov a,-46
 386  00FE  0080     R  	mov _rgb1[0],a
 386  00FF  1F00     R  	clr _rgb1[1]
 386  0100              _L89:
 389  0100              #line 389 "E:\hamed\touch2\touch-rgb-2key\RGB-2key\RGB-2key.h"
 389  0100  0700     R  	mov a,_counterrgb[0]
 389  0101  0080     E  	mov _builtin_holtek_udivmodhi4_2[0],a
 389  0102  0700     R  	mov a,_counterrgb[1]
 389  0103  0080     E  	mov _builtin_holtek_udivmodhi4_2[1],a
 389  0104  0700     R  	mov a,_rgb1[0]
 389  0105  0080     E  	mov _builtin_holtek_udivmodhi4_2[2],a
 389  0106  0700     R  	mov a,_rgb1[1]
 389  0107  0080     E  	mov _builtin_holtek_udivmodhi4_2[3],a
 389  0108  2000     E  	call _builtin_holtek_divmodhi4
 389  0109  0700     E  	mov a,_builtin_holtek_udivmodhi4_2[4]
 389  010A  0080     E  	mov rb,a
 389  010B  0700     E  	mov a,_builtin_holtek_udivmodhi4_2[5]
 389  010C  0080     E  	mov rc,a
 389  010D  0700     E  	mov a,rb
 389  010E  0500     E  	or a,rc
 389  010F  390A        	snz z
 389  0110  2800     R  	jmp _L86
 391  0111              #line 391 "E:\hamed\touch2\touch-rgb-2key\RGB-2key\RGB-2key.h"
 391  0111  1480     R  	inc _rgb2[0]
 391  0112  3D0A        	sz z
 391  0113  1480     R  	inc _rgb2[1]
 393  0114              #line 393 "E:\hamed\touch2\touch-rgb-2key\RGB-2key\RGB-2key.h"
 393  0114  0700     R  	mov a,_rgb2[0]
 393  0115  0C01        	xor a,1
 393  0116  0500     R  	or a,_rgb2[1]
 393  0117  390A        	snz z
 393  0118  2800     R  	jmp _L90
 393  0119  0F50        	mov a,80
 393  011A  0080     R  	mov _R[0],a
 393  011B  1F00     R  	clr _R[1]
 393  011C  0F50        	mov a,80
 393  011D  0080     R  	mov _G[0],a
 393  011E  1F00     R  	clr _G[1]
 393  011F  1F00     R  	clr _B[0]
 393  0120  1F00     R  	clr _B[1]
 393  0121              _L90:
 394  0121              #line 394 "E:\hamed\touch2\touch-rgb-2key\RGB-2key\RGB-2key.h"
 394  0121  0700     R  	mov a,_rgb2[0]
 394  0122  0C02        	xor a,2
 394  0123  0500     R  	or a,_rgb2[1]
 394  0124  390A        	snz z
 394  0125  2800     R  	jmp _L91
 394  0126  1F00     R  	clr _R[0]
 394  0127  1F00     R  	clr _R[1]
 394  0128  0F50        	mov a,80
 394  0129  0080     R  	mov _G[0],a
"File: RGB-2key.h    Assembler  Version HGASM0202      Page 24

 394  012A  1F00     R  	clr _G[1]
 394  012B  1F00     R  	clr _B[0]
 394  012C  1F00     R  	clr _B[1]
 394  012D              _L91:
 395  012D              #line 395 "E:\hamed\touch2\touch-rgb-2key\RGB-2key\RGB-2key.h"
 395  012D  0700     R  	mov a,_rgb2[0]
 395  012E  0C03        	xor a,3
 395  012F  0500     R  	or a,_rgb2[1]
 395  0130  390A        	snz z
 395  0131  2800     R  	jmp _L92
 395  0132  1F00     R  	clr _R[0]
 395  0133  1F00     R  	clr _R[1]
 395  0134  0F50        	mov a,80
 395  0135  0080     R  	mov _G[0],a
 395  0136  1F00     R  	clr _G[1]
 395  0137  0F50        	mov a,80
 395  0138  0080     R  	mov _B[0],a
 395  0139  1F00     R  	clr _B[1]
 395  013A              _L92:
 396  013A              #line 396 "E:\hamed\touch2\touch-rgb-2key\RGB-2key\RGB-2key.h"
 396  013A  0700     R  	mov a,_rgb2[0]
 396  013B  0C04        	xor a,4
 396  013C  0500     R  	or a,_rgb2[1]
 396  013D  390A        	snz z
 396  013E  2800     R  	jmp _L93
 396  013F  1F00     R  	clr _R[0]
 396  0140  1F00     R  	clr _R[1]
 396  0141  1F00     R  	clr _G[0]
 396  0142  1F00     R  	clr _G[1]
 396  0143  0F50        	mov a,80
 396  0144  0080     R  	mov _B[0],a
 396  0145  1F00     R  	clr _B[1]
 396  0146              _L93:
 397  0146              #line 397 "E:\hamed\touch2\touch-rgb-2key\RGB-2key\RGB-2key.h"
 397  0146  0700     R  	mov a,_rgb2[0]
 397  0147  0C05        	xor a,5
 397  0148  0500     R  	or a,_rgb2[1]
 397  0149  390A        	snz z
 397  014A  2800     R  	jmp _L94
 397  014B  0F50        	mov a,80
 397  014C  0080     R  	mov _R[0],a
 397  014D  1F00     R  	clr _R[1]
 397  014E  1F00     R  	clr _G[0]
 397  014F  1F00     R  	clr _G[1]
 397  0150  0F50        	mov a,80
 397  0151  0080     R  	mov _B[0],a
 397  0152  1F00     R  	clr _B[1]
 397  0153              _L94:
 398  0153              #line 398 "E:\hamed\touch2\touch-rgb-2key\RGB-2key\RGB-2key.h"
 398  0153  0700     R  	mov a,_rgb2[0]
 398  0154  0C06        	xor a,6
 398  0155  0500     R  	or a,_rgb2[1]
 398  0156  390A        	snz z
 398  0157  2800     R  	jmp _L95
 398  0158  0F50        	mov a,80
 398  0159  0080     R  	mov _R[0],a
 398  015A  1F00     R  	clr _R[1]
 398  015B  1F00     R  	clr _G[0]
 398  015C  1F00     R  	clr _G[1]
 398  015D  1F00     R  	clr _B[0]
"File: RGB-2key.h    Assembler  Version HGASM0202      Page 25

 398  015E  1F00     R  	clr _B[1]
 398  015F              _L95:
 399  015F              #line 399 "E:\hamed\touch2\touch-rgb-2key\RGB-2key\RGB-2key.h"
 399  015F  0700     R  	mov a,_rgb2[0]
 399  0160  0C07        	xor a,7
 399  0161  0500     R  	or a,_rgb2[1]
 399  0162  390A        	snz z
 399  0163  2800     R  	jmp _L96
 399  0164  1F00     R  	clr _R[0]
 399  0165  1F00     R  	clr _R[1]
 399  0166  1F00     R  	clr _G[0]
 399  0167  1F00     R  	clr _G[1]
 399  0168  1F00     R  	clr _B[0]
 399  0169  1F00     R  	clr _B[1]
 399  016A              _L96:
 400  016A              #line 400 "E:\hamed\touch2\touch-rgb-2key\RGB-2key\RGB-2key.h"
 400  016A  0F06        	mov a,6
 400  016B  0200     R  	sub a,_rgb2[0]
 400  016C  0F00        	mov a,0
 400  016D  1200     R  	sbc a,_rgb2[1]
 400  016E  1185        	swap acc
 400  016F  040A        	xor a,status
 400  0170  3985        	snz acc.3
 400  0171  2800     R  	jmp _L86
 400  0172  1F00     R  	clr _rgb2[0]
 400  0173  1F00     R  	clr _rgb2[1]
 400  0174              _L86:
 407  0174              #line 407 "E:\hamed\touch2\touch-rgb-2key\RGB-2key\RGB-2key.h"
 407  0174  0700     R  	mov a,_rgbpals[0]
 407  0175  0C05        	xor a,5
 407  0176  0500     R  	or a,_rgbpals[1]
 407  0177  390A        	snz z
 407  0178  2800     R  	jmp _L98
 407  0179  3800     R  	snz _q
 407  017A  2800     R  	jmp _L98
 407  017B  3C00     R  	sz _counterrgb[1].7
 407  017C  2800     R  	jmp _L98
 411  017D              #line 411 "E:\hamed\touch2\touch-rgb-2key\RGB-2key\RGB-2key.h"
 411  017D  0700     R  	mov a,_counterrgb[0]
 411  017E  0080     E  	mov _builtin_holtek_udivmodhi4_2[0],a
 411  017F  0700     R  	mov a,_counterrgb[1]
 411  0180  0080     E  	mov _builtin_holtek_udivmodhi4_2[1],a
 411  0181  0F64        	mov a,100
 411  0182  0080     E  	mov _builtin_holtek_udivmodhi4_2[2],a
 411  0183  0F00        	mov a,0
 411  0184  0080     E  	mov _builtin_holtek_udivmodhi4_2[3],a
 411  0185  2000     E  	call _builtin_holtek_divmodhi4
 411  0186  0700     E  	mov a,_builtin_holtek_udivmodhi4_2[4]
 411  0187  0080     E  	mov rb,a
 411  0188  0700     E  	mov a,_builtin_holtek_udivmodhi4_2[5]
 411  0189  0080     E  	mov rc,a
 411  018A  0F31        	mov a,49
 411  018B  0200     E  	sub a,rb
 411  018C  0F00        	mov a,0
 411  018D  1200     E  	sbc a,rc
 411  018E  1185        	swap acc
 411  018F  040A        	xor a,status
 411  0190  3D85        	sz acc.3
 411  0191  2800     R  	jmp _L101
 413  0192              #line 413 "E:\hamed\touch2\touch-rgb-2key\RGB-2key\RGB-2key.h"
"File: RGB-2key.h    Assembler  Version HGASM0202      Page 26

 413  0192  0700     R  	mov a,_counterrgb[0]
 413  0193  0080     E  	mov _builtin_holtek_udivmodhi4_2[0],a
 413  0194  0700     R  	mov a,_counterrgb[1]
 413  0195  0080     E  	mov _builtin_holtek_udivmodhi4_2[1],a
 413  0196  0F06        	mov a,6
 413  0197  0080     E  	mov _builtin_holtek_udivmodhi4_2[2],a
 413  0198  0F00        	mov a,0
 413  0199  0080     E  	mov _builtin_holtek_udivmodhi4_2[3],a
 413  019A  2000     E  	call _builtin_holtek_divmodhi4
 413  019B  0700     E  	mov a,_builtin_holtek_udivmodhi4_2[4]
 413  019C  0080     E  	mov rb,a
 413  019D  0700     E  	mov a,_builtin_holtek_udivmodhi4_2[5]
 413  019E  0080     E  	mov rc,a
 413  019F  0700     E  	mov a,rb
 413  01A0  0500     E  	or a,rc
 413  01A1  390A        	snz z
 413  01A2  2800     R  	jmp _L102
 414  01A3              #line 414 "E:\hamed\touch2\touch-rgb-2key\RGB-2key\RGB-2key.h"
 414  01A3  1F00     R  	clr _R[0]
 414  01A4  1F00     R  	clr _R[1]
 414  01A5  1F00     R  	clr _G[0]
 414  01A6  1F00     R  	clr _G[1]
 414  01A7  1F00     R  	clr _B[0]
 414  01A8  1F00     R  	clr _B[1]
 415  01A9              #line 415 "E:\hamed\touch2\touch-rgb-2key\RGB-2key\RGB-2key.h"
 415  01A9  3214        	set [20].4
 416  01AA              #line 416 "E:\hamed\touch2\touch-rgb-2key\RGB-2key\RGB-2key.h"
 416  01AA  3194        	set [20].3
 417  01AB              #line 417 "E:\hamed\touch2\touch-rgb-2key\RGB-2key\RGB-2key.h"
 417  01AB  3114        	set [20].2
 417  01AC              _L102:
 419  01AC              #line 419 "E:\hamed\touch2\touch-rgb-2key\RGB-2key\RGB-2key.h"
 419  01AC  0700     R  	mov a,_counterrgb[0]
 419  01AD  0080     E  	mov _builtin_holtek_udivmodhi4_2[0],a
 419  01AE  0700     R  	mov a,_counterrgb[1]
 419  01AF  0080     E  	mov _builtin_holtek_udivmodhi4_2[1],a
 419  01B0  0F06        	mov a,6
 419  01B1  0080     E  	mov _builtin_holtek_udivmodhi4_2[2],a
 419  01B2  0F00        	mov a,0
 419  01B3  0080     E  	mov _builtin_holtek_udivmodhi4_2[3],a
 419  01B4  2000     E  	call _builtin_holtek_divmodhi4
 419  01B5  0700     E  	mov a,_builtin_holtek_udivmodhi4_2[4]
 419  01B6  0080     E  	mov rb,a
 419  01B7  0700     E  	mov a,_builtin_holtek_udivmodhi4_2[5]
 419  01B8  0080     E  	mov rc,a
 419  01B9  0700     E  	mov a,rb
 419  01BA  0C03        	xor a,3
 419  01BB  0500     E  	or a,rc
 419  01BC  390A        	snz z
 419  01BD  2800     R  	jmp _L101
 420  01BE              #line 420 "E:\hamed\touch2\touch-rgb-2key\RGB-2key\RGB-2key.h"
 420  01BE  0F50        	mov a,80
 420  01BF  0080     R  	mov _R[0],a
 420  01C0  1F00     R  	clr _R[1]
 420  01C1  0F50        	mov a,80
 420  01C2  0080     R  	mov _G[0],a
 420  01C3  1F00     R  	clr _G[1]
 420  01C4  0F50        	mov a,80
 420  01C5  0080     R  	mov _B[0],a
 420  01C6  1F00     R  	clr _B[1]
"File: RGB-2key.h    Assembler  Version HGASM0202      Page 27

 421  01C7              #line 421 "E:\hamed\touch2\touch-rgb-2key\RGB-2key\RGB-2key.h"
 421  01C7  3614        	clr [20].4
 422  01C8              #line 422 "E:\hamed\touch2\touch-rgb-2key\RGB-2key\RGB-2key.h"
 422  01C8  3594        	clr [20].3
 423  01C9              #line 423 "E:\hamed\touch2\touch-rgb-2key\RGB-2key\RGB-2key.h"
 423  01C9  3514        	clr [20].2
 423  01CA              _L101:
 429  01CA              #line 429 "E:\hamed\touch2\touch-rgb-2key\RGB-2key\RGB-2key.h"
 429  01CA  0700     R  	mov a,_counterrgb[0]
 429  01CB  0080     E  	mov _builtin_holtek_udivmodhi4_2[0],a
 429  01CC  0700     R  	mov a,_counterrgb[1]
 429  01CD  0080     E  	mov _builtin_holtek_udivmodhi4_2[1],a
 429  01CE  0F64        	mov a,100
 429  01CF  0080     E  	mov _builtin_holtek_udivmodhi4_2[2],a
 429  01D0  0F00        	mov a,0
 429  01D1  0080     E  	mov _builtin_holtek_udivmodhi4_2[3],a
 429  01D2  2000     E  	call _builtin_holtek_divmodhi4
 429  01D3  0700     E  	mov a,_builtin_holtek_udivmodhi4_2[4]
 429  01D4  0080     E  	mov rb,a
 429  01D5  0700     E  	mov a,_builtin_holtek_udivmodhi4_2[5]
 429  01D6  0080     E  	mov rc,a
 429  01D7  0700     E  	mov a,rb
 429  01D8  0C32        	xor a,50
 429  01D9  0500     E  	or a,rc
 429  01DA  390A        	snz z
 429  01DB  2800     R  	jmp _L98
 431  01DC              #line 431 "E:\hamed\touch2\touch-rgb-2key\RGB-2key\RGB-2key.h"
 431  01DC  1480     R  	inc _rgb2[0]
 431  01DD  3D0A        	sz z
 431  01DE  1480     R  	inc _rgb2[1]
 433  01DF              #line 433 "E:\hamed\touch2\touch-rgb-2key\RGB-2key\RGB-2key.h"
 433  01DF  0700     R  	mov a,_rgb2[0]
 433  01E0  0C01        	xor a,1
 433  01E1  0500     R  	or a,_rgb2[1]
 433  01E2  390A        	snz z
 433  01E3  2800     R  	jmp _L104
 433  01E4  0F50        	mov a,80
 433  01E5  0080     R  	mov _R[0],a
 433  01E6  1F00     R  	clr _R[1]
 433  01E7  0F50        	mov a,80
 433  01E8  0080     R  	mov _G[0],a
 433  01E9  1F00     R  	clr _G[1]
 433  01EA  1F00     R  	clr _B[0]
 433  01EB  1F00     R  	clr _B[1]
 433  01EC              _L104:
 434  01EC              #line 434 "E:\hamed\touch2\touch-rgb-2key\RGB-2key\RGB-2key.h"
 434  01EC  0700     R  	mov a,_rgb2[0]
 434  01ED  0C02        	xor a,2
 434  01EE  0500     R  	or a,_rgb2[1]
 434  01EF  390A        	snz z
 434  01F0  2800     R  	jmp _L105
 434  01F1  1F00     R  	clr _R[0]
 434  01F2  1F00     R  	clr _R[1]
 434  01F3  0F50        	mov a,80
 434  01F4  0080     R  	mov _G[0],a
 434  01F5  1F00     R  	clr _G[1]
 434  01F6  0F50        	mov a,80
 434  01F7  0080     R  	mov _B[0],a
 434  01F8  1F00     R  	clr _B[1]
 434  01F9              _L105:
"File: RGB-2key.h    Assembler  Version HGASM0202      Page 28

 435  01F9              #line 435 "E:\hamed\touch2\touch-rgb-2key\RGB-2key\RGB-2key.h"
 435  01F9  0700     R  	mov a,_rgb2[0]
 435  01FA  0C03        	xor a,3
 435  01FB  0500     R  	or a,_rgb2[1]
 435  01FC  390A        	snz z
 435  01FD  2800     R  	jmp _L106
 435  01FE  0F50        	mov a,80
 435  01FF  0080     R  	mov _R[0],a
 435  0200  1F00     R  	clr _R[1]
 435  0201  1F00     R  	clr _G[0]
 435  0202  1F00     R  	clr _G[1]
 435  0203  0F50        	mov a,80
 435  0204  0080     R  	mov _B[0],a
 435  0205  1F00     R  	clr _B[1]
 435  0206              _L106:
 436  0206              #line 436 "E:\hamed\touch2\touch-rgb-2key\RGB-2key\RGB-2key.h"
 436  0206  0F02        	mov a,2
 436  0207  0200     R  	sub a,_rgb2[0]
 436  0208  0F00        	mov a,0
 436  0209  1200     R  	sbc a,_rgb2[1]
 436  020A  1185        	swap acc
 436  020B  040A        	xor a,status
 436  020C  3985        	snz acc.3
 436  020D  2800     R  	jmp _L98
 436  020E  1F00     R  	clr _rgb2[0]
 436  020F  1F00     R  	clr _rgb2[1]
 436  0210              _L98:
 442  0210              #line 442 "E:\hamed\touch2\touch-rgb-2key\RGB-2key\RGB-2key.h"
 442  0210  3800     R  	snz _q
 442  0211  2800     R  	jmp _L107
 442  0212  3C00     R  	sz _counterrgb[1].7
 442  0213  2800     R  	jmp _L107
 444  0214              #line 444 "E:\hamed\touch2\touch-rgb-2key\RGB-2key\RGB-2key.h"
 444  0214  0FFF        	mov a,255
 444  0215  0380     R  	addm a,_counter3[0]
 444  0216  0FFF        	mov a,255
 444  0217  1380     R  	adcm a,_counter3[1]
 446  0218              #line 446 "E:\hamed\touch2\touch-rgb-2key\RGB-2key\RGB-2key.h"
 446  0218  3800     R  	snz _counter3[1].7
 446  0219  2800     R  	jmp _L108
 447  021A              #line 447 "E:\hamed\touch2\touch-rgb-2key\RGB-2key\RGB-2key.h"
 447  021A  1F80     R  	set _counter3[0]
 447  021B  1F80     R  	set _counter3[1]
 449  021C              #line 449 "E:\hamed\touch2\touch-rgb-2key\RGB-2key\RGB-2key.h"
 449  021C  3C00     R  	sz _R[1].7
 449  021D  2800     R  	jmp _LI5
 449  021E  0700     R  	mov a,_R[0]
 449  021F  0500     R  	or a,_R[1]
 449  0220  390A        	snz z
 449  0221  2800     R  	jmp _L109
 449  0222              _LI5:
 450  0222              #line 450 "E:\hamed\touch2\touch-rgb-2key\RGB-2key\RGB-2key.h"
 450  0222  3214        	set [20].4
 450  0223  2800     R  	jmp _L110
 450  0224              _L109:
 451  0224              #line 451 "E:\hamed\touch2\touch-rgb-2key\RGB-2key\RGB-2key.h"
 451  0224  3614        	clr [20].4
 451  0225  3614        	clr [20].4
 451  0226  3614        	clr [20].4
 451  0227  3614        	clr [20].4
"File: RGB-2key.h    Assembler  Version HGASM0202      Page 29

 451  0228              _L110:
 452  0228              #line 452 "E:\hamed\touch2\touch-rgb-2key\RGB-2key\RGB-2key.h"
 452  0228  3C00     R  	sz _G[1].7
 452  0229  2800     R  	jmp _LI6
 452  022A  0700     R  	mov a,_G[0]
 452  022B  0500     R  	or a,_G[1]
 452  022C  390A        	snz z
 452  022D  2800     R  	jmp _L111
 452  022E              _LI6:
 453  022E              #line 453 "E:\hamed\touch2\touch-rgb-2key\RGB-2key\RGB-2key.h"
 453  022E  3194        	set [20].3
 453  022F  2800     R  	jmp _L112
 453  0230              _L111:
 454  0230              #line 454 "E:\hamed\touch2\touch-rgb-2key\RGB-2key\RGB-2key.h"
 454  0230  3594        	clr [20].3
 454  0231  3594        	clr [20].3
 454  0232  3594        	clr [20].3
 454  0233  3594        	clr [20].3
 454  0234              _L112:
 455  0234              #line 455 "E:\hamed\touch2\touch-rgb-2key\RGB-2key\RGB-2key.h"
 455  0234  3C00     R  	sz _B[1].7
 455  0235  2800     R  	jmp _LI7
 455  0236  0700     R  	mov a,_B[0]
 455  0237  0500     R  	or a,_B[1]
 455  0238  390A        	snz z
 455  0239  2800     R  	jmp _L113
 455  023A              _LI7:
 456  023A              #line 456 "E:\hamed\touch2\touch-rgb-2key\RGB-2key\RGB-2key.h"
 456  023A  3114        	set [20].2
 456  023B  2800     R  	jmp _L107
 456  023C              _L113:
 457  023C              #line 457 "E:\hamed\touch2\touch-rgb-2key\RGB-2key\RGB-2key.h"
 457  023C  3514        	clr [20].2
 457  023D  3514        	clr [20].2
 457  023E  3514        	clr [20].2
 457  023F  2800     R  	jmp _L132
 457  0240              _L108:
 460  0240              #line 460 "E:\hamed\touch2\touch-rgb-2key\RGB-2key\RGB-2key.h"
 460  0240  3614        	clr [20].4
 461  0241              #line 461 "E:\hamed\touch2\touch-rgb-2key\RGB-2key\RGB-2key.h"
 461  0241  3594        	clr [20].3
 461  0242              _L132:
 462  0242              #line 462 "E:\hamed\touch2\touch-rgb-2key\RGB-2key\RGB-2key.h"
 462  0242  3514        	clr [20].2
 462  0243              _L107:
 467  0243              #line 467 "E:\hamed\touch2\touch-rgb-2key\RGB-2key\RGB-2key.h"
 467  0243  3C00     R  	sz _q
 467  0244  2800     R  	jmp _L57
 467  0245  3C00     R  	sz _counterrgb[1].7
 467  0246  2800     R  	jmp _L57
 468  0247              #line 468 "E:\hamed\touch2\touch-rgb-2key\RGB-2key\RGB-2key.h"
 468  0247  3614        	clr [20].4
 468  0248  3614        	clr [20].4
 468  0249  3614        	clr [20].4
 468  024A  3614        	clr [20].4
 469  024B              #line 469 "E:\hamed\touch2\touch-rgb-2key\RGB-2key\RGB-2key.h"
 469  024B  3594        	clr [20].3
 469  024C  3594        	clr [20].3
 469  024D  3594        	clr [20].3
 469  024E  3594        	clr [20].3
"File: RGB-2key.h    Assembler  Version HGASM0202      Page 30

 470  024F              #line 470 "E:\hamed\touch2\touch-rgb-2key\RGB-2key\RGB-2key.h"
 470  024F  3514        	clr [20].2
 470  0250  3514        	clr [20].2
 470  0251  3514        	clr [20].2
 470  0252  3514        	clr [20].2
 471  0253              #line 471 "E:\hamed\touch2\touch-rgb-2key\RGB-2key\RGB-2key.h"
 471  0253  0F50        	mov a,80
 471  0254  0200     R  	sub a,_counter2[0]
 471  0255  0F00        	mov a,0
 471  0256  1200     R  	sbc a,_counter2[1]
 471  0257  1185        	swap acc
 471  0258  040A        	xor a,status
 471  0259  3D85        	sz acc.3
 471  025A  2800     R  	jmp _L57
 472  025B              #line 472 "E:\hamed\touch2\touch-rgb-2key\RGB-2key\RGB-2key.h"
 472  025B  0F02        	mov a,2
 472  025C  0380     R  	addm a,_counter2[0]
 472  025D  0F00        	mov a,0
 472  025E  1380     R  	adcm a,_counter2[1]
 472  025F              _L57:
 472  025F  0700     E  	mov a,r2
 472  0260  008A        	mov status,a
 472  0261  0700     E  	mov a,r1
 472  0262  0004        	reti
 472  0263              _int0 endp
 472  0263              
 472  0263              #line 472 "E:\hamed\touch2\touch-rgb-2key\RGB-2key\RGB-2key.h"
 472  0263              #pragma debug scope 1 1
 472  0263              public _timer
 472  0263              #pragma debug scope 12 1
 488  0263              #line 488 "E:\hamed\touch2\touch-rgb-2key\RGB-2key\RGB-2key.h"
 488  0000              @timer_code .section at 12 'code'
 488  0000  0080     E  	mov r1,a
 488  0001  070A        	mov a,status
 488  0002  0080     E  	mov r2,a
 488  0003  2800     R  	jmp _timer
 488  0004              #pragma debug scope 1 1
 488  0004              @dummy12 endp
 488  0004              #pragma debug scope 13 1
 488  0000              _timer .section 'code'
 488  0000              _timer proc
 490  0000              #line 490 "E:\hamed\touch2\touch-rgb-2key\RGB-2key\RGB-2key.h"
 490  0000  1480     R  	inc _counter1[0]
 490  0001  3D0A        	sz z
 490  0002  1480     R  	inc _counter1[1]
 494  0003              #line 494 "E:\hamed\touch2\touch-rgb-2key\RGB-2key\RGB-2key.h"
 494  0003  3800     R  	snz _q
 494  0004  2800     R  	jmp _L134
 494  0005              #line 494 "E:\hamed\touch2\touch-rgb-2key\RGB-2key\RGB-2key.h"
 494  0005  3C00     R  	sz _counterrgb[1].7
 494  0006  2800     R  	jmp _L134
 496  0007              #line 496 "E:\hamed\touch2\touch-rgb-2key\RGB-2key\RGB-2key.h"
 496  0007  0700     R  	mov a,_counter1[0]
 496  0008  0200     R  	sub a,_counter3[0]
 496  0009  0700     R  	mov a,_counter1[1]
 496  000A  1200     R  	sbc a,_counter3[1]
 496  000B  1185        	swap acc
 496  000C  040A        	xor a,status
 496  000D  3D85        	sz acc.3
 496  000E  2800     R  	jmp _L135
"File: RGB-2key.h    Assembler  Version HGASM0202      Page 31

 497  000F              #line 497 "E:\hamed\touch2\touch-rgb-2key\RGB-2key\RGB-2key.h"
 497  000F  0700     R  	mov a,_R[0]
 497  0010  0200     R  	sub a,_counter1[0]
 497  0011  0700     R  	mov a,_R[1]
 497  0012  1200     R  	sbc a,_counter1[1]
 497  0013  1185        	swap acc
 497  0014  040A        	xor a,status
 497  0015  3985        	snz acc.3
 497  0016  2800     R  	jmp _L136
 497  0017  0F40        	mov a,64
 497  0018  0200     R  	sub a,_counter1[0]
 497  0019  0F00        	mov a,0
 497  001A  1200     R  	sbc a,_counter1[1]
 497  001B  1185        	swap acc
 497  001C  040A        	xor a,status
 497  001D  3D85        	sz acc.3
 497  001E  2800     R  	jmp _L136
 498  001F              #line 498 "E:\hamed\touch2\touch-rgb-2key\RGB-2key\RGB-2key.h"
 498  001F  3214        	set [20].4
 498  0020  2800     R  	jmp _L137
 498  0021              _L136:
 499  0021              #line 499 "E:\hamed\touch2\touch-rgb-2key\RGB-2key\RGB-2key.h"
 499  0021  3614        	clr [20].4
 499  0022  3614        	clr [20].4
 499  0023  3614        	clr [20].4
 499  0024  3614        	clr [20].4
 499  0025              _L137:
 500  0025              #line 500 "E:\hamed\touch2\touch-rgb-2key\RGB-2key\RGB-2key.h"
 500  0025  0700     R  	mov a,_G[0]
 500  0026  0200     R  	sub a,_counter1[0]
 500  0027  0700     R  	mov a,_G[1]
 500  0028  1200     R  	sbc a,_counter1[1]
 500  0029  1185        	swap acc
 500  002A  040A        	xor a,status
 500  002B  3985        	snz acc.3
 500  002C  2800     R  	jmp _L138
 500  002D  0F40        	mov a,64
 500  002E  0200     R  	sub a,_counter1[0]
 500  002F  0F00        	mov a,0
 500  0030  1200     R  	sbc a,_counter1[1]
 500  0031  1185        	swap acc
 500  0032  040A        	xor a,status
 500  0033  3D85        	sz acc.3
 500  0034  2800     R  	jmp _L138
 501  0035              #line 501 "E:\hamed\touch2\touch-rgb-2key\RGB-2key\RGB-2key.h"
 501  0035  3194        	set [20].3
 501  0036  2800     R  	jmp _L139
 501  0037              _L138:
 502  0037              #line 502 "E:\hamed\touch2\touch-rgb-2key\RGB-2key\RGB-2key.h"
 502  0037  3594        	clr [20].3
 502  0038  3594        	clr [20].3
 502  0039  3594        	clr [20].3
 502  003A  3594        	clr [20].3
 502  003B              _L139:
 503  003B              #line 503 "E:\hamed\touch2\touch-rgb-2key\RGB-2key\RGB-2key.h"
 503  003B  0700     R  	mov a,_B[0]
 503  003C  0200     R  	sub a,_counter1[0]
 503  003D  0700     R  	mov a,_B[1]
 503  003E  1200     R  	sbc a,_counter1[1]
 503  003F  1185        	swap acc
"File: RGB-2key.h    Assembler  Version HGASM0202      Page 32

 503  0040  040A        	xor a,status
 503  0041  3985        	snz acc.3
 503  0042  2800     R  	jmp _L140
 503  0043  0F40        	mov a,64
 503  0044  0200     R  	sub a,_counter1[0]
 503  0045  0F00        	mov a,0
 503  0046  1200     R  	sbc a,_counter1[1]
 503  0047  1185        	swap acc
 503  0048  040A        	xor a,status
 503  0049  3D85        	sz acc.3
 503  004A  2800     R  	jmp _L140
 504  004B              #line 504 "E:\hamed\touch2\touch-rgb-2key\RGB-2key\RGB-2key.h"
 504  004B  3114        	set [20].2
 504  004C  2800     R  	jmp _L135
 504  004D              _L140:
 505  004D              #line 505 "E:\hamed\touch2\touch-rgb-2key\RGB-2key\RGB-2key.h"
 505  004D  3514        	clr [20].2
 505  004E  3514        	clr [20].2
 505  004F  3514        	clr [20].2
 505  0050  3514        	clr [20].2
 505  0051              _L135:
 507  0051              #line 507 "E:\hamed\touch2\touch-rgb-2key\RGB-2key\RGB-2key.h"
 507  0051  1F00     R  	clr _counter2[0]
 507  0052  1F00     R  	clr _counter2[1]
 507  0053              _L134:
 511  0053              #line 511 "E:\hamed\touch2\touch-rgb-2key\RGB-2key\RGB-2key.h"
 511  0053  3C00     R  	sz _q
 511  0054  2800     R  	jmp _L133
 511  0055  3C00     R  	sz _counterrgb[1].7
 511  0056  2800     R  	jmp _L133
 513  0057              #line 513 "E:\hamed\touch2\touch-rgb-2key\RGB-2key\RGB-2key.h"
 513  0057  0700     R  	mov a,_counter1[0]
 513  0058  0200     R  	sub a,_counter2[0]
 513  0059  0700     R  	mov a,_counter1[1]
 513  005A  1200     R  	sbc a,_counter2[1]
 513  005B  1185        	swap acc
 513  005C  040A        	xor a,status
 513  005D  3D85        	sz acc.3
 513  005E  2800     R  	jmp _L142
 514  005F              #line 514 "E:\hamed\touch2\touch-rgb-2key\RGB-2key\RGB-2key.h"
 514  005F  0700     R  	mov a,_counter1[0]
 514  0060  0200     R  	sub a,_R[0]
 514  0061  0700     R  	mov a,_counter1[1]
 514  0062  1200     R  	sbc a,_R[1]
 514  0063  1185        	swap acc
 514  0064  040A        	xor a,status
 514  0065  3D85        	sz acc.3
 514  0066  2800     R  	jmp _L143
 515  0067              #line 515 "E:\hamed\touch2\touch-rgb-2key\RGB-2key\RGB-2key.h"
 515  0067  3214        	set [20].4
 515  0068  2800     R  	jmp _L144
 515  0069              _L143:
 516  0069              #line 516 "E:\hamed\touch2\touch-rgb-2key\RGB-2key\RGB-2key.h"
 516  0069  3614        	clr [20].4
 516  006A  3614        	clr [20].4
 516  006B  3614        	clr [20].4
 516  006C  3614        	clr [20].4
 516  006D              _L144:
 517  006D              #line 517 "E:\hamed\touch2\touch-rgb-2key\RGB-2key\RGB-2key.h"
 517  006D  0700     R  	mov a,_counter1[0]
"File: RGB-2key.h    Assembler  Version HGASM0202      Page 33

 517  006E  0200     R  	sub a,_G[0]
 517  006F  0700     R  	mov a,_counter1[1]
 517  0070  1200     R  	sbc a,_G[1]
 517  0071  1185        	swap acc
 517  0072  040A        	xor a,status
 517  0073  3D85        	sz acc.3
 517  0074  2800     R  	jmp _L145
 518  0075              #line 518 "E:\hamed\touch2\touch-rgb-2key\RGB-2key\RGB-2key.h"
 518  0075  3194        	set [20].3
 518  0076  2800     R  	jmp _L146
 518  0077              _L145:
 519  0077              #line 519 "E:\hamed\touch2\touch-rgb-2key\RGB-2key\RGB-2key.h"
 519  0077  3594        	clr [20].3
 519  0078  3594        	clr [20].3
 519  0079  3594        	clr [20].3
 519  007A  3594        	clr [20].3
 519  007B              _L146:
 520  007B              #line 520 "E:\hamed\touch2\touch-rgb-2key\RGB-2key\RGB-2key.h"
 520  007B  0700     R  	mov a,_counter1[0]
 520  007C  0200     R  	sub a,_B[0]
 520  007D  0700     R  	mov a,_counter1[1]
 520  007E  1200     R  	sbc a,_B[1]
 520  007F  1185        	swap acc
 520  0080  040A        	xor a,status
 520  0081  3D85        	sz acc.3
 520  0082  2800     R  	jmp _L147
 521  0083              #line 521 "E:\hamed\touch2\touch-rgb-2key\RGB-2key\RGB-2key.h"
 521  0083  3114        	set [20].2
 521  0084  2800     R  	jmp _L142
 521  0085              _L147:
 522  0085              #line 522 "E:\hamed\touch2\touch-rgb-2key\RGB-2key\RGB-2key.h"
 522  0085  3514        	clr [20].2
 522  0086  3514        	clr [20].2
 522  0087  3514        	clr [20].2
 522  0088  3514        	clr [20].2
 522  0089              _L142:
 524  0089              #line 524 "E:\hamed\touch2\touch-rgb-2key\RGB-2key\RGB-2key.h"
 524  0089  0700     R  	mov a,_ncount[0]
 524  008A  0080     R  	mov _counter3[0],a
 524  008B  0700     R  	mov a,_ncount[1]
 524  008C  0080     R  	mov _counter3[1],a
 524  008D              _L133:
 524  008D  0700     E  	mov a,r2
 524  008E  008A        	mov status,a
 524  008F  0700     E  	mov a,r1
 524  0090  0004        	reti
 524  0091              _timer endp
 524  0091              
 524  0091              #line 524 "E:\hamed\touch2\touch-rgb-2key\RGB-2key\RGB-2key.h"
 524  0091              #pragma debug scope 1 1
 524  0091              ___integ equ [13]
 524  0091              ___tmrc equ [29]
 524  0091              ___smod equ [11]
 524  0091              ___pac equ [21]
 524  0091              public _main
 524  0091              #pragma debug scope 14 1

  31  0091              #line 31 "E:\hamed\touch2\touch-rgb-2key\RGB-2key\RGB-2key.c"
  31  0091              IFDEF WITH_DEFAULT_STARTUP
  31  0091              extern _main_initial0:near
"File: RGB-2key.c    Assembler  Version HGASM0202      Page 34

  31  0091              extern _main_startup:near
  31  0091              ENDIF
  31  0091              
  31  0091              ROMBANK 0 @start
  31  0000              @start .section com_l 'code'
  31  0000              _main_startup1:
  31  0000              @start .section com_e 'code'
  31  0000  2800     R  	jmp _main
  31  0001              
  31  0000              _main .section 'code'
  31  0000              _main proc
  38  0000              #line 38 "E:\hamed\touch2\touch-rgb-2key\RGB-2key\RGB-2key.c"
  38  0000  308D        	set [13].1
  39  0001              #line 39 "E:\hamed\touch2\touch-rgb-2key\RGB-2key\RGB-2key.c"
  39  0001  300D        	set [13].0
  40  0002              #line 40 "E:\hamed\touch2\touch-rgb-2key\RGB-2key\RGB-2key.c"
  40  0002  308E        	set [14].1
  47  0003              #line 47 "E:\hamed\touch2\touch-rgb-2key\RGB-2key\RGB-2key.c"
  47  0003  369D        	clr [29].5
  48  0004              #line 48 "E:\hamed\touch2\touch-rgb-2key\RGB-2key\RGB-2key.c"
  48  0004  321D        	set [29].4
  50  0005              #line 50 "E:\hamed\touch2\touch-rgb-2key\RGB-2key\RGB-2key.c"
  50  0005  341D        	clr [29].0
  51  0006              #line 51 "E:\hamed\touch2\touch-rgb-2key\RGB-2key\RGB-2key.c"
  51  0006  309D        	set [29].1
  52  0007              #line 52 "E:\hamed\touch2\touch-rgb-2key\RGB-2key\RGB-2key.c"
  52  0007  351D        	clr [29].2
  55  0008              #line 55 "E:\hamed\touch2\touch-rgb-2key\RGB-2key\RGB-2key.c"
  55  0008  300E        	set [14].0
  56  0009              #line 56 "E:\hamed\touch2\touch-rgb-2key\RGB-2key\RGB-2key.c"
  56  0009  300B        	set [11].0
  58  000A              #line 58 "E:\hamed\touch2\touch-rgb-2key\RGB-2key\RGB-2key.c"
  58  000A  330E        	set [14].6
  59  000B              #line 59 "E:\hamed\touch2\touch-rgb-2key\RGB-2key\RGB-2key.c"
  59  000B  318E        	set [14].3
  63  000C              #line 63 "E:\hamed\touch2\touch-rgb-2key\RGB-2key\RGB-2key.c"
  63  000C  3615        	clr [21].4
  63  000D  3595        	clr [21].3
  63  000E  3515        	clr [21].2
  64  000F              #line 64 "E:\hamed\touch2\touch-rgb-2key\RGB-2key\RGB-2key.c"
  64  000F  0F01        	mov a,1
  64  0010  0080     R  	mov _delay_ms_2[0],a
  64  0011  1F00     R  	clr _delay_ms_2[1]
  64  0012  1F00     R  	clr _delay_ms_2[2]
  64  0013  1F00     R  	clr _delay_ms_2[3]
  64  0014  2000     R  	call _delay_ms
  65  0015              #line 65 "E:\hamed\touch2\touch-rgb-2key\RGB-2key\RGB-2key.c"
  65  0015  2000     R  	call _TuochKeyInit
  66  0016              #line 66 "E:\hamed\touch2\touch-rgb-2key\RGB-2key\RGB-2key.c"
  66  0016  0F01        	mov a,1
  66  0017  0080     R  	mov _delay_ms_2[0],a
  66  0018  1F00     R  	clr _delay_ms_2[1]
  66  0019  1F00     R  	clr _delay_ms_2[2]
  66  001A  1F00     R  	clr _delay_ms_2[3]
  66  001B  2000     R  	call _delay_ms
  67  001C              #line 67 "E:\hamed\touch2\touch-rgb-2key\RGB-2key\RGB-2key.c"
  67  001C  2000     R  	call _CalibrTuoch
  67  001D              _L150:
  71  001D              #line 71 "E:\hamed\touch2\touch-rgb-2key\RGB-2key\RGB-2key.c"
  71  001D              ;# 71 "E:\hamed\touch2\touch-rgb-2key\RGB-2key\RGB-2key.c" 1
"File: RGB-2key.c    Assembler  Version HGASM0202      Page 35

  71  001D  0001        	clr wdt
  72  001E              #line 72 "E:\hamed\touch2\touch-rgb-2key\RGB-2key\RGB-2key.c"
  72  001E  0700     R  	mov a,_i[0]
  72  001F  0080     E  	mov ra,a
  72  0020  0700     E  	mov a,ra
  72  0021  2000     R  	call _Key_Select
  73  0022              #line 73 "E:\hamed\touch2\touch-rgb-2key\RGB-2key\RGB-2key.c"
  73  0022  1480     R  	inc _i[0]
  73  0023  0F01        	mov a,1
  73  0024  0200     R  	sub a,_i[0]
  73  0025  3C0A        	sz c
  73  0026  2800     R  	jmp _L149
  73  0027  1F00     R  	clr _i[0]
  73  0028              _L149:
  74  0028              #line 74 "E:\hamed\touch2\touch-rgb-2key\RGB-2key\RGB-2key.c"
  74  0028  2000     R  	call _Key_Touch
  75  0029              #line 75 "E:\hamed\touch2\touch-rgb-2key\RGB-2key\RGB-2key.c"
  75  0029  2800     R  	jmp _L150
  75  002A  2800     R  	jmp $
  75  002B              _main endp
  75  002B              
  75  002B              @dummy endp
  75  002B              
  75  002B              #line 75 "E:\hamed\touch2\touch-rgb-2key\RGB-2key\RGB-2key.c"
  75  002B              #pragma debug scope 1 1
  75  002B              public _q
  75  0000              @HCCINIT	.section 'data'

  19  0000              #line 19 "E:\hamed\touch2\touch-rgb-2key\RGB-2key\RGB-2key.h"
  19  0000              @BITDATASEC .section 'data'
  19  0000  00          _q	dbit 0
  19  0001              #pragma debug variable 2 1 _q "q"
  19  0001              public _counter32
  18  0001              #line 18 "E:\hamed\touch2\touch-rgb-2key\RGB-2key\RGB-2key.h"
  18  0000              @HCCINIT .section 'data'
  18  0000              _counter32 label byte
  18  0000              #pragma debug variable 11 1 _counter32 "counter32"
  18  0000              	db 0
  18  0000              @ROMDATA_BASE .section inpage 'code'
  18  0000              	db 0
  18  0001              @HCCINIT .section 'data'
  18  0001              	db 0
  18  0001              @ROMDATA_BASE .section inpage 'code'
  18  0001              	db 0
  18  0002              @HCCINIT .section 'data'
  18  0002              public _counter3
  18  0002              #line 18 "E:\hamed\touch2\touch-rgb-2key\RGB-2key\RGB-2key.h"
  18  0002              @HCCINIT .section 'data'
  18  0002              _counter3 label byte
  18  0002              #pragma debug variable 11 1 _counter3 "counter3"
  18  0002              	db 0
  18  0001              @ROMDATA_BASE .section inpage 'code'
  18  0001              	db 0
  18  0003              @HCCINIT .section 'data'
  18  0003              	db 0
  18  0002              @ROMDATA_BASE .section inpage 'code'
  18  0002              	db 0
  18  0004              @HCCINIT .section 'data'
  18  0004              public _counter22
  17  0004              #line 17 "E:\hamed\touch2\touch-rgb-2key\RGB-2key\RGB-2key.h"
"File: RGB-2key.h    Assembler  Version HGASM0202      Page 36

  17  0004              @HCCINIT .section 'data'
  17  0004              _counter22 label byte
  17  0004              #pragma debug variable 11 1 _counter22 "counter22"
  17  0004              	db 0
  17  0002              @ROMDATA_BASE .section inpage 'code'
  17  0002              	db 0
  17  0005              @HCCINIT .section 'data'
  17  0005              	db 0
  17  0003              @ROMDATA_BASE .section inpage 'code'
  17  0003              	db 0
  17  0006              @HCCINIT .section 'data'
  17  0006              public _counter2
  17  0006              #line 17 "E:\hamed\touch2\touch-rgb-2key\RGB-2key\RGB-2key.h"
  17  0006              @HCCINIT .section 'data'
  17  0006              _counter2 label byte
  17  0006              #pragma debug variable 11 1 _counter2 "counter2"
  17  0006              	db 0
  17  0003              @ROMDATA_BASE .section inpage 'code'
  17  0003              	db 0
  17  0007              @HCCINIT .section 'data'
  17  0007              	db 0
  17  0004              @ROMDATA_BASE .section inpage 'code'
  17  0004              	db 0
  17  0008              @HCCINIT .section 'data'
  17  0008              public _counter12
  16  0008              #line 16 "E:\hamed\touch2\touch-rgb-2key\RGB-2key\RGB-2key.h"
  16  0008              @HCCINIT .section 'data'
  16  0008              _counter12 label byte
  16  0008              #pragma debug variable 11 1 _counter12 "counter12"
  16  0008              	db 0
  16  0004              @ROMDATA_BASE .section inpage 'code'
  16  0004              	db 0
  16  0009              @HCCINIT .section 'data'
  16  0009              	db 0
  16  0005              @ROMDATA_BASE .section inpage 'code'
  16  0005              	db 0
  16  000A              @HCCINIT .section 'data'
  16  000A              public _counter1
  16  000A              #line 16 "E:\hamed\touch2\touch-rgb-2key\RGB-2key\RGB-2key.h"
  16  000A              @HCCINIT .section 'data'
  16  000A              _counter1 label byte
  16  000A              #pragma debug variable 11 1 _counter1 "counter1"
  16  000A              	db 0
  16  0005              @ROMDATA_BASE .section inpage 'code'
  16  0005              	db 0
  16  000B              @HCCINIT .section 'data'
  16  000B              	db 0
  16  0006              @ROMDATA_BASE .section inpage 'code'
  16  0006              	db 0
  16  000C              @HCCINIT .section 'data'
  16  000C              public _ncount
  15  000C              #line 15 "E:\hamed\touch2\touch-rgb-2key\RGB-2key\RGB-2key.h"
  15  000C              @HCCINIT .section 'data'
  15  000C              _ncount label byte
  15  000C              #pragma debug variable 11 1 _ncount "ncount"
  15  000C              	db 0
  15  0006              @ROMDATA_BASE .section inpage 'code'
  15  0006              	db 0
  15  000D              @HCCINIT .section 'data'
  15  000D              	db 0
"File: RGB-2key.h    Assembler  Version HGASM0202      Page 37

  15  0007              @ROMDATA_BASE .section inpage 'code'
  15  0007              	db 0
  15  000E              @HCCINIT .section 'data'
  15  000E              public _counterrgb
  13  000E              #line 13 "E:\hamed\touch2\touch-rgb-2key\RGB-2key\RGB-2key.h"
  13  000E              @HCCINIT .section 'data'
  13  000E              _counterrgb label byte
  13  000E              #pragma debug variable 11 1 _counterrgb "counterrgb"
  13  000E              	dw 15000
  13  0007              @ROMDATA_BASE .section inpage 'code'
  13  0007  3A98        	dc 15000
  13  0010              @HCCINIT .section 'data'
  13  0010              public _rgbpals
  13  0010              #line 13 "E:\hamed\touch2\touch-rgb-2key\RGB-2key\RGB-2key.h"
  13  0010              @HCCINIT .section 'data'
  13  0010              _rgbpals label byte
  13  0010              #pragma debug variable 11 1 _rgbpals "rgbpals"
  13  0010              	db 0
  13  0008              @ROMDATA_BASE .section inpage 'code'
  13  0008              	db 0
  13  0011              @HCCINIT .section 'data'
  13  0011              	db 0
  13  0009              @ROMDATA_BASE .section inpage 'code'
  13  0009              	db 0
  13  0012              @HCCINIT .section 'data'
  13  0012              public _rgb2
  13  0012              #line 13 "E:\hamed\touch2\touch-rgb-2key\RGB-2key\RGB-2key.h"
  13  0012              @HCCINIT .section 'data'
  13  0012              _rgb2 label byte
  13  0012              #pragma debug variable 11 1 _rgb2 "rgb2"
  13  0012              	db 0
  13  0009              @ROMDATA_BASE .section inpage 'code'
  13  0009              	db 0
  13  0013              @HCCINIT .section 'data'
  13  0013              	db 0
  13  000A              @ROMDATA_BASE .section inpage 'code'
  13  000A              	db 0
  13  0014              @HCCINIT .section 'data'
  13  0014              public _rgb1
  13  0014              #line 13 "E:\hamed\touch2\touch-rgb-2key\RGB-2key\RGB-2key.h"
  13  0014              @HCCINIT .section 'data'
  13  0014              _rgb1 label byte
  13  0014              #pragma debug variable 11 1 _rgb1 "rgb1"
  13  0014              	db 0
  13  000A              @ROMDATA_BASE .section inpage 'code'
  13  000A              	db 0
  13  0015              @HCCINIT .section 'data'
  13  0015              	db 0
  13  000B              @ROMDATA_BASE .section inpage 'code'
  13  000B              	db 0
  13  0016              @HCCINIT .section 'data'
  13  0016              public _rgbauto
  13  0016              #line 13 "E:\hamed\touch2\touch-rgb-2key\RGB-2key\RGB-2key.h"
  13  0016              @HCCINIT .section 'data'
  13  0016              _rgbauto label byte
  13  0016              #pragma debug variable 11 1 _rgbauto "rgbauto"
  13  0016              	db 0
  13  000B              @ROMDATA_BASE .section inpage 'code'
  13  000B              	db 0
  13  0017              @HCCINIT .section 'data'
"File: RGB-2key.h    Assembler  Version HGASM0202      Page 38

  13  0017              	db 0
  13  000C              @ROMDATA_BASE .section inpage 'code'
  13  000C              	db 0
  13  0018              @HCCINIT .section 'data'
  13  0018              public _rgbchange
  13  0018              #line 13 "E:\hamed\touch2\touch-rgb-2key\RGB-2key\RGB-2key.h"
  13  0018              @HCCINIT .section 'data'
  13  0018              _rgbchange label byte
  13  0018              #pragma debug variable 11 1 _rgbchange "rgbchange"
  13  0018              	db 0
  13  000C              @ROMDATA_BASE .section inpage 'code'
  13  000C              	db 0
  13  0019              @HCCINIT .section 'data'
  13  0019              	db 0
  13  000D              @ROMDATA_BASE .section inpage 'code'
  13  000D              	db 0
  13  001A              @HCCINIT .section 'data'
  13  001A              public _RGB
  13  001A              #line 13 "E:\hamed\touch2\touch-rgb-2key\RGB-2key\RGB-2key.h"
  13  001A              @HCCINIT .section 'data'
  13  001A              _RGB label byte
  13  001A              #pragma debug variable 11 1 _RGB "RGB"
  13  001A              	db 0
  13  000D              @ROMDATA_BASE .section inpage 'code'
  13  000D              	db 0
  13  001B              @HCCINIT .section 'data'
  13  001B              	db 0
  13  000E              @ROMDATA_BASE .section inpage 'code'
  13  000E              	db 0
  13  001C              @HCCINIT .section 'data'
  13  001C              public _B
  13  001C              #line 13 "E:\hamed\touch2\touch-rgb-2key\RGB-2key\RGB-2key.h"
  13  001C              @HCCINIT .section 'data'
  13  001C              _B label byte
  13  001C              #pragma debug variable 11 1 _B "B"
  13  001C              	db 0
  13  000E              @ROMDATA_BASE .section inpage 'code'
  13  000E              	db 0
  13  001D              @HCCINIT .section 'data'
  13  001D              	db 0
  13  000F              @ROMDATA_BASE .section inpage 'code'
  13  000F              	db 0
  13  001E              @HCCINIT .section 'data'
  13  001E              public _G
  13  001E              #line 13 "E:\hamed\touch2\touch-rgb-2key\RGB-2key\RGB-2key.h"
  13  001E              @HCCINIT .section 'data'
  13  001E              _G label byte
  13  001E              #pragma debug variable 11 1 _G "G"
  13  001E              	dw 80
  13  000F              @ROMDATA_BASE .section inpage 'code'
  13  000F  0050        	dc 80
  13  0020              @HCCINIT .section 'data'
  13  0020              public _R
  13  0020              #line 13 "E:\hamed\touch2\touch-rgb-2key\RGB-2key\RGB-2key.h"
  13  0020              @HCCINIT .section 'data'
  13  0020              _R label byte
  13  0020              #pragma debug variable 11 1 _R "R"
  13  0020              	dw 80
  13  0010              @ROMDATA_BASE .section inpage 'code'
  13  0010  0050        	dc 80
"File: RGB-2key.h    Assembler  Version HGASM0202      Page 39

  13  0022              @HCCINIT .section 'data'
  13  0022              public _nsicl
  11  0022              #line 11 "E:\hamed\touch2\touch-rgb-2key\RGB-2key\RGB-2key.h"
  11  0022              @HCCINIT .section 'data'
  11  0022              _nsicl label byte
  11  0022              #pragma debug variable 11 1 _nsicl "nsicl"
  11  0022              	dw 80
  11  0011              @ROMDATA_BASE .section inpage 'code'
  11  0011  0050        	dc 80
  11  0024              @HCCINIT .section 'data'
  11  0024              public _CalibrSample2
   9  0024              #line 9 "E:\hamed\touch2\touch-rgb-2key\RGB-2key\RGB-2key.h"
   9  0024              @HCCINIT .section 'data'
   9  0024              _CalibrSample2 label byte
   9  0024              #pragma debug variable 8 1 _CalibrSample2 "CalibrSample2"
   9  0024              	db 0
   9  0012              @ROMDATA_BASE .section inpage 'code'
   9  0012              	db 0
   9  0025              @HCCINIT .section 'data'
   9  0025              public _CalibrCount2
   9  0025              #line 9 "E:\hamed\touch2\touch-rgb-2key\RGB-2key\RGB-2key.h"
   9  0025              @HCCINIT .section 'data'
   9  0025              _CalibrCount2 label byte
   9  0025              #pragma debug variable 8 1 _CalibrCount2 "CalibrCount2"
   9  0025              	db 0
   9  0013              @ROMDATA_BASE .section inpage 'code'
   9  0013              	db 0
   9  0026              @HCCINIT .section 'data'
   9  0026              public _Count_T2
   8  0026              #line 8 "E:\hamed\touch2\touch-rgb-2key\RGB-2key\RGB-2key.h"
   8  0026              @HCCINIT .section 'data'
   8  0026              _Count_T2 label byte
   8  0026              #pragma debug variable 12 1 _Count_T2 "Count_T2"
   8  0026              	db 0
   8  0013              @ROMDATA_BASE .section inpage 'code'
   8  0013              	db 0
   8  0027              @HCCINIT .section 'data'
   8  0027              	db 0
   8  0014              @ROMDATA_BASE .section inpage 'code'
   8  0014              	db 0
   8  0028              @HCCINIT .section 'data'
   8  0028              public _Count_S2
   7  0028              #line 7 "E:\hamed\touch2\touch-rgb-2key\RGB-2key\RGB-2key.h"
   7  0028              @HCCINIT .section 'data'
   7  0028              _Count_S2 label byte
   7  0028              #pragma debug variable 12 1 _Count_S2 "Count_S2"
   7  0028              	db 0
   7  0014              @ROMDATA_BASE .section inpage 'code'
   7  0014              	db 0
   7  0029              @HCCINIT .section 'data'
   7  0029              	db 0
   7  0015              @ROMDATA_BASE .section inpage 'code'
   7  0015              	db 0
   7  002A              @HCCINIT .section 'data'
   7  002A              public _Count_C2_Backup
   6  002A              #line 6 "E:\hamed\touch2\touch-rgb-2key\RGB-2key\RGB-2key.h"
   6  002A              @HCCINIT .section 'data'
   6  002A              _Count_C2_Backup label byte
   6  002A              #pragma debug variable 14 1 _Count_C2_Backup "Count_C2_Backup"
   6  002A              	db 0
"File: RGB-2key.h    Assembler  Version HGASM0202      Page 40

   6  0015              @ROMDATA_BASE .section inpage 'code'
   6  0015              	db 0
   6  002B              @HCCINIT .section 'data'
   6  002B              	db 0
   6  0016              @ROMDATA_BASE .section inpage 'code'
   6  0016              	db 0
   6  002C              @HCCINIT .section 'data'
   6  002C              	db 0
   6  0016              @ROMDATA_BASE .section inpage 'code'
   6  0016              	db 0
   6  002D              @HCCINIT .section 'data'
   6  002D              	db 0
   6  0017              @ROMDATA_BASE .section inpage 'code'
   6  0017              	db 0
   6  002E              @HCCINIT .section 'data'
   6  002E              public _Count_C2
   6  002E              #line 6 "E:\hamed\touch2\touch-rgb-2key\RGB-2key\RGB-2key.h"
   6  002E              @HCCINIT .section 'data'
   6  002E              _Count_C2 label byte
   6  002E              #pragma debug variable 14 1 _Count_C2 "Count_C2"
   6  002E              	db 0
   6  0017              @ROMDATA_BASE .section inpage 'code'
   6  0017              	db 0
   6  002F              @HCCINIT .section 'data'
   6  002F              	db 0
   6  0018              @ROMDATA_BASE .section inpage 'code'
   6  0018              	db 0
   6  0030              @HCCINIT .section 'data'
   6  0030              	db 0
   6  0018              @ROMDATA_BASE .section inpage 'code'
   6  0018              	db 0
   6  0031              @HCCINIT .section 'data'
   6  0031              	db 0
   6  0019              @ROMDATA_BASE .section inpage 'code'
   6  0019              	db 0
   6  0032              @HCCINIT .section 'data'
   6  0032              public _CalibrSample1
   4  0032              #line 4 "E:\hamed\touch2\touch-rgb-2key\RGB-2key\RGB-2key.h"
   4  0032              @HCCINIT .section 'data'
   4  0032              _CalibrSample1 label byte
   4  0032              #pragma debug variable 8 1 _CalibrSample1 "CalibrSample1"
   4  0032              	db 0
   4  0019              @ROMDATA_BASE .section inpage 'code'
   4  0019              	db 0
   4  0033              @HCCINIT .section 'data'
   4  0033              public _CalibrCount1
   4  0033              #line 4 "E:\hamed\touch2\touch-rgb-2key\RGB-2key\RGB-2key.h"
   4  0033              @HCCINIT .section 'data'
   4  0033              _CalibrCount1 label byte
   4  0033              #pragma debug variable 8 1 _CalibrCount1 "CalibrCount1"
   4  0033              	db 0
   4  001A              @ROMDATA_BASE .section inpage 'code'
   4  001A              	db 0
   4  0034              @HCCINIT .section 'data'
   4  0034              public _counter
   4  0034              #line 4 "E:\hamed\touch2\touch-rgb-2key\RGB-2key\RGB-2key.h"
   4  0034              @HCCINIT .section 'data'
   4  0034              _counter label byte
   4  0034              #pragma debug variable 8 1 _counter "counter"
   4  0034              	db 0
"File: RGB-2key.h    Assembler  Version HGASM0202      Page 41

   4  001A              @ROMDATA_BASE .section inpage 'code'
   4  001A              	db 0
   4  0035              @HCCINIT .section 'data'
   4  0035              public _i
   4  0035              #line 4 "E:\hamed\touch2\touch-rgb-2key\RGB-2key\RGB-2key.h"
   4  0035              @HCCINIT .section 'data'
   4  0035              _i label byte
   4  0035              #pragma debug variable 8 1 _i "i"
   4  0035              	db 0
   4  001B              @ROMDATA_BASE .section inpage 'code'
   4  001B              	db 0
   4  0036              @HCCINIT .section 'data'
   4  0036              public _Count_T1
   3  0036              #line 3 "E:\hamed\touch2\touch-rgb-2key\RGB-2key\RGB-2key.h"
   3  0036              @HCCINIT .section 'data'
   3  0036              _Count_T1 label byte
   3  0036              #pragma debug variable 12 1 _Count_T1 "Count_T1"
   3  0036              	db 0
   3  001B              @ROMDATA_BASE .section inpage 'code'
   3  001B              	db 0
   3  0037              @HCCINIT .section 'data'
   3  0037              	db 0
   3  001C              @ROMDATA_BASE .section inpage 'code'
   3  001C              	db 0
   3  0038              @HCCINIT .section 'data'
   3  0038              public _Count_S1
   2  0038              #line 2 "E:\hamed\touch2\touch-rgb-2key\RGB-2key\RGB-2key.h"
   2  0038              @HCCINIT .section 'data'
   2  0038              _Count_S1 label byte
   2  0038              #pragma debug variable 12 1 _Count_S1 "Count_S1"
   2  0038              	db 0
   2  001C              @ROMDATA_BASE .section inpage 'code'
   2  001C              	db 0
   2  0039              @HCCINIT .section 'data'
   2  0039              	db 0
   2  001D              @ROMDATA_BASE .section inpage 'code'
   2  001D              	db 0
   2  003A              @HCCINIT .section 'data'
   2  003A              public _Count_C1_Backup
   1  003A              #line 1 "E:\hamed\touch2\touch-rgb-2key\RGB-2key\RGB-2key.h"
   1  003A              @HCCINIT .section 'data'
   1  003A              _Count_C1_Backup label byte
   1  003A              #pragma debug variable 14 1 _Count_C1_Backup "Count_C1_Backup"
   1  003A              	db 0
   1  001D              @ROMDATA_BASE .section inpage 'code'
   1  001D              	db 0
   1  003B              @HCCINIT .section 'data'
   1  003B              	db 0
   1  001E              @ROMDATA_BASE .section inpage 'code'
   1  001E              	db 0
   1  003C              @HCCINIT .section 'data'
   1  003C              	db 0
   1  001E              @ROMDATA_BASE .section inpage 'code'
   1  001E              	db 0
   1  003D              @HCCINIT .section 'data'
   1  003D              	db 0
   1  001F              @ROMDATA_BASE .section inpage 'code'
   1  001F              	db 0
   1  003E              @HCCINIT .section 'data'
   1  003E              public _Count_C1
"File: RGB-2key.h    Assembler  Version HGASM0202      Page 42

   1  003E              #line 1 "E:\hamed\touch2\touch-rgb-2key\RGB-2key\RGB-2key.h"
   1  003E              @HCCINIT .section 'data'
   1  003E              _Count_C1 label byte
   1  003E              #pragma debug variable 14 1 _Count_C1 "Count_C1"
   1  003E              	db 0
   1  001F              @ROMDATA_BASE .section inpage 'code'
   1  001F              	db 0
   1  003F              @HCCINIT .section 'data'
   1  003F              	db 0
   1  0020              @ROMDATA_BASE .section inpage 'code'
   1  0020              	db 0
   1  0040              @HCCINIT .section 'data'
   1  0040              	db 0
   1  0020              @ROMDATA_BASE .section inpage 'code'
   1  0020              	db 0
   1  0041              @HCCINIT .section 'data'
   1  0041              	db 0
   1  0021              @ROMDATA_BASE .section inpage 'code'
   1  0021              	db 0
   1  0042              @HCCINIT .section 'data'
   1  0042              #pragma debug struct_end
   1  0042              #pragma debug struct_end
   1  0042              #pragma debug union_end
   1  0042              #pragma debug union_end
   1  0042              #pragma debug variable 43 1 ___smod "__smod" 1
   1  0042              #pragma debug struct_end
   1  0042              #pragma debug struct_end
   1  0042              #pragma debug union_end
   1  0042              #pragma debug union_end
   1  0042              #pragma debug variable 45 1 ___integ "__integ" 1
   1  0042              #pragma debug struct_end
   1  0042              #pragma debug struct_end
   1  0042              #pragma debug union_end
   1  0042              #pragma debug union_end
   1  0042              #pragma debug variable 47 1 ___intc0 "__intc0" 1
   1  0042              #pragma debug struct_end
   1  0042              #pragma debug struct_end
   1  0042              #pragma debug union_end
   1  0042              #pragma debug union_end
   1  0042              #pragma debug variable 49 1 ___pa "__pa" 1
   1  0042              #pragma debug struct_end
   1  0042              #pragma debug struct_end
   1  0042              #pragma debug union_end
   1  0042              #pragma debug union_end
   1  0042              #pragma debug variable 51 1 ___pac "__pac" 1
   1  0042              #pragma debug struct_end
   1  0042              #pragma debug struct_end
   1  0042              #pragma debug union_end
   1  0042              #pragma debug union_end
   1  0042              #pragma debug variable 53 1 ___tmrc "__tmrc" 1
   1  0042              #pragma debug variable 8 1 ___tktmr "__tktmr" 1
   1  0042              #pragma debug struct_end
   1  0042              #pragma debug struct_end
   1  0042              #pragma debug union_end
   1  0042              #pragma debug union_end
   1  0042              #pragma debug variable 55 1 ___tkc0 "__tkc0" 1
   1  0042              #pragma debug struct_end
   1  0042              #pragma debug struct_end
   1  0042              #pragma debug union_end
   1  0042              #pragma debug union_end
"File: RGB-2key.h    Assembler  Version HGASM0202      Page 43

   1  0042              #pragma debug variable 57 1 ___tkc1 "__tkc1" 1
   1  0042              #pragma debug variable 8 1 ___tkm016dl "__tkm016dl" 1
   1  0042              #pragma debug variable 8 1 ___tkm016dh "__tkm016dh" 1
   1  0042              #pragma debug variable 8 1 ___tkm0rol "__tkm0rol" 1
   1  0042              #pragma debug variable 8 1 ___tkm0roh "__tkm0roh" 1
   1  0042              #pragma debug struct_end
   1  0042              #pragma debug struct_end
   1  0042              #pragma debug union_end
   1  0042              #pragma debug union_end
   1  0042              #pragma debug variable 59 1 ___tkm0c0 "__tkm0c0" 1
   1  0042              #pragma debug struct_end
   1  0042              #pragma debug struct_end
   1  0042              #pragma debug union_end
   1  0042              #pragma debug union_end
   1  0042              #pragma debug variable 61 1 ___tkm0c1 "__tkm0c1" 1
   1  0042              extern r1:byte
   1  0042              extern r2:byte

  31  0042              #line 31 "E:\hamed\touch2\touch-rgb-2key\RGB-2key\RGB-2key.c"
  31  0000              @code .section at 0 'code'
  31  0000  2800     R  	jmp _main_startup1
  31  0001              
  31  0001              extern _builtin_holtek_mulsi3_2:byte
  31  0001              extern _builtin_holtek_mulsi3:near
  31  0001              extern _builtin_holtek_udivmodsi4_2:byte
  31  0001              extern _builtin_holtek_udivmodsi4:near
  31  0001              extern _builtin_holtek_divmodhi4:near
  31  0001              extern _builtin_holtek_udivmodhi4_2:byte
  31  0001              extern _builtin_holtek_udivmodhi4:near
  31  0001              
  31  0001              ; 
  31  0001              ; Generated by holtek-gcc v3.19, Tue Jul 30 15:52:21 2024
  31  0001              ; Rebuild 718
  31  0001              ; end of file


        0 Errors, 0