"File: touch-rgb.c   Assembler  Version HGASM0202      Page 1


   1  0000              ; Generated by holtek-gcc v3.19, Thu Aug 01 11:44:22 2024
   2  0000              ; 
   3  0000              ; Configuration:
   4  0000              ;       without long instruction
   5  0000              ;       Single ROM, Multi-RAM
   6  0000              ;       bits_per_rom_unit:16
   7  0000              ;       with mp1
   8  0000              ;       with tbhp, address(0x9)
   9  0000              ;          Use tabrd-const
  10  0000              ;       
  11  0000              ;       
  12  0000              ;       
  13  0000              ; use 'tabrdc' instead of 'tabrd'
  14  0000              ;       
  15  0000              
  16  0000              #pragma translator "holtek-gcc 4.6.4" "3.19" "build 20130711"
  17  0000              ; Rebuild 718
  18  0000              
  19  0000              ir equ [2]
  20  0000              mp equ [3]
  21  0000              sbp equ [1]
  22  0000              acc equ [5]
  23  0000              bp equ [4]
  24  0000              tblp equ [7]
  25  0000              tbhp equ [9]
  26  0000              status equ [10]
  27  0000              c equ [10].0
  28  0000              ac equ [10].1
  29  0000              z equ [10].2
  30  0000              ov equ [10].3
  31  0000              intc equ [11]
  32  0000              
  33  0000              extern ra:byte
  34  0000              extern rb:byte
  35  0000              extern rc:byte
  36  0000              extern rd:byte
  37  0000              extern re:byte
  38  0000              extern rf:byte
  39  0000              extern rg:byte
  40  0000              extern rh:byte
  41  0000              extern _Crom2Prom:near
  42  0000              extern _Crom2PromNext:near
  43  0000              
  44  0000              RAMBANK 0 @HCCINIT, @HCCINIT0
  45  0000              
  46  0000              RAMBANK 0 @BITDATASEC, @BITDATASEC1
  47  0000              @HCCINIT	.section 'data'
  48  0000              @HCCINIT0	.section 'data'
  49  0000              @BITDATASEC	 .section 'data'
  50  0000              @BITDATASEC1	 .section 'data'
  51  0000              
  52  0000              #pragma debug scope 1 1
  53  0000              	extern __DELAY3:near
  54  0000              	extern __DELAYX3:near
  55  0000              	extern __DELAYX6:near
  56  0000              	extern __DELAYY5:near
  57  0000              	extern __DELAYY3:near
  58  0000              	extern _builtin_holtek_delay_2:byte
  59  0000              public _delay_10us
"File: touch-rgb.ASM  Assembler  Version HGASM0202      Page 2

  60  0000              #pragma debug scope 2 1

  11  0000              #line 11 "E:\hamed\touch2\touch-rgb-1key\DELAY.h"
  11  0000              _delay_10us .section 'code'
  11  0000              _delay_10us proc
  11  0000              public _delay_10us_2
  11  0000  0004[           local _delay_10us_2 db 4 dup(?)	; 4,0
            00
            ]
  11  0004              #pragma debug variable 14 2 _delay_10us_2+0 "count_u"
  15  0004              #line 15 "E:\hamed\touch2\touch-rgb-1key\DELAY.h"
  15  0000  1F00     E  	clr rd
  15  0001  1F00     E  	clr re
  15  0002  1F00     E  	clr rf
  15  0003  1F00     E  	clr rg
  15  0004  2800     R  	jmp _L2
  15  0005              _L3:
  17  0005              #line 17 "E:\hamed\touch2\touch-rgb-1key\DELAY.h"
  17  0005              ;# 17 "E:\hamed\touch2\touch-rgb-1key\DELAY.h" 1
  17  0005  0001        	clr wdt
  18  0006              #line 18 "E:\hamed\touch2\touch-rgb-1key\DELAY.h"
  18  0006              ;# 18 "E:\hamed\touch2\touch-rgb-1key\DELAY.h" 1
  18  0006  0000        	nop
  19  0007              #line 19 "E:\hamed\touch2\touch-rgb-1key\DELAY.h"
  19  0007              ;# 19 "E:\hamed\touch2\touch-rgb-1key\DELAY.h" 1
  19  0007  0000        	nop
  20  0008              #line 20 "E:\hamed\touch2\touch-rgb-1key\DELAY.h"
  20  0008              ;# 20 "E:\hamed\touch2\touch-rgb-1key\DELAY.h" 1
  20  0008  0000        	nop
  21  0009              #line 21 "E:\hamed\touch2\touch-rgb-1key\DELAY.h"
  21  0009              ;# 21 "E:\hamed\touch2\touch-rgb-1key\DELAY.h" 1
  21  0009  0000        	nop
  15  000A              #line 15 "E:\hamed\touch2\touch-rgb-1key\DELAY.h"
  15  000A  0F01        	mov a,1
  15  000B  0380     E  	addm a,rd
  15  000C  0F00        	mov a,0
  15  000D  1380     E  	adcm a,re
  15  000E  1380     E  	adcm a,rf
  15  000F  1380     E  	adcm a,rg
  15  0010              _L2:
  15  0010  0700     E  	mov a,rd
  15  0011  0400     R  	xor a,_delay_10us_2[0]
  15  0012  0700     E  	mov a,re
  15  0013  3D0A        	sz z
  15  0014  0400     R  	xor a,_delay_10us_2[1]
  15  0015  0700     E  	mov a,rf
  15  0016  3D0A        	sz z
  15  0017  0400     R  	xor a,_delay_10us_2[2]
  15  0018  0700     E  	mov a,rg
  15  0019  3D0A        	sz z
  15  001A  0400     R  	xor a,_delay_10us_2[3]
  15  001B  390A        	snz z
  15  001C  2800     R  	jmp _L3
  15  001D  0003        	ret
  15  001E              _delay_10us endp
  15  001E              #line 15 "E:\hamed\touch2\touch-rgb-1key\DELAY.h"
  15  001E              #pragma debug scope 1 1
  15  001E              public _delay_us
  15  001E              #pragma debug scope 3 1
  28  001E              #line 28 "E:\hamed\touch2\touch-rgb-1key\DELAY.h"
"File: DELAY.h       Assembler  Version HGASM0202      Page 3

  28  0000              _delay_us .section 'code'
  28  0000              _delay_us proc
  28  0000              public _delay_us_2
  28  0000  0004[           local _delay_us_2 db 4 dup(?)	; 4,0
            00
            ]
  28  0004              #pragma debug variable 14 3 _delay_us_2+0 "count_u"
  32  0004              #line 32 "E:\hamed\touch2\touch-rgb-1key\DELAY.h"
  32  0000  1F00     E  	clr rd
  32  0001  1F00     E  	clr re
  32  0002  1F00     E  	clr rf
  32  0003  1F00     E  	clr rg
  32  0004  2800     R  	jmp _L6
  32  0005              _L7:
  34  0005              #line 34 "E:\hamed\touch2\touch-rgb-1key\DELAY.h"
  34  0005              ;# 34 "E:\hamed\touch2\touch-rgb-1key\DELAY.h" 1
  34  0005  0001        	clr wdt
  35  0006              #line 35 "E:\hamed\touch2\touch-rgb-1key\DELAY.h"
  35  0006              ;# 35 "E:\hamed\touch2\touch-rgb-1key\DELAY.h" 1
  35  0006  0000        	nop
  32  0007              #line 32 "E:\hamed\touch2\touch-rgb-1key\DELAY.h"
  32  0007  0F01        	mov a,1
  32  0008  0380     E  	addm a,rd
  32  0009  0F00        	mov a,0
  32  000A  1380     E  	adcm a,re
  32  000B  1380     E  	adcm a,rf
  32  000C  1380     E  	adcm a,rg
  32  000D              _L6:
  32  000D  0700     E  	mov a,rd
  32  000E  0400     R  	xor a,_delay_us_2[0]
  32  000F  0700     E  	mov a,re
  32  0010  3D0A        	sz z
  32  0011  0400     R  	xor a,_delay_us_2[1]
  32  0012  0700     E  	mov a,rf
  32  0013  3D0A        	sz z
  32  0014  0400     R  	xor a,_delay_us_2[2]
  32  0015  0700     E  	mov a,rg
  32  0016  3D0A        	sz z
  32  0017  0400     R  	xor a,_delay_us_2[3]
  32  0018  390A        	snz z
  32  0019  2800     R  	jmp _L7
  32  001A  0003        	ret
  32  001B              _delay_us endp
  32  001B              #line 32 "E:\hamed\touch2\touch-rgb-1key\DELAY.h"
  32  001B              #pragma debug scope 1 1
  32  001B              public _delay_ms
  32  001B              #pragma debug scope 4 1
  42  001B              #line 42 "E:\hamed\touch2\touch-rgb-1key\DELAY.h"
  42  0000              _delay_ms .section 'code'
  42  0000              _delay_ms proc
  42  0000              public _delay_ms_2
  42  0000  0008[           local _delay_ms_2 db 8 dup(?)	; 4,4
            00
            ]
  42  0008              #pragma debug variable 14 4 _delay_ms_2+0 "count_m"
  44  0008              #line 44 "E:\hamed\touch2\touch-rgb-1key\DELAY.h"
  44  0000  0700     R  	mov a,_delay_ms_2[0]
  44  0001  0080     E  	mov _builtin_holtek_mulsi3_2[0],a
  44  0002  0700     R  	mov a,_delay_ms_2[1]
  44  0003  0080     E  	mov _builtin_holtek_mulsi3_2[1],a
"File: DELAY.h       Assembler  Version HGASM0202      Page 4

  44  0004  0700     R  	mov a,_delay_ms_2[2]
  44  0005  0080     E  	mov _builtin_holtek_mulsi3_2[2],a
  44  0006  0700     R  	mov a,_delay_ms_2[3]
  44  0007  0080     E  	mov _builtin_holtek_mulsi3_2[3],a
  44  0008  0F64        	mov a,100
  44  0009  0080     E  	mov _builtin_holtek_mulsi3_2[4],a
  44  000A  0F00        	mov a,0
  44  000B  0080     E  	mov _builtin_holtek_mulsi3_2[5],a
  44  000C  0F00        	mov a,0
  44  000D  0080     E  	mov _builtin_holtek_mulsi3_2[6],a
  44  000E  0F00        	mov a,0
  44  000F  0080     E  	mov _builtin_holtek_mulsi3_2[7],a
  44  0010  2000     E  	call _builtin_holtek_mulsi3
  44  0011  0700     E  	mov a,_builtin_holtek_mulsi3_2[8]
  44  0012  0080     R  	mov _delay_ms_2[4],a
  44  0013  0700     E  	mov a,_builtin_holtek_mulsi3_2[9]
  44  0014  0080     R  	mov _delay_ms_2[5],a
  44  0015  0700     E  	mov a,_builtin_holtek_mulsi3_2[10]
  44  0016  0080     R  	mov _delay_ms_2[6],a
  44  0017  0700     E  	mov a,_builtin_holtek_mulsi3_2[11]
  44  0018  0080     R  	mov _delay_ms_2[7],a
  45  0019              #line 45 "E:\hamed\touch2\touch-rgb-1key\DELAY.h"
  45  0019  1F00     E  	clr rd
  45  001A  1F00     E  	clr re
  45  001B  1F00     E  	clr rf
  45  001C  1F00     E  	clr rg
  45  001D  2800     R  	jmp _L9
  45  001E              _L10:
  47  001E              #line 47 "E:\hamed\touch2\touch-rgb-1key\DELAY.h"
  47  001E              ;# 47 "E:\hamed\touch2\touch-rgb-1key\DELAY.h" 1
  47  001E  0001        	clr wdt
  48  001F              #line 48 "E:\hamed\touch2\touch-rgb-1key\DELAY.h"
  48  001F              ;# 48 "E:\hamed\touch2\touch-rgb-1key\DELAY.h" 1
  48  001F  0000        	nop
  49  0020              #line 49 "E:\hamed\touch2\touch-rgb-1key\DELAY.h"
  49  0020              ;# 49 "E:\hamed\touch2\touch-rgb-1key\DELAY.h" 1
  49  0020  0000        	nop
  50  0021              #line 50 "E:\hamed\touch2\touch-rgb-1key\DELAY.h"
  50  0021              ;# 50 "E:\hamed\touch2\touch-rgb-1key\DELAY.h" 1
  50  0021  0000        	nop
  51  0022              #line 51 "E:\hamed\touch2\touch-rgb-1key\DELAY.h"
  51  0022              ;# 51 "E:\hamed\touch2\touch-rgb-1key\DELAY.h" 1
  51  0022  0000        	nop
  45  0023              #line 45 "E:\hamed\touch2\touch-rgb-1key\DELAY.h"
  45  0023  0F01        	mov a,1
  45  0024  0380     E  	addm a,rd
  45  0025  0F00        	mov a,0
  45  0026  1380     E  	adcm a,re
  45  0027  1380     E  	adcm a,rf
  45  0028  1380     E  	adcm a,rg
  45  0029              _L9:
  45  0029  0700     E  	mov a,rd
  45  002A  0400     R  	xor a,_delay_ms_2[4]
  45  002B  0700     E  	mov a,re
  45  002C  3D0A        	sz z
  45  002D  0400     R  	xor a,_delay_ms_2[5]
  45  002E  0700     E  	mov a,rf
  45  002F  3D0A        	sz z
  45  0030  0400     R  	xor a,_delay_ms_2[6]
  45  0031  0700     E  	mov a,rg
"File: DELAY.h       Assembler  Version HGASM0202      Page 5

  45  0032  3D0A        	sz z
  45  0033  0400     R  	xor a,_delay_ms_2[7]
  45  0034  390A        	snz z
  45  0035  2800     R  	jmp _L10
  45  0036  0003        	ret
  45  0037              _delay_ms endp
  45  0037              #line 45 "E:\hamed\touch2\touch-rgb-1key\DELAY.h"
  45  0037              #pragma debug scope 1 1
  45  0037              ___intc0 equ [14]
  45  0037              ___tktmr equ [67]
  45  0037              ___tkc0 equ [68]
  45  0037              ___tkc1 equ [71]
  45  0037              ___tkm0c1 equ [77]
  45  0037              ___tkm0rol equ [74]
  45  0037              ___tkm0roh equ [75]
  45  0037              ___tkm0c0 equ [76]
  45  0037              public _TuochKeyInit
  45  0037              #pragma debug scope 5 1

  91  0037              #line 91 "E:\hamed\touch2\touch-rgb-1key\RGB.h"
  91  0000              _TuochKeyInit .section 'code'
  91  0000              _TuochKeyInit proc
  93  0000              #line 93 "E:\hamed\touch2\touch-rgb-1key\RGB.h"
  93  0000  350E        	clr [14].2
  94  0001              #line 94 "E:\hamed\touch2\touch-rgb-1key\RGB.h"
  94  0001  368E        	clr [14].5
  95  0002              #line 95 "E:\hamed\touch2\touch-rgb-1key\RGB.h"
  95  0002  1F43        	clr [67]
  96  0003              #line 96 "E:\hamed\touch2\touch-rgb-1key\RGB.h"
  96  0003  34C4        	clr [68].1
  96  0004  3444        	clr [68].0
  97  0005              #line 97 "E:\hamed\touch2\touch-rgb-1key\RGB.h"
  97  0005  30C7        	set [71].1
  97  0006  3047        	set [71].0
 100  0007              #line 100 "E:\hamed\touch2\touch-rgb-1key\RGB.h"
 100  0007  35CD        	clr [77].3
 100  0008  354D        	clr [77].2
 100  0009  30CD        	set [77].1
 100  000A  304D        	set [77].0
 101  000B              #line 101 "E:\hamed\touch2\touch-rgb-1key\RGB.h"
 101  000B  0FC8        	mov a,200
 101  000C  00CA        	mov [74],a
 101  000D  1F4B        	clr [75]
 102  000E              #line 102 "E:\hamed\touch2\touch-rgb-1key\RGB.h"
 102  000E  32CC        	set [76].5
 103  000F              #line 103 "E:\hamed\touch2\touch-rgb-1key\RGB.h"
 103  000F  324C        	set [76].4
 104  0010              #line 104 "E:\hamed\touch2\touch-rgb-1key\RGB.h"
 104  0010  35CC        	clr [76].3
 105  0011              #line 105 "E:\hamed\touch2\touch-rgb-1key\RGB.h"
 105  0011  314C        	set [76].2
 105  0012  30CC        	set [76].1
 105  0013  304C        	set [76].0
 106  0014              #line 106 "E:\hamed\touch2\touch-rgb-1key\RGB.h"
 106  0014  37CD        	clr [77].7
 107  0015              #line 107 "E:\hamed\touch2\touch-rgb-1key\RGB.h"
 107  0015  32CD        	set [77].5
 108  0016              #line 108 "E:\hamed\touch2\touch-rgb-1key\RGB.h"
 108  0016  324D        	set [77].4
 108  0017  0003        	ret
"File: RGB.h         Assembler  Version HGASM0202      Page 6

 108  0018              _TuochKeyInit endp
 108  0018              #line 108 "E:\hamed\touch2\touch-rgb-1key\RGB.h"
 108  0018              #pragma debug scope 1 1
 108  0018              ___pa equ [20]
 108  0018              public _Key_Touch
 108  0018              #pragma debug scope 6 1
 112  0018              #line 112 "E:\hamed\touch2\touch-rgb-1key\RGB.h"
 112  0000              _Key_Touch .section 'code'
 112  0000              _Key_Touch proc
 114  0000              #line 114 "E:\hamed\touch2\touch-rgb-1key\RGB.h"
 114  0000  0FCE        	mov a,206
 114  0001  0300     R  	add a,_Count_C1[0]
 114  0002  0080     E  	mov rd,a
 114  0003  0FFF        	mov a,255
 114  0004  1300     R  	adc a,_Count_C1[1]
 114  0005  0080     E  	mov re,a
 114  0006  0FFF        	mov a,255
 114  0007  1300     R  	adc a,_Count_C1[2]
 114  0008  0080     E  	mov rf,a
 114  0009  0FFF        	mov a,255
 114  000A  1300     R  	adc a,_Count_C1[3]
 114  000B  0080     E  	mov rg,a
 114  000C  0700     R  	mov a,_Count_S1[0]
 114  000D  0200     E  	sub a,rd
 114  000E  0700     R  	mov a,_Count_S1[1]
 114  000F  1200     E  	sbc a,re
 114  0010  1F05        	clr acc
 114  0011  1200     E  	sbc a,rf
 114  0012  1F05        	clr acc
 114  0013  1200     E  	sbc a,rg
 114  0014  3C0A        	sz c
 114  0015  2800     R  	jmp _L13
 116  0016              #line 116 "E:\hamed\touch2\touch-rgb-1key\RGB.h"
 116  0016  1480     R  	inc _Count_T1[0]
 116  0017  3D0A        	sz z
 116  0018  1480     R  	inc _Count_T1[1]
 118  0019              #line 118 "E:\hamed\touch2\touch-rgb-1key\RGB.h"
 118  0019  0FD0        	mov a,208
 118  001A  0200     R  	sub a,_Count_T1[0]
 118  001B  0F07        	mov a,7
 118  001C  1200     R  	sbc a,_Count_T1[1]
 118  001D  3C0A        	sz c
 118  001E  2800     R  	jmp _L14
 120  001F              #line 120 "E:\hamed\touch2\touch-rgb-1key\RGB.h"
 120  001F  1F00     R  	clr _rgbpals[0]
 120  0020  1F00     R  	clr _rgbpals[1]
 121  0021              #line 121 "E:\hamed\touch2\touch-rgb-1key\RGB.h"
 121  0021  0FD0        	mov a,-48
 121  0022  0080     R  	mov _Count_T1[0],a
 121  0023  0F07        	mov a,7
 121  0024  0080     R  	mov _Count_T1[1],a
 121  0025              _L14:
 124  0025              #line 124 "E:\hamed\touch2\touch-rgb-1key\RGB.h"
 124  0025  3800     R  	snz _Set
 124  0026  2800     R  	jmp _L15
 126  0027              #line 126 "E:\hamed\touch2\touch-rgb-1key\RGB.h"
 126  0027  0F2C        	mov a,44
 126  0028  0200     R  	sub a,_Count_T1[0]
 126  0029  0F01        	mov a,1
 126  002A  1200     R  	sbc a,_Count_T1[1]
"File: RGB.h         Assembler  Version HGASM0202      Page 7

 126  002B  3C0A        	sz c
 126  002C  2800     R  	jmp _L12
 126  002D  0700     R  	mov a,_rgbchange[0]
 126  002E  0500     R  	or a,_rgbchange[1]
 126  002F  390A        	snz z
 126  0030  2800     R  	jmp _L12
 126  0031  1080     R  	sz _Setinoff[0]
 126  0032  2800     R  	jmp _L12
 128  0033              #line 128 "E:\hamed\touch2\touch-rgb-1key\RGB.h"
 128  0033  0F01        	mov a,1
 128  0034  0080     R  	mov _rgbchange[0],a
 128  0035  1F00     R  	clr _rgbchange[1]
 129  0036              #line 129 "E:\hamed\touch2\touch-rgb-1key\RGB.h"
 129  0036  1F00     R  	clr _rgbauto[0]
 129  0037  1F00     R  	clr _rgbauto[1]
 130  0038              #line 130 "E:\hamed\touch2\touch-rgb-1key\RGB.h"
 130  0038  0FE8        	mov a,-24
 130  0039  0080     R  	mov _Count_T1[0],a
 130  003A  0F03        	mov a,3
 130  003B  0080     R  	mov _Count_T1[1],a
 132  003C              #line 132 "E:\hamed\touch2\touch-rgb-1key\RGB.h"
 132  003C  3214        	set [20].4
 133  003D              #line 133 "E:\hamed\touch2\touch-rgb-1key\RGB.h"
 133  003D  3194        	set [20].3
 134  003E              #line 134 "E:\hamed\touch2\touch-rgb-1key\RGB.h"
 134  003E  3114        	set [20].2
 136  003F              #line 136 "E:\hamed\touch2\touch-rgb-1key\RGB.h"
 136  003F  0F14        	mov a,20
 136  0040  0080     R  	mov _counterrgb[0],a
 136  0041  1F00     R  	clr _counterrgb[1]
 136  0042  2800     R  	jmp _L12
 136  0043              _L15:
 140  0043              #line 140 "E:\hamed\touch2\touch-rgb-1key\RGB.h"
 140  0043  0700     R  	mov a,_Count_T1[0]
 140  0044  0C3C        	xor a,60
 140  0045  0500     R  	or a,_Count_T1[1]
 140  0046  390A        	snz z
 140  0047  2800     R  	jmp _L12
 142  0048              #line 142 "E:\hamed\touch2\touch-rgb-1key\RGB.h"
 142  0048  3000     R  	set _Set
 145  0049              #line 145 "E:\hamed\touch2\touch-rgb-1key\RGB.h"
 145  0049  1F00     R  	clr _counterint[0]
 145  004A  1F00     R  	clr _counterint[1]
 146  004B              #line 146 "E:\hamed\touch2\touch-rgb-1key\RGB.h"
 146  004B  1480     R  	inc _rgbpals[0]
 146  004C  3D0A        	sz z
 146  004D  1480     R  	inc _rgbpals[1]
 148  004E              #line 148 "E:\hamed\touch2\touch-rgb-1key\RGB.h"
 148  004E  0F01        	mov a,1
 148  004F  0080     R  	mov _Setinoff[0],a
 150  0050              #line 150 "E:\hamed\touch2\touch-rgb-1key\RGB.h"
 150  0050  1F00     R  	clr _CalibrCount[0]
 151  0051              #line 151 "E:\hamed\touch2\touch-rgb-1key\RGB.h"
 151  0051  1F00     R  	clr _CalibrSample[0]
 152  0052              #line 152 "E:\hamed\touch2\touch-rgb-1key\RGB.h"
 152  0052  1F00     R  	clr _Count_C1_Backup[0]
 152  0053  1F00     R  	clr _Count_C1_Backup[1]
 152  0054  1F00     R  	clr _Count_C1_Backup[2]
 152  0055  1F00     R  	clr _Count_C1_Backup[3]
 152  0056  2800     R  	jmp _L12
"File: RGB.h         Assembler  Version HGASM0202      Page 8

 152  0057              _L13:
 162  0057              #line 162 "E:\hamed\touch2\touch-rgb-1key\RGB.h"
 162  0057  0FF6        	mov a,246
 162  0058  0300     R  	add a,_Count_C1[0]
 162  0059  0080     E  	mov rd,a
 162  005A  0FFF        	mov a,255
 162  005B  1300     R  	adc a,_Count_C1[1]
 162  005C  0080     E  	mov re,a
 162  005D  0FFF        	mov a,255
 162  005E  1300     R  	adc a,_Count_C1[2]
 162  005F  0080     E  	mov rf,a
 162  0060  0FFF        	mov a,255
 162  0061  1300     R  	adc a,_Count_C1[3]
 162  0062  0080     E  	mov rg,a
 162  0063  1080     E  	sz rg
 162  0064  2800     R  	jmp _L12
 162  0065  1080     E  	sz rf
 162  0066  2800     R  	jmp _L12
 162  0067  0700     E  	mov a,rd
 162  0068  0200     R  	sub a,_Count_S1[0]
 162  0069  0700     E  	mov a,re
 162  006A  1200     R  	sbc a,_Count_S1[1]
 162  006B  3C0A        	sz c
 162  006C  2800     R  	jmp _L12
 162  006D  3800     R  	snz _Set
 162  006E  2800     R  	jmp _L12
 165  006F              #line 165 "E:\hamed\touch2\touch-rgb-1key\RGB.h"
 165  006F  0F3B        	mov a,59
 165  0070  0200     R  	sub a,_Count_T1[0]
 165  0071  0F00        	mov a,0
 165  0072  1200     R  	sbc a,_Count_T1[1]
 165  0073  3C0A        	sz c
 165  0074  2800     R  	jmp _L19
 165  0075  0F68        	mov a,104
 165  0076  0200     R  	sub a,_Count_T1[0]
 165  0077  0F01        	mov a,1
 165  0078  1200     R  	sbc a,_Count_T1[1]
 165  0079  380A        	snz c
 165  007A  2800     R  	jmp _L19
 165  007B  0700     R  	mov a,_rgbchange[0]
 165  007C  0500     R  	or a,_rgbchange[1]
 165  007D  390A        	snz z
 165  007E  2800     R  	jmp _L19
 165  007F  1080     R  	sz _Setinoff[0]
 165  0080  2800     R  	jmp _L19
 167  0081              #line 167 "E:\hamed\touch2\touch-rgb-1key\RGB.h"
 167  0081  3400     R  	clr _Set
 169  0082              #line 169 "E:\hamed\touch2\touch-rgb-1key\RGB.h"
 169  0082  1F00     R  	clr _CalibrCount[0]
 170  0083              #line 170 "E:\hamed\touch2\touch-rgb-1key\RGB.h"
 170  0083  1F00     R  	clr _CalibrSample[0]
 171  0084              #line 171 "E:\hamed\touch2\touch-rgb-1key\RGB.h"
 171  0084  1F00     R  	clr _Count_C1_Backup[0]
 171  0085  1F00     R  	clr _Count_C1_Backup[1]
 171  0086  1F00     R  	clr _Count_C1_Backup[2]
 171  0087  1F00     R  	clr _Count_C1_Backup[3]
 173  0088              #line 173 "E:\hamed\touch2\touch-rgb-1key\RGB.h"
 173  0088  1F00     R  	clr _Count_T1[0]
 173  0089  1F00     R  	clr _Count_T1[1]
 173  008A  2800     R  	jmp _L20
"File: RGB.h         Assembler  Version HGASM0202      Page 9

 173  008B              _L19:
 175  008B              #line 175 "E:\hamed\touch2\touch-rgb-1key\RGB.h"
 175  008B  1F00     R  	clr _Count_T1[0]
 175  008C  1F00     R  	clr _Count_T1[1]
 175  008D  1F00     R  	clr _Setinoff[0]
 175  008E              _L20:
 177  008E              #line 177 "E:\hamed\touch2\touch-rgb-1key\RGB.h"
 177  008E  0F31        	mov a,49
 177  008F  0200     R  	sub a,_counterrgb[0]
 177  0090  0F00        	mov a,0
 177  0091  1200     R  	sbc a,_counterrgb[1]
 177  0092  1185        	swap acc
 177  0093  040A        	xor a,status
 177  0094  3985        	snz acc.3
 177  0095  2800     R  	jmp _L12
 177  0096  1F00     R  	clr _rgbchange[0]
 177  0097  1F00     R  	clr _rgbchange[1]
 177  0098              _L12:
 177  0098  0003        	ret
 177  0099              _Key_Touch endp
 177  0099              #line 177 "E:\hamed\touch2\touch-rgb-1key\RGB.h"
 177  0099              #pragma debug scope 1 1
 177  0099              ___tkm016dh equ [73]
 177  0099              ___tkm016dl equ [72]
 177  0099              public _CalibrTuoch
 177  0099              #pragma debug scope 7 1
 183  0099              #line 183 "E:\hamed\touch2\touch-rgb-1key\RGB.h"
 183  0000              _CalibrTuoch .section 'code'
 183  0000              _CalibrTuoch proc
 183  0000  0002[           local _CalibrTuoch_2 db 2 dup(?)	; 0,2
            00
            ]
 185  0002              #line 185 "E:\hamed\touch2\touch-rgb-1key\RGB.h"
 185  0000  36C4        	clr [68].5
 186  0001              #line 186 "E:\hamed\touch2\touch-rgb-1key\RGB.h"
 186  0001  37CC        	clr [76].7
 186  0002  374C        	clr [76].6
 186  0003  0FF4        	mov a,-12
 186  0004  0080     R  	mov _delay_10us_2[0],a
 186  0005  0F01        	mov a,1
 186  0006  0080     R  	mov _delay_10us_2[1],a
 186  0007  1F00     R  	clr _delay_10us_2[2]
 186  0008  1F00     R  	clr _delay_10us_2[3]
 186  0009  2000     R  	call _delay_10us
 187  000A              #line 187 "E:\hamed\touch2\touch-rgb-1key\RGB.h"
 187  000A              ;# 187 "E:\hamed\touch2\touch-rgb-1key\RGB.h" 1
 187  000A  0001        	clr wdt
 188  000B              #line 188 "E:\hamed\touch2\touch-rgb-1key\RGB.h"
 188  000B  1F00     R  	clr _i[0]
 188  000C              _L22:
 188  000C              #line 188 "E:\hamed\touch2\touch-rgb-1key\RGB.h"
 188  000C  0F13        	mov a,19
 188  000D  0200     R  	sub a,_i[0]
 188  000E  380A        	snz c
 188  000F  2800     R  	jmp _L26
 190  0010              #line 190 "E:\hamed\touch2\touch-rgb-1key\RGB.h"
 190  0010  32CD        	set [77].5
 191  0011              #line 191 "E:\hamed\touch2\touch-rgb-1key\RGB.h"
 191  0011  324D        	set [77].4
 192  0012              #line 192 "E:\hamed\touch2\touch-rgb-1key\RGB.h"
"File: RGB.h         Assembler  Version HGASM0202      Page 10

 192  0012  32C4        	set [68].5
 194  0013              #line 194 "E:\hamed\touch2\touch-rgb-1key\RGB.h"
 194  0013              ;# 194 "E:\hamed\touch2\touch-rgb-1key\RGB.h" 1
 194  0013  0001        	clr wdt
 194  0014              _L24:
 195  0014              #line 195 "E:\hamed\touch2\touch-rgb-1key\RGB.h"
 195  0014  3B44        	snz [68].6
 195  0015  2800     R  	jmp _L24
 196  0016              #line 196 "E:\hamed\touch2\touch-rgb-1key\RGB.h"
 196  0016  0749        	mov a,[73]
 196  0017  0080     R  	mov _CalibrTuoch_2[1],a
 196  0018  1F00     R  	clr _CalibrTuoch_2[0]
 196  0019  0700     R  	mov a,_CalibrTuoch_2[1]
 196  001A  0080     R  	mov _Count_S1[1],a
 196  001B  0748        	mov a,[72]
 196  001C  0500     R  	or a,_CalibrTuoch_2[0]
 196  001D  0080     R  	mov _Count_S1[0],a
 197  001E              #line 197 "E:\hamed\touch2\touch-rgb-1key\RGB.h"
 197  001E  0700     R  	mov a,_Count_S1[0]
 197  001F  0380     R  	addm a,_Count_C1[0]
 197  0020  0700     R  	mov a,_Count_S1[1]
 197  0021  1380     R  	adcm a,_Count_C1[1]
 197  0022  1F05        	clr acc
 197  0023  1380     R  	adcm a,_Count_C1[2]
 197  0024  1380     R  	adcm a,_Count_C1[3]
 198  0025              #line 198 "E:\hamed\touch2\touch-rgb-1key\RGB.h"
 198  0025  3744        	clr [68].6
 199  0026              #line 199 "E:\hamed\touch2\touch-rgb-1key\RGB.h"
 199  0026  36C4        	clr [68].5
 200  0027              #line 200 "E:\hamed\touch2\touch-rgb-1key\RGB.h"
 200  0027              ;# 200 "E:\hamed\touch2\touch-rgb-1key\RGB.h" 1
 200  0027  0001        	clr wdt
 201  0028              #line 201 "E:\hamed\touch2\touch-rgb-1key\RGB.h"
 201  0028  0F05        	mov a,5
 201  0029  0080     R  	mov _delay_ms_2[0],a
 201  002A  1F00     R  	clr _delay_ms_2[1]
 201  002B  1F00     R  	clr _delay_ms_2[2]
 201  002C  1F00     R  	clr _delay_ms_2[3]
 201  002D  2000     R  	call _delay_ms
 188  002E              #line 188 "E:\hamed\touch2\touch-rgb-1key\RGB.h"
 188  002E  1480     R  	inc _i[0]
 188  002F  2800     R  	jmp _L22
 188  0030              _L26:
 203  0030              #line 203 "E:\hamed\touch2\touch-rgb-1key\RGB.h"
 203  0030  1F00     E  	clr _builtin_holtek_udivmodsi4_2[12]
 203  0031  0700     R  	mov a,_Count_C1[0]  
 203  0032  0080     E  	mov _builtin_holtek_udivmodsi4_2[0],a  
 203  0033  0700     R  	mov a,_Count_C1[1]  
 203  0034  0080     E  	mov _builtin_holtek_udivmodsi4_2[1],a
 203  0035  0700     R  	mov a,_Count_C1[2]  
 203  0036  0080     E  	mov _builtin_holtek_udivmodsi4_2[2],a  
 203  0037  0700     R  	mov a,_Count_C1[3]  
 203  0038  0080     E  	mov _builtin_holtek_udivmodsi4_2[3],a
 203  0039  0F14        	mov a,20  
 203  003A  0080     E  	mov _builtin_holtek_udivmodsi4_2[4],a  
 203  003B  0F00        	mov a,0  
 203  003C  0080     E  	mov _builtin_holtek_udivmodsi4_2[5],a
 203  003D  1F00     E  	clr _builtin_holtek_udivmodsi4_2[6]
 203  003E  1F00     E  	clr _builtin_holtek_udivmodsi4_2[7]
 203  003F  2000     E  	call _builtin_holtek_udivmodsi4
"File: RGB.h         Assembler  Version HGASM0202      Page 11

 203  0040  0700     E  	mov a,_builtin_holtek_udivmodsi4_2[0]  
 203  0041  0080     R  	mov _Count_C1[0],a  
 203  0042  0700     E  	mov a,_builtin_holtek_udivmodsi4_2[1]  
 203  0043  0080     R  	mov _Count_C1[1],a
 203  0044  0700     E  	mov a,_builtin_holtek_udivmodsi4_2[2]  
 203  0045  0080     R  	mov _Count_C1[2],a  
 203  0046  0700     E  	mov a,_builtin_holtek_udivmodsi4_2[3]  
 203  0047  0080     R  	mov _Count_C1[3],a
 204  0048              #line 204 "E:\hamed\touch2\touch-rgb-1key\RGB.h"
 204  0048              ;# 204 "E:\hamed\touch2\touch-rgb-1key\RGB.h" 1
 204  0048  0001        	clr wdt
 204  0049  0003        	ret
 204  004A              _CalibrTuoch endp
 204  004A              #line 204 "E:\hamed\touch2\touch-rgb-1key\RGB.h"
 204  004A              #pragma debug scope 1 1
 204  004A              public _Key_Select
 204  004A              #pragma debug scope 8 1
 209  004A              #line 209 "E:\hamed\touch2\touch-rgb-1key\RGB.h"
 209  0000              _Key_Select .section 'code'
 209  0000              _Key_Select proc
 210  0000              #line 210 "E:\hamed\touch2\touch-rgb-1key\RGB.h"
 210  0000  32CD        	set [77].5
 211  0001              #line 211 "E:\hamed\touch2\touch-rgb-1key\RGB.h"
 211  0001  324D        	set [77].4
 212  0002              #line 212 "E:\hamed\touch2\touch-rgb-1key\RGB.h"
 212  0002  32C4        	set [68].5
 213  0003              #line 213 "E:\hamed\touch2\touch-rgb-1key\RGB.h"
 213  0003  37CC        	clr [76].7
 213  0004  374C        	clr [76].6
 213  0005              _L28:
 214  0005              #line 214 "E:\hamed\touch2\touch-rgb-1key\RGB.h"
 214  0005  3F44        	sz [68].6
 214  0006  2800     R  	jmp _L34
 214  0007              ;# 214 "E:\hamed\touch2\touch-rgb-1key\RGB.h" 1
 214  0007  0000        	nop
 214  0008  2800     R  	jmp _L28
 214  0009              _L34:
 215  0009              #line 215 "E:\hamed\touch2\touch-rgb-1key\RGB.h"
 215  0009  0749        	mov a,[73]
 215  000A  0080     E  	mov rc,a
 215  000B  1F00     E  	clr rb
 215  000C  0700     E  	mov a,rc
 215  000D  0080     R  	mov _Count_S1[1],a
 215  000E  0748        	mov a,[72]
 215  000F  0500     E  	or a,rb
 215  0010  0080     R  	mov _Count_S1[0],a
 216  0011              #line 216 "E:\hamed\touch2\touch-rgb-1key\RGB.h"
 216  0011  0700     R  	mov a,_rgbchange[0]
 216  0012  0500     R  	or a,_rgbchange[1]
 216  0013  390A        	snz z
 216  0014  2800     R  	jmp _L30
 216  0015  1480     R  	inc _CalibrCount[0]
 216  0016              _L30:
 217  0016              #line 217 "E:\hamed\touch2\touch-rgb-1key\RGB.h"
 217  0016  0F64        	mov a,100
 217  0017  0200     R  	sub a,_CalibrCount[0]
 217  0018  3C0A        	sz c
 217  0019  2800     R  	jmp _L32
 219  001A              #line 219 "E:\hamed\touch2\touch-rgb-1key\RGB.h"
 219  001A  1F00     R  	clr _CalibrCount[0]
"File: RGB.h         Assembler  Version HGASM0202      Page 12

 220  001B              #line 220 "E:\hamed\touch2\touch-rgb-1key\RGB.h"
 220  001B  0700     R  	mov a,_Count_S1[0]
 220  001C  0380     R  	addm a,_Count_C1_Backup[0]
 220  001D  0700     R  	mov a,_Count_S1[1]
 220  001E  1380     R  	adcm a,_Count_C1_Backup[1]
 220  001F  1F05        	clr acc
 220  0020  1380     R  	adcm a,_Count_C1_Backup[2]
 220  0021  1380     R  	adcm a,_Count_C1_Backup[3]
 221  0022              #line 221 "E:\hamed\touch2\touch-rgb-1key\RGB.h"
 221  0022  1480     R  	inc _CalibrSample[0]
 222  0023              #line 222 "E:\hamed\touch2\touch-rgb-1key\RGB.h"
 222  0023  0F13        	mov a,19
 222  0024  0200     R  	sub a,_CalibrSample[0]
 222  0025  3C0A        	sz c
 222  0026  2800     R  	jmp _L32
 224  0027              #line 224 "E:\hamed\touch2\touch-rgb-1key\RGB.h"
 224  0027  1F00     R  	clr _CalibrSample[0]
 225  0028              #line 225 "E:\hamed\touch2\touch-rgb-1key\RGB.h"
 225  0028  1F00     E  	clr _builtin_holtek_udivmodsi4_2[12]
 225  0029  0700     R  	mov a,_Count_C1_Backup[0]  
 225  002A  0080     E  	mov _builtin_holtek_udivmodsi4_2[0],a  
 225  002B  0700     R  	mov a,_Count_C1_Backup[1]  
 225  002C  0080     E  	mov _builtin_holtek_udivmodsi4_2[1],a
 225  002D  0700     R  	mov a,_Count_C1_Backup[2]  
 225  002E  0080     E  	mov _builtin_holtek_udivmodsi4_2[2],a  
 225  002F  0700     R  	mov a,_Count_C1_Backup[3]  
 225  0030  0080     E  	mov _builtin_holtek_udivmodsi4_2[3],a
 225  0031  0F14        	mov a,20  
 225  0032  0080     E  	mov _builtin_holtek_udivmodsi4_2[4],a  
 225  0033  0F00        	mov a,0  
 225  0034  0080     E  	mov _builtin_holtek_udivmodsi4_2[5],a
 225  0035  1F00     E  	clr _builtin_holtek_udivmodsi4_2[6]
 225  0036  1F00     E  	clr _builtin_holtek_udivmodsi4_2[7]
 225  0037  2000     E  	call _builtin_holtek_udivmodsi4
 225  0038  0700     E  	mov a,_builtin_holtek_udivmodsi4_2[0]  
 225  0039  0080     R  	mov _Count_C1[0],a  
 225  003A  0700     E  	mov a,_builtin_holtek_udivmodsi4_2[1]  
 225  003B  0080     R  	mov _Count_C1[1],a
 225  003C  0700     E  	mov a,_builtin_holtek_udivmodsi4_2[2]  
 225  003D  0080     R  	mov _Count_C1[2],a  
 225  003E  0700     E  	mov a,_builtin_holtek_udivmodsi4_2[3]  
 225  003F  0080     R  	mov _Count_C1[3],a
 226  0040              #line 226 "E:\hamed\touch2\touch-rgb-1key\RGB.h"
 226  0040  1F00     R  	clr _Count_C1_Backup[0]
 226  0041  1F00     R  	clr _Count_C1_Backup[1]
 226  0042  1F00     R  	clr _Count_C1_Backup[2]
 226  0043  1F00     R  	clr _Count_C1_Backup[3]
 226  0044              _L32:
 230  0044              #line 230 "E:\hamed\touch2\touch-rgb-1key\RGB.h"
 230  0044  3744        	clr [68].6
 231  0045              #line 231 "E:\hamed\touch2\touch-rgb-1key\RGB.h"
 231  0045  36C4        	clr [68].5
 231  0046  0003        	ret
 231  0047              _Key_Select endp
 231  0047              #line 231 "E:\hamed\touch2\touch-rgb-1key\RGB.h"
 231  0047              #pragma debug scope 1 1
 231  0047              public _TOUCH_ISR
 231  0047              #pragma debug scope 9 1
 237  0047              #line 237 "E:\hamed\touch2\touch-rgb-1key\RGB.h"
 237  0000              @TOUCH_ISR_code .section at 40 'code'
"File: RGB.h         Assembler  Version HGASM0202      Page 13

 237  0000              _TOUCH_ISR:
 237  0000  0004        	reti
 237  0001              #line 237 "E:\hamed\touch2\touch-rgb-1key\RGB.h"
 237  0001              #pragma debug scope 1 1
 237  0001              public _int0
 237  0001              #pragma debug scope 10 1
 243  0001              #line 243 "E:\hamed\touch2\touch-rgb-1key\RGB.h"
 243  0000              @int0_code .section at 4 'code'
 243  0000  0080     E  	mov r1,a
 243  0001  070A        	mov a,status
 243  0002  0080     E  	mov r2,a
 243  0003  2800     R  	jmp _int0
 243  0004              #pragma debug scope 1 1
 243  0004              @dummy4 endp
 243  0004              #pragma debug scope 11 1
 243  0000              _int0 .section 'code'
 243  0000              _int0 proc
 245  0000              #line 245 "E:\hamed\touch2\touch-rgb-1key\RGB.h"
 245  0000  1480     R  	inc _counterint[0]
 245  0001  3D0A        	sz z
 245  0002  1480     R  	inc _counterint[1]
 246  0003              #line 246 "E:\hamed\touch2\touch-rgb-1key\RGB.h"
 246  0003  0FE7        	mov a,231
 246  0004  0200     R  	sub a,_counterint[0]
 246  0005  0F03        	mov a,3
 246  0006  1200     R  	sbc a,_counterint[1]
 246  0007  1185        	swap acc
 246  0008  040A        	xor a,status
 246  0009  3985        	snz acc.3
 246  000A  2800     R  	jmp _L37
 246  000B              #line 246 "E:\hamed\touch2\touch-rgb-1key\RGB.h"
 246  000B  0FE8        	mov a,-24
 246  000C  0080     R  	mov _counterint[0],a
 246  000D  0F03        	mov a,3
 246  000E  0080     R  	mov _counterint[1],a
 246  000F              _L37:
 247  000F              #line 247 "E:\hamed\touch2\touch-rgb-1key\RGB.h"
 247  000F  0FC7        	mov a,199
 247  0010  0200     R  	sub a,_counterint[0]
 247  0011  0F00        	mov a,0
 247  0012  1200     R  	sbc a,_counterint[1]
 247  0013  1185        	swap acc
 247  0014  040A        	xor a,status
 247  0015  3985        	snz acc.3
 247  0016  2800     R  	jmp _L38
 247  0017  1F00     R  	clr _rgbpals[0]
 247  0018  1F00     R  	clr _rgbpals[1]
 247  0019              _L38:
 250  0019              #line 250 "E:\hamed\touch2\touch-rgb-1key\RGB.h"
 250  0019  0F02        	mov a,2
 250  001A  0200     R  	sub a,_rgbpals[0]
 250  001B  0F00        	mov a,0
 250  001C  1200     R  	sbc a,_rgbpals[1]
 250  001D  1185        	swap acc
 250  001E  040A        	xor a,status
 250  001F  3985        	snz acc.3
 250  0020  2800     R  	jmp _L39
 250  0021  0700     R  	mov a,_rgbauto[0]
 250  0022  0500     R  	or a,_rgbauto[1]
 250  0023  390A        	snz z
"File: RGB.h         Assembler  Version HGASM0202      Page 14

 250  0024  2800     R  	jmp _L39
 250  0025  3800     R  	snz _Set
 250  0026  2800     R  	jmp _L39
 251  0027              #line 251 "E:\hamed\touch2\touch-rgb-1key\RGB.h"
 251  0027  1F00     R  	clr _rgbpals[0]
 251  0028  1F00     R  	clr _rgbpals[1]
 252  0029              #line 252 "E:\hamed\touch2\touch-rgb-1key\RGB.h"
 252  0029  0F01        	mov a,1
 252  002A  0080     R  	mov _rgbauto[0],a
 252  002B  1F00     R  	clr _rgbauto[1]
 253  002C              #line 253 "E:\hamed\touch2\touch-rgb-1key\RGB.h"
 253  002C  3214        	set [20].4
 254  002D              #line 254 "E:\hamed\touch2\touch-rgb-1key\RGB.h"
 254  002D  3194        	set [20].3
 255  002E              #line 255 "E:\hamed\touch2\touch-rgb-1key\RGB.h"
 255  002E  3114        	set [20].2
 257  002F              #line 257 "E:\hamed\touch2\touch-rgb-1key\RGB.h"
 257  002F  1F00     R  	clr _counterrgb[0]
 257  0030  1F00     R  	clr _counterrgb[1]
 257  0031              _L39:
 262  0031              #line 262 "E:\hamed\touch2\touch-rgb-1key\RGB.h"
 262  0031  0700     R  	mov a,_rgbauto[0]
 262  0032  0500     R  	or a,_rgbauto[1]
 262  0033  390A        	snz z
 262  0034  2800     R  	jmp _L40
 262  0035  0700     R  	mov a,_rgbchange[0]
 262  0036  0500     R  	or a,_rgbchange[1]
 262  0037  3D0A        	sz z
 262  0038  2800     R  	jmp _L41
 262  0039              _L40:
 262  0039  1480     R  	inc _counterrgb[0]
 262  003A  3D0A        	sz z
 262  003B  1480     R  	inc _counterrgb[1]
 262  003C              _L41:
 263  003C              #line 263 "E:\hamed\touch2\touch-rgb-1key\RGB.h"
 263  003C  0F1F        	mov a,31
 263  003D  0200     R  	sub a,_counterrgb[0]
 263  003E  0F4E        	mov a,78
 263  003F  1200     R  	sbc a,_counterrgb[1]
 263  0040  1185        	swap acc
 263  0041  040A        	xor a,status
 263  0042  3985        	snz acc.3
 263  0043  2800     R  	jmp _L42
 263  0044  0F20        	mov a,32
 263  0045  0080     R  	mov _counterrgb[0],a
 263  0046  0F4E        	mov a,78
 263  0047  0080     R  	mov _counterrgb[1],a
 263  0048              _L42:
 266  0048              #line 266 "E:\hamed\touch2\touch-rgb-1key\RGB.h"
 266  0048  0700     R  	mov a,_counter1[0]
 266  0049  0080     R  	mov _ncount[0],a
 266  004A  0700     R  	mov a,_counter1[1]
 266  004B  0080     R  	mov _ncount[1],a
 268  004C              #line 268 "E:\hamed\touch2\touch-rgb-1key\RGB.h"
 268  004C  1F00     R  	clr _counter1[0]
 268  004D  1F00     R  	clr _counter1[1]
 270  004E              #line 270 "E:\hamed\touch2\touch-rgb-1key\RGB.h"
 270  004E  0700     R  	mov a,_rgbchange[0]
 270  004F  0500     R  	or a,_rgbchange[1]
 270  0050  390A        	snz z
"File: RGB.h         Assembler  Version HGASM0202      Page 15

 270  0051  2800     R  	jmp _L43
 270  0052  0700     R  	mov a,_rgbauto[0]
 270  0053  0500     R  	or a,_rgbauto[1]
 270  0054  3D0A        	sz z
 270  0055  2800     R  	jmp _L44
 270  0056              _L43:
 270  0056  3800     R  	snz _Set
 270  0057  2800     R  	jmp _L44
 270  0058  0F31        	mov a,49
 270  0059  0200     R  	sub a,_counterrgb[0]
 270  005A  0F00        	mov a,0
 270  005B  1200     R  	sbc a,_counterrgb[1]
 270  005C  1185        	swap acc
 270  005D  040A        	xor a,status
 270  005E  3985        	snz acc.3
 270  005F  2800     R  	jmp _L44
 272  0060              #line 272 "E:\hamed\touch2\touch-rgb-1key\RGB.h"
 272  0060  0700     R  	mov a,_rgbchange[0]
 272  0061  0C01        	xor a,1
 272  0062  0500     R  	or a,_rgbchange[1]
 272  0063  390A        	snz z
 272  0064  2800     R  	jmp _L46
 272  0065  1480     R  	inc _rgb1[0]
 272  0066  3D0A        	sz z
 272  0067  1480     R  	inc _rgb1[1]
 272  0068              _L46:
 273  0068              #line 273 "E:\hamed\touch2\touch-rgb-1key\RGB.h"
 273  0068  0700     R  	mov a,_rgbauto[0]
 273  0069  0C01        	xor a,1
 273  006A  0500     R  	or a,_rgbauto[1]
 273  006B  390A        	snz z
 273  006C  2800     R  	jmp _L47
 273  006D  1480     R  	inc _rgb2[0]
 273  006E  3D0A        	sz z
 273  006F  1480     R  	inc _rgb2[1]
 273  0070              _L47:
 275  0070              #line 275 "E:\hamed\touch2\touch-rgb-1key\RGB.h"
 275  0070  0F02        	mov a,2
 275  0071  0200     R  	sub a,_rgb1[0]
 275  0072  0F00        	mov a,0
 275  0073  1200     R  	sbc a,_rgb1[1]
 275  0074  1185        	swap acc
 275  0075  040A        	xor a,status
 275  0076  3D85        	sz acc.3
 275  0077  2800     R  	jmp _L48
 275  0078  0F08        	mov a,8
 275  0079  0200     R  	sub a,_rgb2[0]
 275  007A  0F00        	mov a,0
 275  007B  1200     R  	sbc a,_rgb2[1]
 275  007C  1185        	swap acc
 275  007D  040A        	xor a,status
 275  007E  3985        	snz acc.3
 275  007F  2800     R  	jmp _L44
 275  0080              _L48:
 277  0080              #line 277 "E:\hamed\touch2\touch-rgb-1key\RGB.h"
 277  0080  1F00     R  	clr _rgb1[0]
 277  0081  1F00     R  	clr _rgb1[1]
 278  0082              #line 278 "E:\hamed\touch2\touch-rgb-1key\RGB.h"
 278  0082  1F00     R  	clr _rgb2[0]
 278  0083  1F00     R  	clr _rgb2[1]
"File: RGB.h         Assembler  Version HGASM0202      Page 16

 280  0084              #line 280 "E:\hamed\touch2\touch-rgb-1key\RGB.h"
 280  0084  0700     R  	mov a,_G[0]
 280  0085  0400     R  	xor a,_nsicl[0]
 280  0086  0700     R  	mov a,_G[1]
 280  0087  3D0A        	sz z
 280  0088  0400     R  	xor a,_nsicl[1]
 280  0089  390A        	snz z
 280  008A  2800     R  	jmp _L49
 281  008B              #line 281 "E:\hamed\touch2\touch-rgb-1key\RGB.h"
 281  008B  0FFF        	mov a,255
 281  008C  0380     R  	addm a,_R[0]
 281  008D  0FFF        	mov a,255
 281  008E  1380     R  	adcm a,_R[1]
 282  008F              #line 282 "E:\hamed\touch2\touch-rgb-1key\RGB.h"
 282  008F  0700     R  	mov a,_nsicl[0]
 282  0090  0200     R  	sub a,_R[0]
 282  0091  0080     E  	mov ra,a
 282  0092  0700     R  	mov a,_nsicl[1]
 282  0093  1200     R  	sbc a,_R[1]
 282  0094  0080     E  	mov rb,a
 282  0095  0700     E  	mov a,ra
 282  0096  0080     R  	mov _B[0],a
 282  0097  0700     E  	mov a,rb
 282  0098  0080     R  	mov _B[1],a
 282  0099              _L49:
 284  0099              #line 284 "E:\hamed\touch2\touch-rgb-1key\RGB.h"
 284  0099  0700     R  	mov a,_R[0]
 284  009A  0400     R  	xor a,_nsicl[0]
 284  009B  0700     R  	mov a,_R[1]
 284  009C  3D0A        	sz z
 284  009D  0400     R  	xor a,_nsicl[1]
 284  009E  390A        	snz z
 284  009F  2800     R  	jmp _L50
 285  00A0              #line 285 "E:\hamed\touch2\touch-rgb-1key\RGB.h"
 285  00A0  0FFF        	mov a,255
 285  00A1  0380     R  	addm a,_B[0]
 285  00A2  0FFF        	mov a,255
 285  00A3  1380     R  	adcm a,_B[1]
 286  00A4              #line 286 "E:\hamed\touch2\touch-rgb-1key\RGB.h"
 286  00A4  0700     R  	mov a,_nsicl[0]
 286  00A5  0200     R  	sub a,_B[0]
 286  00A6  0080     E  	mov ra,a
 286  00A7  0700     R  	mov a,_nsicl[1]
 286  00A8  1200     R  	sbc a,_B[1]
 286  00A9  0080     E  	mov rb,a
 286  00AA  0700     E  	mov a,ra
 286  00AB  0080     R  	mov _G[0],a
 286  00AC  0700     E  	mov a,rb
 286  00AD  0080     R  	mov _G[1],a
 286  00AE              _L50:
 288  00AE              #line 288 "E:\hamed\touch2\touch-rgb-1key\RGB.h"
 288  00AE  0700     R  	mov a,_B[0]
 288  00AF  0400     R  	xor a,_nsicl[0]
 288  00B0  0700     R  	mov a,_B[1]
 288  00B1  3D0A        	sz z
 288  00B2  0400     R  	xor a,_nsicl[1]
 288  00B3  390A        	snz z
 288  00B4  2800     R  	jmp _L44
 289  00B5              #line 289 "E:\hamed\touch2\touch-rgb-1key\RGB.h"
 289  00B5  0FFF        	mov a,255
"File: RGB.h         Assembler  Version HGASM0202      Page 17

 289  00B6  0380     R  	addm a,_G[0]
 289  00B7  0FFF        	mov a,255
 289  00B8  1380     R  	adcm a,_G[1]
 290  00B9              #line 290 "E:\hamed\touch2\touch-rgb-1key\RGB.h"
 290  00B9  0700     R  	mov a,_nsicl[0]
 290  00BA  0200     R  	sub a,_G[0]
 290  00BB  0080     E  	mov ra,a
 290  00BC  0700     R  	mov a,_nsicl[1]
 290  00BD  1200     R  	sbc a,_G[1]
 290  00BE  0080     E  	mov rb,a
 290  00BF  0700     E  	mov a,ra
 290  00C0  0080     R  	mov _R[0],a
 290  00C1  0700     E  	mov a,rb
 290  00C2  0080     R  	mov _R[1],a
 290  00C3              _L44:
 295  00C3              #line 295 "E:\hamed\touch2\touch-rgb-1key\RGB.h"
 295  00C3  3800     R  	snz _Set
 295  00C4  2800     R  	jmp _L51
 295  00C5  0F31        	mov a,49
 295  00C6  0200     R  	sub a,_counterrgb[0]
 295  00C7  0F00        	mov a,0
 295  00C8  1200     R  	sbc a,_counterrgb[1]
 295  00C9  1185        	swap acc
 295  00CA  040A        	xor a,status
 295  00CB  3985        	snz acc.3
 295  00CC  2800     R  	jmp _L51
 297  00CD              #line 297 "E:\hamed\touch2\touch-rgb-1key\RGB.h"
 297  00CD  0FFF        	mov a,255
 297  00CE  0380     R  	addm a,_counter3[0]
 297  00CF  0FFF        	mov a,255
 297  00D0  1380     R  	adcm a,_counter3[1]
 299  00D1              #line 299 "E:\hamed\touch2\touch-rgb-1key\RGB.h"
 299  00D1  3800     R  	snz _counter3[1].7
 299  00D2  2800     R  	jmp _L52
 300  00D3              #line 300 "E:\hamed\touch2\touch-rgb-1key\RGB.h"
 300  00D3  1F80     R  	set _counter3[0]
 300  00D4  1F80     R  	set _counter3[1]
 302  00D5              #line 302 "E:\hamed\touch2\touch-rgb-1key\RGB.h"
 302  00D5  3C00     R  	sz _R[1].7
 302  00D6  2800     R  	jmp _LI1
 302  00D7  0700     R  	mov a,_R[0]
 302  00D8  0500     R  	or a,_R[1]
 302  00D9  390A        	snz z
 302  00DA  2800     R  	jmp _L53
 302  00DB              _LI1:
 303  00DB              #line 303 "E:\hamed\touch2\touch-rgb-1key\RGB.h"
 303  00DB  3214        	set [20].4
 303  00DC  2800     R  	jmp _L54
 303  00DD              _L53:
 304  00DD              #line 304 "E:\hamed\touch2\touch-rgb-1key\RGB.h"
 304  00DD  3614        	clr [20].4
 304  00DE  3614        	clr [20].4
 304  00DF  3614        	clr [20].4
 304  00E0  3614        	clr [20].4
 304  00E1              _L54:
 305  00E1              #line 305 "E:\hamed\touch2\touch-rgb-1key\RGB.h"
 305  00E1  3C00     R  	sz _G[1].7
 305  00E2  2800     R  	jmp _LI2
 305  00E3  0700     R  	mov a,_G[0]
 305  00E4  0500     R  	or a,_G[1]
"File: RGB.h         Assembler  Version HGASM0202      Page 18

 305  00E5  390A        	snz z
 305  00E6  2800     R  	jmp _L55
 305  00E7              _LI2:
 306  00E7              #line 306 "E:\hamed\touch2\touch-rgb-1key\RGB.h"
 306  00E7  3194        	set [20].3
 306  00E8  2800     R  	jmp _L56
 306  00E9              _L55:
 307  00E9              #line 307 "E:\hamed\touch2\touch-rgb-1key\RGB.h"
 307  00E9  3594        	clr [20].3
 307  00EA  3594        	clr [20].3
 307  00EB  3594        	clr [20].3
 307  00EC  3594        	clr [20].3
 307  00ED              _L56:
 308  00ED              #line 308 "E:\hamed\touch2\touch-rgb-1key\RGB.h"
 308  00ED  3C00     R  	sz _B[1].7
 308  00EE  2800     R  	jmp _LI3
 308  00EF  0700     R  	mov a,_B[0]
 308  00F0  0500     R  	or a,_B[1]
 308  00F1  390A        	snz z
 308  00F2  2800     R  	jmp _L57
 308  00F3              _LI3:
 309  00F3              #line 309 "E:\hamed\touch2\touch-rgb-1key\RGB.h"
 309  00F3  3114        	set [20].2
 309  00F4  2800     R  	jmp _L51
 309  00F5              _L57:
 310  00F5              #line 310 "E:\hamed\touch2\touch-rgb-1key\RGB.h"
 310  00F5  3514        	clr [20].2
 310  00F6  3514        	clr [20].2
 310  00F7  3514        	clr [20].2
 310  00F8  2800     R  	jmp _L64
 310  00F9              _L52:
 313  00F9              #line 313 "E:\hamed\touch2\touch-rgb-1key\RGB.h"
 313  00F9  3614        	clr [20].4
 314  00FA              #line 314 "E:\hamed\touch2\touch-rgb-1key\RGB.h"
 314  00FA  3594        	clr [20].3
 314  00FB              _L64:
 315  00FB              #line 315 "E:\hamed\touch2\touch-rgb-1key\RGB.h"
 315  00FB  3514        	clr [20].2
 315  00FC              _L51:
 320  00FC              #line 320 "E:\hamed\touch2\touch-rgb-1key\RGB.h"
 320  00FC  3C00     R  	sz _Set
 320  00FD  2800     R  	jmp _L36
 320  00FE  0F31        	mov a,49
 320  00FF  0200     R  	sub a,_counterrgb[0]
 320  0100  0F00        	mov a,0
 320  0101  1200     R  	sbc a,_counterrgb[1]
 320  0102  1185        	swap acc
 320  0103  040A        	xor a,status
 320  0104  3985        	snz acc.3
 320  0105  2800     R  	jmp _L36
 321  0106              #line 321 "E:\hamed\touch2\touch-rgb-1key\RGB.h"
 321  0106  3614        	clr [20].4
 321  0107  3614        	clr [20].4
 321  0108  3614        	clr [20].4
 321  0109  3614        	clr [20].4
 322  010A              #line 322 "E:\hamed\touch2\touch-rgb-1key\RGB.h"
 322  010A  3594        	clr [20].3
 322  010B  3594        	clr [20].3
 322  010C  3594        	clr [20].3
 322  010D  3594        	clr [20].3
"File: RGB.h         Assembler  Version HGASM0202      Page 19

 323  010E              #line 323 "E:\hamed\touch2\touch-rgb-1key\RGB.h"
 323  010E  3514        	clr [20].2
 323  010F  3514        	clr [20].2
 323  0110  3514        	clr [20].2
 323  0111  3514        	clr [20].2
 324  0112              #line 324 "E:\hamed\touch2\touch-rgb-1key\RGB.h"
 324  0112  0F50        	mov a,80
 324  0113  0200     R  	sub a,_counter2[0]
 324  0114  0F00        	mov a,0
 324  0115  1200     R  	sbc a,_counter2[1]
 324  0116  1185        	swap acc
 324  0117  040A        	xor a,status
 324  0118  3D85        	sz acc.3
 324  0119  2800     R  	jmp _L36
 325  011A              #line 325 "E:\hamed\touch2\touch-rgb-1key\RGB.h"
 325  011A  0F02        	mov a,2
 325  011B  0380     R  	addm a,_counter2[0]
 325  011C  0F00        	mov a,0
 325  011D  1380     R  	adcm a,_counter2[1]
 325  011E              _L36:
 325  011E  0700     E  	mov a,r2
 325  011F  008A        	mov status,a
 325  0120  0700     E  	mov a,r1
 325  0121  0004        	reti
 325  0122              _int0 endp
 325  0122              
 325  0122              #line 325 "E:\hamed\touch2\touch-rgb-1key\RGB.h"
 325  0122              #pragma debug scope 1 1
 325  0122              public _timer
 325  0122              #pragma debug scope 12 1
 341  0122              #line 341 "E:\hamed\touch2\touch-rgb-1key\RGB.h"
 341  0000              @timer_code .section at 12 'code'
 341  0000  0080     E  	mov r1,a
 341  0001  070A        	mov a,status
 341  0002  0080     E  	mov r2,a
 341  0003  2800     R  	jmp _timer
 341  0004              #pragma debug scope 1 1
 341  0004              @dummy12 endp
 341  0004              #pragma debug scope 13 1
 341  0000              _timer .section 'code'
 341  0000              _timer proc
 343  0000              #line 343 "E:\hamed\touch2\touch-rgb-1key\RGB.h"
 343  0000  1480     R  	inc _counter1[0]
 343  0001  3D0A        	sz z
 343  0002  1480     R  	inc _counter1[1]
 347  0003              #line 347 "E:\hamed\touch2\touch-rgb-1key\RGB.h"
 347  0003  3800     R  	snz _Set
 347  0004  2800     R  	jmp _L66
 347  0005              #line 347 "E:\hamed\touch2\touch-rgb-1key\RGB.h"
 347  0005  0F31        	mov a,49
 347  0006  0200     R  	sub a,_counterrgb[0]
 347  0007  0F00        	mov a,0
 347  0008  1200     R  	sbc a,_counterrgb[1]
 347  0009  1185        	swap acc
 347  000A  040A        	xor a,status
 347  000B  3985        	snz acc.3
 347  000C  2800     R  	jmp _L66
 349  000D              #line 349 "E:\hamed\touch2\touch-rgb-1key\RGB.h"
 349  000D  0700     R  	mov a,_counter1[0]
 349  000E  0200     R  	sub a,_counter3[0]
"File: RGB.h         Assembler  Version HGASM0202      Page 20

 349  000F  0700     R  	mov a,_counter1[1]
 349  0010  1200     R  	sbc a,_counter3[1]
 349  0011  1185        	swap acc
 349  0012  040A        	xor a,status
 349  0013  3D85        	sz acc.3
 349  0014  2800     R  	jmp _L67
 350  0015              #line 350 "E:\hamed\touch2\touch-rgb-1key\RGB.h"
 350  0015  0700     R  	mov a,_counter1[0]
 350  0016  0200     R  	sub a,_R[0]
 350  0017  0700     R  	mov a,_counter1[1]
 350  0018  1200     R  	sbc a,_R[1]
 350  0019  1185        	swap acc
 350  001A  040A        	xor a,status
 350  001B  3D85        	sz acc.3
 350  001C  2800     R  	jmp _L68
 351  001D              #line 351 "E:\hamed\touch2\touch-rgb-1key\RGB.h"
 351  001D  3214        	set [20].4
 351  001E  2800     R  	jmp _L69
 351  001F              _L68:
 352  001F              #line 352 "E:\hamed\touch2\touch-rgb-1key\RGB.h"
 352  001F  3614        	clr [20].4
 352  0020  3614        	clr [20].4
 352  0021  3614        	clr [20].4
 352  0022  3614        	clr [20].4
 352  0023              _L69:
 353  0023              #line 353 "E:\hamed\touch2\touch-rgb-1key\RGB.h"
 353  0023  0700     R  	mov a,_counter1[0]
 353  0024  0200     R  	sub a,_G[0]
 353  0025  0700     R  	mov a,_counter1[1]
 353  0026  1200     R  	sbc a,_G[1]
 353  0027  1185        	swap acc
 353  0028  040A        	xor a,status
 353  0029  3D85        	sz acc.3
 353  002A  2800     R  	jmp _L70
 354  002B              #line 354 "E:\hamed\touch2\touch-rgb-1key\RGB.h"
 354  002B  3194        	set [20].3
 354  002C  2800     R  	jmp _L71
 354  002D              _L70:
 355  002D              #line 355 "E:\hamed\touch2\touch-rgb-1key\RGB.h"
 355  002D  3594        	clr [20].3
 355  002E  3594        	clr [20].3
 355  002F  3594        	clr [20].3
 355  0030  3594        	clr [20].3
 355  0031              _L71:
 356  0031              #line 356 "E:\hamed\touch2\touch-rgb-1key\RGB.h"
 356  0031  0700     R  	mov a,_counter1[0]
 356  0032  0200     R  	sub a,_B[0]
 356  0033  0700     R  	mov a,_counter1[1]
 356  0034  1200     R  	sbc a,_B[1]
 356  0035  1185        	swap acc
 356  0036  040A        	xor a,status
 356  0037  3D85        	sz acc.3
 356  0038  2800     R  	jmp _L72
 357  0039              #line 357 "E:\hamed\touch2\touch-rgb-1key\RGB.h"
 357  0039  3114        	set [20].2
 357  003A  2800     R  	jmp _L67
 357  003B              _L72:
 358  003B              #line 358 "E:\hamed\touch2\touch-rgb-1key\RGB.h"
 358  003B  3514        	clr [20].2
 358  003C  3514        	clr [20].2
"File: RGB.h         Assembler  Version HGASM0202      Page 21

 358  003D  3514        	clr [20].2
 358  003E  3514        	clr [20].2
 358  003F              _L67:
 360  003F              #line 360 "E:\hamed\touch2\touch-rgb-1key\RGB.h"
 360  003F  1F00     R  	clr _counter2[0]
 360  0040  1F00     R  	clr _counter2[1]
 360  0041              _L66:
 364  0041              #line 364 "E:\hamed\touch2\touch-rgb-1key\RGB.h"
 364  0041  3C00     R  	sz _Set
 364  0042  2800     R  	jmp _L65
 364  0043  0F31        	mov a,49
 364  0044  0200     R  	sub a,_counterrgb[0]
 364  0045  0F00        	mov a,0
 364  0046  1200     R  	sbc a,_counterrgb[1]
 364  0047  1185        	swap acc
 364  0048  040A        	xor a,status
 364  0049  3985        	snz acc.3
 364  004A  2800     R  	jmp _L65
 366  004B              #line 366 "E:\hamed\touch2\touch-rgb-1key\RGB.h"
 366  004B  0700     R  	mov a,_counter1[0]
 366  004C  0200     R  	sub a,_counter2[0]
 366  004D  0700     R  	mov a,_counter1[1]
 366  004E  1200     R  	sbc a,_counter2[1]
 366  004F  1185        	swap acc
 366  0050  040A        	xor a,status
 366  0051  3D85        	sz acc.3
 366  0052  2800     R  	jmp _L74
 367  0053              #line 367 "E:\hamed\touch2\touch-rgb-1key\RGB.h"
 367  0053  0700     R  	mov a,_counter1[0]
 367  0054  0200     R  	sub a,_R[0]
 367  0055  0700     R  	mov a,_counter1[1]
 367  0056  1200     R  	sbc a,_R[1]
 367  0057  1185        	swap acc
 367  0058  040A        	xor a,status
 367  0059  3D85        	sz acc.3
 367  005A  2800     R  	jmp _L75
 368  005B              #line 368 "E:\hamed\touch2\touch-rgb-1key\RGB.h"
 368  005B  3214        	set [20].4
 368  005C  2800     R  	jmp _L76
 368  005D              _L75:
 369  005D              #line 369 "E:\hamed\touch2\touch-rgb-1key\RGB.h"
 369  005D  3614        	clr [20].4
 369  005E  3614        	clr [20].4
 369  005F  3614        	clr [20].4
 369  0060  3614        	clr [20].4
 369  0061              _L76:
 370  0061              #line 370 "E:\hamed\touch2\touch-rgb-1key\RGB.h"
 370  0061  0700     R  	mov a,_counter1[0]
 370  0062  0200     R  	sub a,_G[0]
 370  0063  0700     R  	mov a,_counter1[1]
 370  0064  1200     R  	sbc a,_G[1]
 370  0065  1185        	swap acc
 370  0066  040A        	xor a,status
 370  0067  3D85        	sz acc.3
 370  0068  2800     R  	jmp _L77
 371  0069              #line 371 "E:\hamed\touch2\touch-rgb-1key\RGB.h"
 371  0069  3194        	set [20].3
 371  006A  2800     R  	jmp _L78
 371  006B              _L77:
 372  006B              #line 372 "E:\hamed\touch2\touch-rgb-1key\RGB.h"
"File: RGB.h         Assembler  Version HGASM0202      Page 22

 372  006B  3594        	clr [20].3
 372  006C  3594        	clr [20].3
 372  006D  3594        	clr [20].3
 372  006E  3594        	clr [20].3
 372  006F              _L78:
 373  006F              #line 373 "E:\hamed\touch2\touch-rgb-1key\RGB.h"
 373  006F  0700     R  	mov a,_counter1[0]
 373  0070  0200     R  	sub a,_B[0]
 373  0071  0700     R  	mov a,_counter1[1]
 373  0072  1200     R  	sbc a,_B[1]
 373  0073  1185        	swap acc
 373  0074  040A        	xor a,status
 373  0075  3D85        	sz acc.3
 373  0076  2800     R  	jmp _L79
 374  0077              #line 374 "E:\hamed\touch2\touch-rgb-1key\RGB.h"
 374  0077  3114        	set [20].2
 374  0078  2800     R  	jmp _L74
 374  0079              _L79:
 375  0079              #line 375 "E:\hamed\touch2\touch-rgb-1key\RGB.h"
 375  0079  3514        	clr [20].2
 375  007A  3514        	clr [20].2
 375  007B  3514        	clr [20].2
 375  007C  3514        	clr [20].2
 375  007D              _L74:
 377  007D              #line 377 "E:\hamed\touch2\touch-rgb-1key\RGB.h"
 377  007D  0700     R  	mov a,_ncount[0]
 377  007E  0080     R  	mov _counter3[0],a
 377  007F  0700     R  	mov a,_ncount[1]
 377  0080  0080     R  	mov _counter3[1],a
 377  0081              _L65:
 377  0081  0700     E  	mov a,r2
 377  0082  008A        	mov status,a
 377  0083  0700     E  	mov a,r1
 377  0084  0004        	reti
 377  0085              _timer endp
 377  0085              
 377  0085              #line 377 "E:\hamed\touch2\touch-rgb-1key\RGB.h"
 377  0085              #pragma debug scope 1 1
 377  0085              ___integ equ [13]
 377  0085              ___tmrc equ [29]
 377  0085              ___smod equ [11]
 377  0085              ___pac equ [21]
 377  0085              public _main
 377  0085              #pragma debug scope 14 1

  15  0085              #line 15 "E:\hamed\touch2\touch-rgb-1key\touch-rgb.c"
  15  0085              IFDEF WITH_DEFAULT_STARTUP
  15  0085              extern _main_initial0:near
  15  0085              extern _main_startup:near
  15  0085              ENDIF
  15  0085              
  15  0085              ROMBANK 0 @start
  15  0000              @start .section com_l 'code'
  15  0000              _main_startup1:
  15  0000              @start .section com_e 'code'
  15  0000  2800     R  	jmp _main
  15  0001              
  15  0000              _main .section 'code'
  15  0000              _main proc
  19  0000              #line 19 "E:\hamed\touch2\touch-rgb-1key\touch-rgb.c"
"File: touch-rgb.c   Assembler  Version HGASM0202      Page 23

  19  0000  308D        	set [13].1
  20  0001              #line 20 "E:\hamed\touch2\touch-rgb-1key\touch-rgb.c"
  20  0001  300D        	set [13].0
  21  0002              #line 21 "E:\hamed\touch2\touch-rgb-1key\touch-rgb.c"
  21  0002  308E        	set [14].1
  26  0003              #line 26 "E:\hamed\touch2\touch-rgb-1key\touch-rgb.c"
  26  0003  369D        	clr [29].5
  27  0004              #line 27 "E:\hamed\touch2\touch-rgb-1key\touch-rgb.c"
  27  0004  321D        	set [29].4
  29  0005              #line 29 "E:\hamed\touch2\touch-rgb-1key\touch-rgb.c"
  29  0005  341D        	clr [29].0
  30  0006              #line 30 "E:\hamed\touch2\touch-rgb-1key\touch-rgb.c"
  30  0006  309D        	set [29].1
  31  0007              #line 31 "E:\hamed\touch2\touch-rgb-1key\touch-rgb.c"
  31  0007  351D        	clr [29].2
  34  0008              #line 34 "E:\hamed\touch2\touch-rgb-1key\touch-rgb.c"
  34  0008  300E        	set [14].0
  35  0009              #line 35 "E:\hamed\touch2\touch-rgb-1key\touch-rgb.c"
  35  0009  300B        	set [11].0
  37  000A              #line 37 "E:\hamed\touch2\touch-rgb-1key\touch-rgb.c"
  37  000A  330E        	set [14].6
  38  000B              #line 38 "E:\hamed\touch2\touch-rgb-1key\touch-rgb.c"
  38  000B  318E        	set [14].3
  43  000C              #line 43 "E:\hamed\touch2\touch-rgb-1key\touch-rgb.c"
  43  000C  3615        	clr [21].4
  43  000D  3595        	clr [21].3
  43  000E  3515        	clr [21].2
  44  000F              #line 44 "E:\hamed\touch2\touch-rgb-1key\touch-rgb.c"
  44  000F  0F01        	mov a,1
  44  0010  0080     R  	mov _delay_ms_2[0],a
  44  0011  1F00     R  	clr _delay_ms_2[1]
  44  0012  1F00     R  	clr _delay_ms_2[2]
  44  0013  1F00     R  	clr _delay_ms_2[3]
  44  0014  2000     R  	call _delay_ms
  45  0015              #line 45 "E:\hamed\touch2\touch-rgb-1key\touch-rgb.c"
  45  0015  2000     R  	call _TuochKeyInit
  46  0016              #line 46 "E:\hamed\touch2\touch-rgb-1key\touch-rgb.c"
  46  0016  0F01        	mov a,1
  46  0017  0080     R  	mov _delay_ms_2[0],a
  46  0018  1F00     R  	clr _delay_ms_2[1]
  46  0019  1F00     R  	clr _delay_ms_2[2]
  46  001A  1F00     R  	clr _delay_ms_2[3]
  46  001B  2000     R  	call _delay_ms
  47  001C              #line 47 "E:\hamed\touch2\touch-rgb-1key\touch-rgb.c"
  47  001C  2000     R  	call _CalibrTuoch
  47  001D              _L81:
  51  001D              #line 51 "E:\hamed\touch2\touch-rgb-1key\touch-rgb.c"
  51  001D              ;# 51 "E:\hamed\touch2\touch-rgb-1key\touch-rgb.c" 1
  51  001D  0001        	clr wdt
  52  001E              #line 52 "E:\hamed\touch2\touch-rgb-1key\touch-rgb.c"
  52  001E  2000     R  	call _Key_Select
  53  001F              #line 53 "E:\hamed\touch2\touch-rgb-1key\touch-rgb.c"
  53  001F  2000     R  	call _Key_Touch
  53  0020  2800     R  	jmp _L81
  53  0021  2800     R  	jmp $
  53  0022              _main endp
  53  0022              
  53  0022              @dummy endp
  53  0022              
  53  0022              #line 53 "E:\hamed\touch2\touch-rgb-1key\touch-rgb.c"
"File: touch-rgb.c   Assembler  Version HGASM0202      Page 24

  53  0022              #pragma debug scope 1 1
  53  0022              public _Setinoff
  53  0000              @HCCINIT	.section 'data'

  16  0000              #line 16 "E:\hamed\touch2\touch-rgb-1key\RGB.h"
  16  0000              @HCCINIT .section 'data'
  16  0000              _Setinoff label byte
  16  0000              #pragma debug variable 8 1 _Setinoff "Setinoff"
  16  0000              	db 0
  16  0000              @ROMDATA_BASE .section inpage 'code'
  16  0000              	db 0
  16  0001              @HCCINIT .section 'data'
  16  0001              public _Set
  15  0001              #line 15 "E:\hamed\touch2\touch-rgb-1key\RGB.h"
  15  0000              @BITDATASEC .section 'data'
  15  0000  00          _Set	dbit 0
  15  0001              #pragma debug variable 2 1 _Set "Set"
  15  0001              public _counter3
  14  0001              #line 14 "E:\hamed\touch2\touch-rgb-1key\RGB.h"
  14  0001              @HCCINIT .section 'data'
  14  0001              _counter3 label byte
  14  0001              #pragma debug variable 11 1 _counter3 "counter3"
  14  0001              	db 0
  14  0001              @ROMDATA_BASE .section inpage 'code'
  14  0001              	db 0
  14  0002              @HCCINIT .section 'data'
  14  0002              	db 0
  14  0001              @ROMDATA_BASE .section inpage 'code'
  14  0001              	db 0
  14  0003              @HCCINIT .section 'data'
  14  0003              public _counter2
  13  0003              #line 13 "E:\hamed\touch2\touch-rgb-1key\RGB.h"
  13  0003              @HCCINIT .section 'data'
  13  0003              _counter2 label byte
  13  0003              #pragma debug variable 11 1 _counter2 "counter2"
  13  0003              	db 0
  13  0002              @ROMDATA_BASE .section inpage 'code'
  13  0002              	db 0
  13  0004              @HCCINIT .section 'data'
  13  0004              	db 0
  13  0002              @ROMDATA_BASE .section inpage 'code'
  13  0002              	db 0
  13  0005              @HCCINIT .section 'data'
  13  0005              public _counter1
  12  0005              #line 12 "E:\hamed\touch2\touch-rgb-1key\RGB.h"
  12  0005              @HCCINIT .section 'data'
  12  0005              _counter1 label byte
  12  0005              #pragma debug variable 11 1 _counter1 "counter1"
  12  0005              	db 0
  12  0003              @ROMDATA_BASE .section inpage 'code'
  12  0003              	db 0
  12  0006              @HCCINIT .section 'data'
  12  0006              	db 0
  12  0003              @ROMDATA_BASE .section inpage 'code'
  12  0003              	db 0
  12  0007              @HCCINIT .section 'data'
  12  0007              public _ncount
  11  0007              #line 11 "E:\hamed\touch2\touch-rgb-1key\RGB.h"
  11  0007              @HCCINIT .section 'data'
  11  0007              _ncount label byte
"File: RGB.h         Assembler  Version HGASM0202      Page 25

  11  0007              #pragma debug variable 11 1 _ncount "ncount"
  11  0007              	db 0
  11  0004              @ROMDATA_BASE .section inpage 'code'
  11  0004              	db 0
  11  0008              @HCCINIT .section 'data'
  11  0008              	db 0
  11  0004              @ROMDATA_BASE .section inpage 'code'
  11  0004              	db 0
  11  0009              @HCCINIT .section 'data'
   9  0009              #line 9 "E:\hamed\touch2\touch-rgb-1key\RGB.h"
   9  0009              public _counterint
   9  0000              @HCCINIT0 .section 'data'
   9  0000  0002[       _counterint	db 2 dup(0)
            00
            ]
   9  0002              #pragma debug variable 11 1 _counterint "counterint"
   9  0002              
   9  0009              @HCCINIT .section 'data'
   9  0009              public _counterrgb
   9  0009              #line 9 "E:\hamed\touch2\touch-rgb-1key\RGB.h"
   9  0009              @HCCINIT .section 'data'
   9  0009              _counterrgb label byte
   9  0009              #pragma debug variable 11 1 _counterrgb "counterrgb"
   9  0009              	dw 15000
   9  0005              @ROMDATA_BASE .section inpage 'code'
   9  0005  3A98        	dc 15000
   9  000B              @HCCINIT .section 'data'
   9  000B              public _rgbpals
   9  000B              #line 9 "E:\hamed\touch2\touch-rgb-1key\RGB.h"
   9  000B              @HCCINIT .section 'data'
   9  000B              _rgbpals label byte
   9  000B              #pragma debug variable 11 1 _rgbpals "rgbpals"
   9  000B              	db 0
   9  0006              @ROMDATA_BASE .section inpage 'code'
   9  0006              	db 0
   9  000C              @HCCINIT .section 'data'
   9  000C              	db 0
   9  0006              @ROMDATA_BASE .section inpage 'code'
   9  0006              	db 0
   9  000D              @HCCINIT .section 'data'
   9  000D              public _rgb2
   9  000D              #line 9 "E:\hamed\touch2\touch-rgb-1key\RGB.h"
   9  000D              @HCCINIT .section 'data'
   9  000D              _rgb2 label byte
   9  000D              #pragma debug variable 11 1 _rgb2 "rgb2"
   9  000D              	db 0
   9  0007              @ROMDATA_BASE .section inpage 'code'
   9  0007              	db 0
   9  000E              @HCCINIT .section 'data'
   9  000E              	db 0
   9  0007              @ROMDATA_BASE .section inpage 'code'
   9  0007              	db 0
   9  000F              @HCCINIT .section 'data'
   9  000F              public _rgb1
   9  000F              #line 9 "E:\hamed\touch2\touch-rgb-1key\RGB.h"
   9  000F              @HCCINIT .section 'data'
   9  000F              _rgb1 label byte
   9  000F              #pragma debug variable 11 1 _rgb1 "rgb1"
   9  000F              	db 0
   9  0008              @ROMDATA_BASE .section inpage 'code'
"File: RGB.h         Assembler  Version HGASM0202      Page 26

   9  0008              	db 0
   9  0010              @HCCINIT .section 'data'
   9  0010              	db 0
   9  0008              @ROMDATA_BASE .section inpage 'code'
   9  0008              	db 0
   9  0011              @HCCINIT .section 'data'
   9  0011              public _rgbauto
   9  0011              #line 9 "E:\hamed\touch2\touch-rgb-1key\RGB.h"
   9  0011              @HCCINIT .section 'data'
   9  0011              _rgbauto label byte
   9  0011              #pragma debug variable 11 1 _rgbauto "rgbauto"
   9  0011              	db 0
   9  0009              @ROMDATA_BASE .section inpage 'code'
   9  0009              	db 0
   9  0012              @HCCINIT .section 'data'
   9  0012              	db 0
   9  0009              @ROMDATA_BASE .section inpage 'code'
   9  0009              	db 0
   9  0013              @HCCINIT .section 'data'
   9  0013              public _rgbchange
   9  0013              #line 9 "E:\hamed\touch2\touch-rgb-1key\RGB.h"
   9  0013              @HCCINIT .section 'data'
   9  0013              _rgbchange label byte
   9  0013              #pragma debug variable 11 1 _rgbchange "rgbchange"
   9  0013              	db 0
   9  000A              @ROMDATA_BASE .section inpage 'code'
   9  000A              	db 0
   9  0014              @HCCINIT .section 'data'
   9  0014              	db 0
   9  000A              @ROMDATA_BASE .section inpage 'code'
   9  000A              	db 0
   9  0015              @HCCINIT .section 'data'
   9  0015              public _B
   9  0015              #line 9 "E:\hamed\touch2\touch-rgb-1key\RGB.h"
   9  0015              @HCCINIT .section 'data'
   9  0015              _B label byte
   9  0015              #pragma debug variable 11 1 _B "B"
   9  0015              	db 0
   9  000B              @ROMDATA_BASE .section inpage 'code'
   9  000B              	db 0
   9  0016              @HCCINIT .section 'data'
   9  0016              	db 0
   9  000B              @ROMDATA_BASE .section inpage 'code'
   9  000B              	db 0
   9  0017              @HCCINIT .section 'data'
   9  0017              public _G
   9  0017              #line 9 "E:\hamed\touch2\touch-rgb-1key\RGB.h"
   9  0017              @HCCINIT .section 'data'
   9  0017              _G label byte
   9  0017              #pragma debug variable 11 1 _G "G"
   9  0017              	dw 80
   9  000C              @ROMDATA_BASE .section inpage 'code'
   9  000C  0050        	dc 80
   9  0019              @HCCINIT .section 'data'
   9  0019              public _R
   9  0019              #line 9 "E:\hamed\touch2\touch-rgb-1key\RGB.h"
   9  0019              @HCCINIT .section 'data'
   9  0019              _R label byte
   9  0019              #pragma debug variable 11 1 _R "R"
   9  0019              	dw 80
"File: RGB.h         Assembler  Version HGASM0202      Page 27

   9  000D              @ROMDATA_BASE .section inpage 'code'
   9  000D  0050        	dc 80
   9  001B              @HCCINIT .section 'data'
   9  001B              public _nsicl
   7  001B              #line 7 "E:\hamed\touch2\touch-rgb-1key\RGB.h"
   7  001B              @HCCINIT .section 'data'
   7  001B              _nsicl label byte
   7  001B              #pragma debug variable 11 1 _nsicl "nsicl"
   7  001B              	dw 80
   7  000E              @ROMDATA_BASE .section inpage 'code'
   7  000E  0050        	dc 80
   7  001D              @HCCINIT .section 'data'
   7  001D              public _CalibrSample
   4  001D              #line 4 "E:\hamed\touch2\touch-rgb-1key\RGB.h"
   4  001D              @HCCINIT .section 'data'
   4  001D              _CalibrSample label byte
   4  001D              #pragma debug variable 8 1 _CalibrSample "CalibrSample"
   4  001D              	db 0
   4  000F              @ROMDATA_BASE .section inpage 'code'
   4  000F              	db 0
   4  001E              @HCCINIT .section 'data'
   4  001E              public _CalibrCount
   4  001E              #line 4 "E:\hamed\touch2\touch-rgb-1key\RGB.h"
   4  001E              @HCCINIT .section 'data'
   4  001E              _CalibrCount label byte
   4  001E              #pragma debug variable 8 1 _CalibrCount "CalibrCount"
   4  001E              	db 0
   4  000F              @ROMDATA_BASE .section inpage 'code'
   4  000F              	db 0
   4  001F              @HCCINIT .section 'data'
   4  001F              public _counter
   4  001F              #line 4 "E:\hamed\touch2\touch-rgb-1key\RGB.h"
   4  001F              @HCCINIT .section 'data'
   4  001F              _counter label byte
   4  001F              #pragma debug variable 8 1 _counter "counter"
   4  001F              	db 0
   4  0010              @ROMDATA_BASE .section inpage 'code'
   4  0010              	db 0
   4  0020              @HCCINIT .section 'data'
   4  0020              public _i
   4  0020              #line 4 "E:\hamed\touch2\touch-rgb-1key\RGB.h"
   4  0020              @HCCINIT .section 'data'
   4  0020              _i label byte
   4  0020              #pragma debug variable 8 1 _i "i"
   4  0020              	db 0
   4  0010              @ROMDATA_BASE .section inpage 'code'
   4  0010              	db 0
   4  0021              @HCCINIT .section 'data'
   4  0021              public _Count_T1
   3  0021              #line 3 "E:\hamed\touch2\touch-rgb-1key\RGB.h"
   3  0021              @HCCINIT .section 'data'
   3  0021              _Count_T1 label byte
   3  0021              #pragma debug variable 12 1 _Count_T1 "Count_T1"
   3  0021              	db 0
   3  0011              @ROMDATA_BASE .section inpage 'code'
   3  0011              	db 0
   3  0022              @HCCINIT .section 'data'
   3  0022              	db 0
   3  0011              @ROMDATA_BASE .section inpage 'code'
   3  0011              	db 0
"File: RGB.h         Assembler  Version HGASM0202      Page 28

   3  0023              @HCCINIT .section 'data'
   3  0023              public _Count_S1
   2  0023              #line 2 "E:\hamed\touch2\touch-rgb-1key\RGB.h"
   2  0023              @HCCINIT .section 'data'
   2  0023              _Count_S1 label byte
   2  0023              #pragma debug variable 12 1 _Count_S1 "Count_S1"
   2  0023              	db 0
   2  0012              @ROMDATA_BASE .section inpage 'code'
   2  0012              	db 0
   2  0024              @HCCINIT .section 'data'
   2  0024              	db 0
   2  0012              @ROMDATA_BASE .section inpage 'code'
   2  0012              	db 0
   2  0025              @HCCINIT .section 'data'
   2  0025              public _Count_C1_Backup
   1  0025              #line 1 "E:\hamed\touch2\touch-rgb-1key\RGB.h"
   1  0025              @HCCINIT .section 'data'
   1  0025              _Count_C1_Backup label byte
   1  0025              #pragma debug variable 14 1 _Count_C1_Backup "Count_C1_Backup"
   1  0025              	db 0
   1  0013              @ROMDATA_BASE .section inpage 'code'
   1  0013              	db 0
   1  0026              @HCCINIT .section 'data'
   1  0026              	db 0
   1  0013              @ROMDATA_BASE .section inpage 'code'
   1  0013              	db 0
   1  0027              @HCCINIT .section 'data'
   1  0027              	db 0
   1  0014              @ROMDATA_BASE .section inpage 'code'
   1  0014              	db 0
   1  0028              @HCCINIT .section 'data'
   1  0028              	db 0
   1  0014              @ROMDATA_BASE .section inpage 'code'
   1  0014              	db 0
   1  0029              @HCCINIT .section 'data'
   1  0029              public _Count_C1
   1  0029              #line 1 "E:\hamed\touch2\touch-rgb-1key\RGB.h"
   1  0029              @HCCINIT .section 'data'
   1  0029              _Count_C1 label byte
   1  0029              #pragma debug variable 14 1 _Count_C1 "Count_C1"
   1  0029              	db 0
   1  0015              @ROMDATA_BASE .section inpage 'code'
   1  0015              	db 0
   1  002A              @HCCINIT .section 'data'
   1  002A              	db 0
   1  0015              @ROMDATA_BASE .section inpage 'code'
   1  0015              	db 0
   1  002B              @HCCINIT .section 'data'
   1  002B              	db 0
   1  0016              @ROMDATA_BASE .section inpage 'code'
   1  0016              	db 0
   1  002C              @HCCINIT .section 'data'
   1  002C              	db 0
   1  0016              @ROMDATA_BASE .section inpage 'code'
   1  0016              	db 0
   1  002D              @HCCINIT .section 'data'
   1  002D              #pragma debug struct_end
   1  002D              #pragma debug struct_end
   1  002D              #pragma debug union_end
   1  002D              #pragma debug union_end
"File: RGB.h         Assembler  Version HGASM0202      Page 29

   1  002D              #pragma debug variable 43 1 ___smod "__smod" 1
   1  002D              #pragma debug struct_end
   1  002D              #pragma debug struct_end
   1  002D              #pragma debug union_end
   1  002D              #pragma debug union_end
   1  002D              #pragma debug variable 45 1 ___integ "__integ" 1
   1  002D              #pragma debug struct_end
   1  002D              #pragma debug struct_end
   1  002D              #pragma debug union_end
   1  002D              #pragma debug union_end
   1  002D              #pragma debug variable 47 1 ___intc0 "__intc0" 1
   1  002D              #pragma debug struct_end
   1  002D              #pragma debug struct_end
   1  002D              #pragma debug union_end
   1  002D              #pragma debug union_end
   1  002D              #pragma debug variable 49 1 ___pa "__pa" 1
   1  002D              #pragma debug struct_end
   1  002D              #pragma debug struct_end
   1  002D              #pragma debug union_end
   1  002D              #pragma debug union_end
   1  002D              #pragma debug variable 51 1 ___pac "__pac" 1
   1  002D              #pragma debug struct_end
   1  002D              #pragma debug struct_end
   1  002D              #pragma debug union_end
   1  002D              #pragma debug union_end
   1  002D              #pragma debug variable 53 1 ___tmrc "__tmrc" 1
   1  002D              #pragma debug variable 8 1 ___tktmr "__tktmr" 1
   1  002D              #pragma debug struct_end
   1  002D              #pragma debug struct_end
   1  002D              #pragma debug union_end
   1  002D              #pragma debug union_end
   1  002D              #pragma debug variable 55 1 ___tkc0 "__tkc0" 1
   1  002D              #pragma debug struct_end
   1  002D              #pragma debug struct_end
   1  002D              #pragma debug union_end
   1  002D              #pragma debug union_end
   1  002D              #pragma debug variable 57 1 ___tkc1 "__tkc1" 1
   1  002D              #pragma debug variable 8 1 ___tkm016dl "__tkm016dl" 1
   1  002D              #pragma debug variable 8 1 ___tkm016dh "__tkm016dh" 1
   1  002D              #pragma debug variable 8 1 ___tkm0rol "__tkm0rol" 1
   1  002D              #pragma debug variable 8 1 ___tkm0roh "__tkm0roh" 1
   1  002D              #pragma debug struct_end
   1  002D              #pragma debug struct_end
   1  002D              #pragma debug union_end
   1  002D              #pragma debug union_end
   1  002D              #pragma debug variable 59 1 ___tkm0c0 "__tkm0c0" 1
   1  002D              #pragma debug struct_end
   1  002D              #pragma debug struct_end
   1  002D              #pragma debug union_end
   1  002D              #pragma debug union_end
   1  002D              #pragma debug variable 61 1 ___tkm0c1 "__tkm0c1" 1
   1  002D              extern r1:byte
   1  002D              extern r2:byte

  15  002D              #line 15 "E:\hamed\touch2\touch-rgb-1key\touch-rgb.c"
  15  0000              @code .section at 0 'code'
  15  0000  2800     R  	jmp _main_startup1
  15  0001              
  15  0001              extern _builtin_holtek_mulsi3_2:byte
  15  0001              extern _builtin_holtek_mulsi3:near
"File: touch-rgb.c   Assembler  Version HGASM0202      Page 30

  15  0001              extern _builtin_holtek_udivmodsi4_2:byte
  15  0001              extern _builtin_holtek_udivmodsi4:near
  15  0001              
  15  0001              ; 
  15  0001              ; Generated by holtek-gcc v3.19, Thu Aug 01 11:44:22 2024
  15  0001              ; Rebuild 718
  15  0001              ; end of file


        0 Errors, 0