"File: touch-3key-clock.c  Assembler  Version HGASM0202      Page 1


   1  0000              ; Generated by holtek-gcc v3.19, Wed Sep 24 17:21:48 2025
   2  0000              ; 
   3  0000              ; Configuration:
   4  0000              ;       without long instruction
   5  0000              ;       Single ROM, Multi-RAM
   6  0000              ;       bits_per_rom_unit:16
   7  0000              ;       with mp1
   8  0000              ;       with tbhp, address(0x9)
   9  0000              ;          Use tabrd-const
  10  0000              ;       
  11  0000              ;       
  12  0000              ;       
  13  0000              ; use 'tabrdc' instead of 'tabrd'
  14  0000              ;       
  15  0000              
  16  0000              #pragma translator "holtek-gcc 4.6.4" "3.19" "build 20130711"
  17  0000              ; Rebuild 718
  18  0000              
  19  0000              ir equ [2]
  20  0000              mp equ [3]
  21  0000              sbp equ [1]
  22  0000              acc equ [5]
  23  0000              bp equ [4]
  24  0000              tblp equ [7]
  25  0000              tbhp equ [9]
  26  0000              status equ [10]
  27  0000              c equ [10].0
  28  0000              ac equ [10].1
  29  0000              z equ [10].2
  30  0000              ov equ [10].3
  31  0000              intc equ [11]
  32  0000              
  33  0000              extern ra:byte
  34  0000              extern rb:byte
  35  0000              extern rc:byte
  36  0000              extern rd:byte
  37  0000              extern re:byte
  38  0000              extern rf:byte
  39  0000              extern rg:byte
  40  0000              extern rh:byte
  41  0000              extern _Crom2Prom:near
  42  0000              extern _Crom2PromNext:near
  43  0000              
  44  0000              RAMBANK 0 @HCCINIT, @HCCINIT0
  45  0000              
  46  0000              RAMBANK 0 @BITDATASEC, @BITDATASEC1
  47  0000              @HCCINIT	.section 'data'
  48  0000              @HCCINIT0	.section 'data'
  49  0000              @BITDATASEC	 .section 'data'
  50  0000              @BITDATASEC1	 .section 'data'
  51  0000              
  52  0000              #pragma debug scope 1 1
  53  0000              	extern __DELAY3:near
  54  0000              	extern __DELAYX3:near
  55  0000              	extern __DELAYX6:near
  56  0000              	extern __DELAYY5:near
  57  0000              	extern __DELAYY3:near
  58  0000              	extern _builtin_holtek_delay_2:byte
  59  0000              public _delay_10us
"File: touch-3key-clock.ASM  Assembler  Version HGASM0202      Page 2

  60  0000              #pragma debug scope 2 1

  11  0000              #line 11 "C:\Users\hamed\Documents\project\touch 3key clock\touch-3key-clock\DELAY.h"
  11  0000              _delay_10us .section 'code'
  11  0000              _delay_10us proc
  11  0000              public _delay_10us_2
  11  0000  0004[           local _delay_10us_2 db 4 dup(?)	; 4,0
            00
            ]
  11  0004              #pragma debug variable 14 2 _delay_10us_2+0 "count_u"
  15  0004              #line 15 "C:\Users\hamed\Documents\project\touch 3key clock\touch-3key-clock\DELAY.h"
  15  0000  1F00     E  	clr rd
  15  0001  1F00     E  	clr re
  15  0002  1F00     E  	clr rf
  15  0003  1F00     E  	clr rg
  15  0004  2800     R  	jmp _L2
  15  0005              _L3:
  17  0005              #line 17 "C:\Users\hamed\Documents\project\touch 3key clock\touch-3key-clock\DELAY.h"
  17  0005              ;# 17 "C:\Users\hamed\Documents\project\touch 3key clock\touch-3key-clock\DELAY.h" 1
  17  0005  0001        	clr wdt
  18  0006              #line 18 "C:\Users\hamed\Documents\project\touch 3key clock\touch-3key-clock\DELAY.h"
  18  0006              ;# 18 "C:\Users\hamed\Documents\project\touch 3key clock\touch-3key-clock\DELAY.h" 1
  18  0006  0000        	nop
  19  0007              #line 19 "C:\Users\hamed\Documents\project\touch 3key clock\touch-3key-clock\DELAY.h"
  19  0007              ;# 19 "C:\Users\hamed\Documents\project\touch 3key clock\touch-3key-clock\DELAY.h" 1
  19  0007  0000        	nop
  20  0008              #line 20 "C:\Users\hamed\Documents\project\touch 3key clock\touch-3key-clock\DELAY.h"
  20  0008              ;# 20 "C:\Users\hamed\Documents\project\touch 3key clock\touch-3key-clock\DELAY.h" 1
  20  0008  0000        	nop
  21  0009              #line 21 "C:\Users\hamed\Documents\project\touch 3key clock\touch-3key-clock\DELAY.h"
  21  0009              ;# 21 "C:\Users\hamed\Documents\project\touch 3key clock\touch-3key-clock\DELAY.h" 1
  21  0009  0000        	nop
  15  000A              #line 15 "C:\Users\hamed\Documents\project\touch 3key clock\touch-3key-clock\DELAY.h"
  15  000A  0F01        	mov a,1
  15  000B  0380     E  	addm a,rd
  15  000C  0F00        	mov a,0
  15  000D  1380     E  	adcm a,re
  15  000E  1380     E  	adcm a,rf
  15  000F  1380     E  	adcm a,rg
  15  0010              _L2:
  15  0010  0700     E  	mov a,rd
  15  0011  0400     R  	xor a,_delay_10us_2[0]
  15  0012  0700     E  	mov a,re
  15  0013  3D0A        	sz z
  15  0014  0400     R  	xor a,_delay_10us_2[1]
  15  0015  0700     E  	mov a,rf
  15  0016  3D0A        	sz z
  15  0017  0400     R  	xor a,_delay_10us_2[2]
  15  0018  0700     E  	mov a,rg
  15  0019  3D0A        	sz z
  15  001A  0400     R  	xor a,_delay_10us_2[3]
  15  001B  390A        	snz z
  15  001C  2800     R  	jmp _L3
  15  001D  0003        	ret
  15  001E              _delay_10us endp
  15  001E              #line 15 "C:\Users\hamed\Documents\project\touch 3key clock\touch-3key-clock\DELAY.h"
  15  001E              #pragma debug scope 1 1
  15  001E              public _delay_us
  15  001E              #pragma debug scope 3 1
  28  001E              #line 28 "C:\Users\hamed\Documents\project\touch 3key clock\touch-3key-clock\DELAY.h"
"File: DELAY.h       Assembler  Version HGASM0202      Page 3

  28  0000              _delay_us .section 'code'
  28  0000              _delay_us proc
  28  0000              public _delay_us_2
  28  0000  0004[           local _delay_us_2 db 4 dup(?)	; 4,0
            00
            ]
  28  0004              #pragma debug variable 14 3 _delay_us_2+0 "count_u"
  32  0004              #line 32 "C:\Users\hamed\Documents\project\touch 3key clock\touch-3key-clock\DELAY.h"
  32  0000  1F00     E  	clr rd
  32  0001  1F00     E  	clr re
  32  0002  1F00     E  	clr rf
  32  0003  1F00     E  	clr rg
  32  0004  2800     R  	jmp _L6
  32  0005              _L7:
  34  0005              #line 34 "C:\Users\hamed\Documents\project\touch 3key clock\touch-3key-clock\DELAY.h"
  34  0005              ;# 34 "C:\Users\hamed\Documents\project\touch 3key clock\touch-3key-clock\DELAY.h" 1
  34  0005  0001        	clr wdt
  35  0006              #line 35 "C:\Users\hamed\Documents\project\touch 3key clock\touch-3key-clock\DELAY.h"
  35  0006              ;# 35 "C:\Users\hamed\Documents\project\touch 3key clock\touch-3key-clock\DELAY.h" 1
  35  0006  0000        	nop
  32  0007              #line 32 "C:\Users\hamed\Documents\project\touch 3key clock\touch-3key-clock\DELAY.h"
  32  0007  0F01        	mov a,1
  32  0008  0380     E  	addm a,rd
  32  0009  0F00        	mov a,0
  32  000A  1380     E  	adcm a,re
  32  000B  1380     E  	adcm a,rf
  32  000C  1380     E  	adcm a,rg
  32  000D              _L6:
  32  000D  0700     E  	mov a,rd
  32  000E  0400     R  	xor a,_delay_us_2[0]
  32  000F  0700     E  	mov a,re
  32  0010  3D0A        	sz z
  32  0011  0400     R  	xor a,_delay_us_2[1]
  32  0012  0700     E  	mov a,rf
  32  0013  3D0A        	sz z
  32  0014  0400     R  	xor a,_delay_us_2[2]
  32  0015  0700     E  	mov a,rg
  32  0016  3D0A        	sz z
  32  0017  0400     R  	xor a,_delay_us_2[3]
  32  0018  390A        	snz z
  32  0019  2800     R  	jmp _L7
  32  001A  0003        	ret
  32  001B              _delay_us endp
  32  001B              #line 32 "C:\Users\hamed\Documents\project\touch 3key clock\touch-3key-clock\DELAY.h"
  32  001B              #pragma debug scope 1 1
  32  001B              public _delay_ms
  32  001B              #pragma debug scope 4 1
  42  001B              #line 42 "C:\Users\hamed\Documents\project\touch 3key clock\touch-3key-clock\DELAY.h"
  42  0000              _delay_ms .section 'code'
  42  0000              _delay_ms proc
  42  0000              public _delay_ms_2
  42  0000  0008[           local _delay_ms_2 db 8 dup(?)	; 4,4
            00
            ]
  42  0008              #pragma debug variable 14 4 _delay_ms_2+0 "count_m"
  44  0008              #line 44 "C:\Users\hamed\Documents\project\touch 3key clock\touch-3key-clock\DELAY.h"
  44  0000  0700     R  	mov a,_delay_ms_2[0]
  44  0001  0080     E  	mov _builtin_holtek_mulsi3_2[0],a
  44  0002  0700     R  	mov a,_delay_ms_2[1]
  44  0003  0080     E  	mov _builtin_holtek_mulsi3_2[1],a
"File: DELAY.h       Assembler  Version HGASM0202      Page 4

  44  0004  0700     R  	mov a,_delay_ms_2[2]
  44  0005  0080     E  	mov _builtin_holtek_mulsi3_2[2],a
  44  0006  0700     R  	mov a,_delay_ms_2[3]
  44  0007  0080     E  	mov _builtin_holtek_mulsi3_2[3],a
  44  0008  0F64        	mov a,100
  44  0009  0080     E  	mov _builtin_holtek_mulsi3_2[4],a
  44  000A  0F00        	mov a,0
  44  000B  0080     E  	mov _builtin_holtek_mulsi3_2[5],a
  44  000C  0F00        	mov a,0
  44  000D  0080     E  	mov _builtin_holtek_mulsi3_2[6],a
  44  000E  0F00        	mov a,0
  44  000F  0080     E  	mov _builtin_holtek_mulsi3_2[7],a
  44  0010  2000     E  	call _builtin_holtek_mulsi3
  44  0011  0700     E  	mov a,_builtin_holtek_mulsi3_2[8]
  44  0012  0080     R  	mov _delay_ms_2[4],a
  44  0013  0700     E  	mov a,_builtin_holtek_mulsi3_2[9]
  44  0014  0080     R  	mov _delay_ms_2[5],a
  44  0015  0700     E  	mov a,_builtin_holtek_mulsi3_2[10]
  44  0016  0080     R  	mov _delay_ms_2[6],a
  44  0017  0700     E  	mov a,_builtin_holtek_mulsi3_2[11]
  44  0018  0080     R  	mov _delay_ms_2[7],a
  45  0019              #line 45 "C:\Users\hamed\Documents\project\touch 3key clock\touch-3key-clock\DELAY.h"
  45  0019  1F00     E  	clr rd
  45  001A  1F00     E  	clr re
  45  001B  1F00     E  	clr rf
  45  001C  1F00     E  	clr rg
  45  001D  2800     R  	jmp _L9
  45  001E              _L10:
  47  001E              #line 47 "C:\Users\hamed\Documents\project\touch 3key clock\touch-3key-clock\DELAY.h"
  47  001E              ;# 47 "C:\Users\hamed\Documents\project\touch 3key clock\touch-3key-clock\DELAY.h" 1
  47  001E  0001        	clr wdt
  48  001F              #line 48 "C:\Users\hamed\Documents\project\touch 3key clock\touch-3key-clock\DELAY.h"
  48  001F              ;# 48 "C:\Users\hamed\Documents\project\touch 3key clock\touch-3key-clock\DELAY.h" 1
  48  001F  0000        	nop
  49  0020              #line 49 "C:\Users\hamed\Documents\project\touch 3key clock\touch-3key-clock\DELAY.h"
  49  0020              ;# 49 "C:\Users\hamed\Documents\project\touch 3key clock\touch-3key-clock\DELAY.h" 1
  49  0020  0000        	nop
  50  0021              #line 50 "C:\Users\hamed\Documents\project\touch 3key clock\touch-3key-clock\DELAY.h"
  50  0021              ;# 50 "C:\Users\hamed\Documents\project\touch 3key clock\touch-3key-clock\DELAY.h" 1
  50  0021  0000        	nop
  51  0022              #line 51 "C:\Users\hamed\Documents\project\touch 3key clock\touch-3key-clock\DELAY.h"
  51  0022              ;# 51 "C:\Users\hamed\Documents\project\touch 3key clock\touch-3key-clock\DELAY.h" 1
  51  0022  0000        	nop
  45  0023              #line 45 "C:\Users\hamed\Documents\project\touch 3key clock\touch-3key-clock\DELAY.h"
  45  0023  0F01        	mov a,1
  45  0024  0380     E  	addm a,rd
  45  0025  0F00        	mov a,0
  45  0026  1380     E  	adcm a,re
  45  0027  1380     E  	adcm a,rf
  45  0028  1380     E  	adcm a,rg
  45  0029              _L9:
  45  0029  0700     E  	mov a,rd
  45  002A  0400     R  	xor a,_delay_ms_2[4]
  45  002B  0700     E  	mov a,re
  45  002C  3D0A        	sz z
  45  002D  0400     R  	xor a,_delay_ms_2[5]
  45  002E  0700     E  	mov a,rf
  45  002F  3D0A        	sz z
  45  0030  0400     R  	xor a,_delay_ms_2[6]
  45  0031  0700     E  	mov a,rg
"File: DELAY.h       Assembler  Version HGASM0202      Page 5

  45  0032  3D0A        	sz z
  45  0033  0400     R  	xor a,_delay_ms_2[7]
  45  0034  390A        	snz z
  45  0035  2800     R  	jmp _L10
  45  0036  0003        	ret
  45  0037              _delay_ms endp
  45  0037              #line 45 "C:\Users\hamed\Documents\project\touch 3key clock\touch-3key-clock\DELAY.h"
  45  0037              #pragma debug scope 1 1
  45  0037              ___intc0 equ [14]
  45  0037              ___tktmr equ [67]
  45  0037              ___tkc0 equ [68]
  45  0037              ___tkc1 equ [71]
  45  0037              ___tkm0c1 equ [77]
  45  0037              ___tkm0rol equ [74]
  45  0037              ___tkm0roh equ [75]
  45  0037              ___tkm0c0 equ [76]
  45  0037              public _TuochKeyInit
  45  0037              #pragma debug scope 5 1

  93  0037              #line 93 "C:\Users\hamed\Documents\project\touch 3key clock\touch-3key-clock\3ch-3key.h"
  93  0000              _TuochKeyInit .section 'code'
  93  0000              _TuochKeyInit proc
  95  0000              #line 95 "C:\Users\hamed\Documents\project\touch 3key clock\touch-3key-clock\3ch-3key.h"
  95  0000  350E        	clr [14].2
  96  0001              #line 96 "C:\Users\hamed\Documents\project\touch 3key clock\touch-3key-clock\3ch-3key.h"
  96  0001  368E        	clr [14].5
  97  0002              #line 97 "C:\Users\hamed\Documents\project\touch 3key clock\touch-3key-clock\3ch-3key.h"
  97  0002  1F43        	clr [67]
  98  0003              #line 98 "C:\Users\hamed\Documents\project\touch 3key clock\touch-3key-clock\3ch-3key.h"
  98  0003  34C4        	clr [68].1
  98  0004  3444        	clr [68].0
  99  0005              #line 99 "C:\Users\hamed\Documents\project\touch 3key clock\touch-3key-clock\3ch-3key.h"
  99  0005  30C7        	set [71].1
  99  0006  3047        	set [71].0
 102  0007              #line 102 "C:\Users\hamed\Documents\project\touch 3key clock\touch-3key-clock\3ch-3key.h"
 102  0007  35CD        	clr [77].3
 102  0008  314D        	set [77].2
 102  0009  30CD        	set [77].1
 102  000A  304D        	set [77].0
 103  000B              #line 103 "C:\Users\hamed\Documents\project\touch 3key clock\touch-3key-clock\3ch-3key.h"
 103  000B  0FC8        	mov a,200
 103  000C  00CA        	mov [74],a
 103  000D  1F4B        	clr [75]
 104  000E              #line 104 "C:\Users\hamed\Documents\project\touch 3key clock\touch-3key-clock\3ch-3key.h"
 104  000E  32CC        	set [76].5
 105  000F              #line 105 "C:\Users\hamed\Documents\project\touch 3key clock\touch-3key-clock\3ch-3key.h"
 105  000F  324C        	set [76].4
 106  0010              #line 106 "C:\Users\hamed\Documents\project\touch 3key clock\touch-3key-clock\3ch-3key.h"
 106  0010  35CC        	clr [76].3
 107  0011              #line 107 "C:\Users\hamed\Documents\project\touch 3key clock\touch-3key-clock\3ch-3key.h"
 107  0011  314C        	set [76].2
 107  0012  30CC        	set [76].1
 107  0013  304C        	set [76].0
 108  0014              #line 108 "C:\Users\hamed\Documents\project\touch 3key clock\touch-3key-clock\3ch-3key.h"
 108  0014  37CD        	clr [77].7
 109  0015              #line 109 "C:\Users\hamed\Documents\project\touch 3key clock\touch-3key-clock\3ch-3key.h"
 109  0015  32CD        	set [77].5
 110  0016              #line 110 "C:\Users\hamed\Documents\project\touch 3key clock\touch-3key-clock\3ch-3key.h"
 110  0016  324D        	set [77].4
 110  0017  0003        	ret
"File: 3ch-3key.h    Assembler  Version HGASM0202      Page 6

 110  0018              _TuochKeyInit endp
 110  0018              #line 110 "C:\Users\hamed\Documents\project\touch 3key clock\touch-3key-clock\3ch-3key.h"
 110  0018              #pragma debug scope 1 1
 110  0018              ___pa equ [20]
 110  0018              public _Key_Touch
 110  0018              #pragma debug scope 6 1
 114  0018              #line 114 "C:\Users\hamed\Documents\project\touch 3key clock\touch-3key-clock\3ch-3key.h"
 114  0000              _Key_Touch .section 'code'
 114  0000              _Key_Touch proc
 116  0000              #line 116 "C:\Users\hamed\Documents\project\touch 3key clock\touch-3key-clock\3ch-3key.h"
 116  0000  0FD8        	mov a,216
 116  0001  0300     R  	add a,_Count_C1[0]
 116  0002  0080     E  	mov rd,a
 116  0003  0FFF        	mov a,255
 116  0004  1300     R  	adc a,_Count_C1[1]
 116  0005  0080     E  	mov re,a
 116  0006  0FFF        	mov a,255
 116  0007  1300     R  	adc a,_Count_C1[2]
 116  0008  0080     E  	mov rf,a
 116  0009  0FFF        	mov a,255
 116  000A  1300     R  	adc a,_Count_C1[3]
 116  000B  0080     E  	mov rg,a
 116  000C  0700     R  	mov a,_Count_S1[0]
 116  000D  0200     E  	sub a,rd
 116  000E  0700     R  	mov a,_Count_S1[1]
 116  000F  1200     E  	sbc a,re
 116  0010  1F05        	clr acc
 116  0011  1200     E  	sbc a,rf
 116  0012  1F05        	clr acc
 116  0013  1200     E  	sbc a,rg
 116  0014  3C0A        	sz c
 116  0015  2800     R  	jmp _L13
 118  0016              #line 118 "C:\Users\hamed\Documents\project\touch 3key clock\touch-3key-clock\3ch-3key.h"
 118  0016  1480     R  	inc _Count_T1[0]
 118  0017  3D0A        	sz z
 118  0018  1480     R  	inc _Count_T1[1]
 118  0019  0FE8        	mov a,232
 118  001A  0200     R  	sub a,_Count_T1[0]
 118  001B  0F03        	mov a,3
 118  001C  1200     R  	sbc a,_Count_T1[1]
 118  001D  3C0A        	sz c
 118  001E  2800     R  	jmp _L15
 118  001F  0FE8        	mov a,-24
 118  0020  0080     R  	mov _Count_T1[0],a
 118  0021  0F03        	mov a,3
 118  0022  0080     R  	mov _Count_T1[1],a
 118  0023  2800     R  	jmp _L15
 118  0024              _L13:
 120  0024              #line 120 "C:\Users\hamed\Documents\project\touch 3key clock\touch-3key-clock\3ch-3key.h"
 120  0024  0FF6        	mov a,246
 120  0025  0300     R  	add a,_Count_C1[0]
 120  0026  0080     E  	mov rd,a
 120  0027  0FFF        	mov a,255
 120  0028  1300     R  	adc a,_Count_C1[1]
 120  0029  0080     E  	mov re,a
 120  002A  0FFF        	mov a,255
 120  002B  1300     R  	adc a,_Count_C1[2]
 120  002C  0080     E  	mov rf,a
 120  002D  0FFF        	mov a,255
 120  002E  1300     R  	adc a,_Count_C1[3]
"File: 3ch-3key.h    Assembler  Version HGASM0202      Page 7

 120  002F  0080     E  	mov rg,a
 120  0030  1080     E  	sz rg
 120  0031  2800     R  	jmp _L15
 120  0032  1080     E  	sz rf
 120  0033  2800     R  	jmp _L15
 120  0034  0700     E  	mov a,rd
 120  0035  0200     R  	sub a,_Count_S1[0]
 120  0036  0700     E  	mov a,re
 120  0037  1200     R  	sbc a,_Count_S1[1]
 120  0038  3C0A        	sz c
 120  0039  2800     R  	jmp _L15
 122  003A              #line 122 "C:\Users\hamed\Documents\project\touch 3key clock\touch-3key-clock\3ch-3key.h"
 122  003A  1F00     R  	clr _Count_T1[0]
 122  003B  1F00     R  	clr _Count_T1[1]
 123  003C              #line 123 "C:\Users\hamed\Documents\project\touch 3key clock\touch-3key-clock\3ch-3key.h"
 123  003C  3214        	set [20].4
 124  003D              #line 124 "C:\Users\hamed\Documents\project\touch 3key clock\touch-3key-clock\3ch-3key.h"
 124  003D  1F00     R  	clr _rgbchange[0]
 124  003E  1F00     R  	clr _rgbchange[1]
 124  003F              _L15:
 126  003F              #line 126 "C:\Users\hamed\Documents\project\touch 3key clock\touch-3key-clock\3ch-3key.h"
 126  003F  0700     R  	mov a,_Count_T1[0]
 126  0040  0C32        	xor a,50
 126  0041  0500     R  	or a,_Count_T1[1]
 126  0042  390A        	snz z
 126  0043  2800     R  	jmp _L17
 128  0044              #line 128 "C:\Users\hamed\Documents\project\touch 3key clock\touch-3key-clock\3ch-3key.h"
 128  0044  3614        	clr [20].4
 130  0045              #line 130 "C:\Users\hamed\Documents\project\touch 3key clock\touch-3key-clock\3ch-3key.h"
 130  0045  1F00     R  	clr _CalibrCount1[0]
 131  0046              #line 131 "C:\Users\hamed\Documents\project\touch 3key clock\touch-3key-clock\3ch-3key.h"
 131  0046  1F00     R  	clr _CalibrSample1[0]
 132  0047              #line 132 "C:\Users\hamed\Documents\project\touch 3key clock\touch-3key-clock\3ch-3key.h"
 132  0047  1F00     R  	clr _Count_C1_Backup[0]
 132  0048  1F00     R  	clr _Count_C1_Backup[1]
 132  0049  1F00     R  	clr _Count_C1_Backup[2]
 132  004A  1F00     R  	clr _Count_C1_Backup[3]
 132  004B              _L17:
 135  004B              #line 135 "C:\Users\hamed\Documents\project\touch 3key clock\touch-3key-clock\3ch-3key.h"
 135  004B  0FC8        	mov a,200
 135  004C  0200     R  	sub a,_Count_T1[0]
 135  004D  0F00        	mov a,0
 135  004E  1200     R  	sbc a,_Count_T1[1]
 135  004F  3C0A        	sz c
 135  0050  2800     R  	jmp _L18
 135  0051  0700     R  	mov a,_rgbchange[0]
 135  0052  0500     R  	or a,_rgbchange[1]
 135  0053  390A        	snz z
 135  0054  2800     R  	jmp _L18
 137  0055              #line 137 "C:\Users\hamed\Documents\project\touch 3key clock\touch-3key-clock\3ch-3key.h"
 137  0055  0F01        	mov a,1
 137  0056  0080     R  	mov _rgbchange[0],a
 137  0057  1F00     R  	clr _rgbchange[1]
 137  0058              _L18:
 144  0058              #line 144 "C:\Users\hamed\Documents\project\touch 3key clock\touch-3key-clock\3ch-3key.h"
 144  0058  0FD8        	mov a,216
 144  0059  0300     R  	add a,_Count_C2[0]
 144  005A  0080     E  	mov rd,a
 144  005B  0FFF        	mov a,255
 144  005C  1300     R  	adc a,_Count_C2[1]
"File: 3ch-3key.h    Assembler  Version HGASM0202      Page 8

 144  005D  0080     E  	mov re,a
 144  005E  0FFF        	mov a,255
 144  005F  1300     R  	adc a,_Count_C2[2]
 144  0060  0080     E  	mov rf,a
 144  0061  0FFF        	mov a,255
 144  0062  1300     R  	adc a,_Count_C2[3]
 144  0063  0080     E  	mov rg,a
 144  0064  0700     R  	mov a,_Count_S2[0]
 144  0065  0200     E  	sub a,rd
 144  0066  0700     R  	mov a,_Count_S2[1]
 144  0067  1200     E  	sbc a,re
 144  0068  1F05        	clr acc
 144  0069  1200     E  	sbc a,rf
 144  006A  1F05        	clr acc
 144  006B  1200     E  	sbc a,rg
 144  006C  3C0A        	sz c
 144  006D  2800     R  	jmp _L19
 146  006E              #line 146 "C:\Users\hamed\Documents\project\touch 3key clock\touch-3key-clock\3ch-3key.h"
 146  006E  1480     R  	inc _Count_T2[0]
 146  006F  3D0A        	sz z
 146  0070  1480     R  	inc _Count_T2[1]
 146  0071  0FE8        	mov a,232
 146  0072  0200     R  	sub a,_Count_T2[0]
 146  0073  0F03        	mov a,3
 146  0074  1200     R  	sbc a,_Count_T2[1]
 146  0075  3C0A        	sz c
 146  0076  2800     R  	jmp _L21
 146  0077  0FE8        	mov a,-24
 146  0078  0080     R  	mov _Count_T2[0],a
 146  0079  0F03        	mov a,3
 146  007A  0080     R  	mov _Count_T2[1],a
 146  007B  2800     R  	jmp _L21
 146  007C              _L19:
 148  007C              #line 148 "C:\Users\hamed\Documents\project\touch 3key clock\touch-3key-clock\3ch-3key.h"
 148  007C  0FF6        	mov a,246
 148  007D  0300     R  	add a,_Count_C2[0]
 148  007E  0080     E  	mov rd,a
 148  007F  0FFF        	mov a,255
 148  0080  1300     R  	adc a,_Count_C2[1]
 148  0081  0080     E  	mov re,a
 148  0082  0FFF        	mov a,255
 148  0083  1300     R  	adc a,_Count_C2[2]
 148  0084  0080     E  	mov rf,a
 148  0085  0FFF        	mov a,255
 148  0086  1300     R  	adc a,_Count_C2[3]
 148  0087  0080     E  	mov rg,a
 148  0088  1080     E  	sz rg
 148  0089  2800     R  	jmp _L21
 148  008A  1080     E  	sz rf
 148  008B  2800     R  	jmp _L21
 148  008C  0700     E  	mov a,rd
 148  008D  0200     R  	sub a,_Count_S2[0]
 148  008E  0700     E  	mov a,re
 148  008F  1200     R  	sbc a,_Count_S2[1]
 148  0090  3C0A        	sz c
 148  0091  2800     R  	jmp _L21
 150  0092              #line 150 "C:\Users\hamed\Documents\project\touch 3key clock\touch-3key-clock\3ch-3key.h"
 150  0092  1F00     R  	clr _Count_T2[0]
 150  0093  1F00     R  	clr _Count_T2[1]
 151  0094              #line 151 "C:\Users\hamed\Documents\project\touch 3key clock\touch-3key-clock\3ch-3key.h"
"File: 3ch-3key.h    Assembler  Version HGASM0202      Page 9

 151  0094  3114        	set [20].2
 151  0095              _L21:
 153  0095              #line 153 "C:\Users\hamed\Documents\project\touch 3key clock\touch-3key-clock\3ch-3key.h"
 153  0095  0700     R  	mov a,_Count_T2[0]
 153  0096  0C32        	xor a,50
 153  0097  0500     R  	or a,_Count_T2[1]
 153  0098  390A        	snz z
 153  0099  2800     R  	jmp _L23
 155  009A              #line 155 "C:\Users\hamed\Documents\project\touch 3key clock\touch-3key-clock\3ch-3key.h"
 155  009A  3514        	clr [20].2
 157  009B              #line 157 "C:\Users\hamed\Documents\project\touch 3key clock\touch-3key-clock\3ch-3key.h"
 157  009B  1F00     R  	clr _CalibrCount2[0]
 158  009C              #line 158 "C:\Users\hamed\Documents\project\touch 3key clock\touch-3key-clock\3ch-3key.h"
 158  009C  1F00     R  	clr _CalibrSample2[0]
 159  009D              #line 159 "C:\Users\hamed\Documents\project\touch 3key clock\touch-3key-clock\3ch-3key.h"
 159  009D  1F00     R  	clr _Count_C2_Backup[0]
 159  009E  1F00     R  	clr _Count_C2_Backup[1]
 159  009F  1F00     R  	clr _Count_C2_Backup[2]
 159  00A0  1F00     R  	clr _Count_C2_Backup[3]
 159  00A1              _L23:
 163  00A1              #line 163 "C:\Users\hamed\Documents\project\touch 3key clock\touch-3key-clock\3ch-3key.h"
 163  00A1  0FD8        	mov a,216
 163  00A2  0300     R  	add a,_Count_C3[0]
 163  00A3  0080     E  	mov rd,a
 163  00A4  0FFF        	mov a,255
 163  00A5  1300     R  	adc a,_Count_C3[1]
 163  00A6  0080     E  	mov re,a
 163  00A7  0FFF        	mov a,255
 163  00A8  1300     R  	adc a,_Count_C3[2]
 163  00A9  0080     E  	mov rf,a
 163  00AA  0FFF        	mov a,255
 163  00AB  1300     R  	adc a,_Count_C3[3]
 163  00AC  0080     E  	mov rg,a
 163  00AD  0700     R  	mov a,_Count_S3[0]
 163  00AE  0200     E  	sub a,rd
 163  00AF  0700     R  	mov a,_Count_S3[1]
 163  00B0  1200     E  	sbc a,re
 163  00B1  1F05        	clr acc
 163  00B2  1200     E  	sbc a,rf
 163  00B3  1F05        	clr acc
 163  00B4  1200     E  	sbc a,rg
 163  00B5  3C0A        	sz c
 163  00B6  2800     R  	jmp _L24
 165  00B7              #line 165 "C:\Users\hamed\Documents\project\touch 3key clock\touch-3key-clock\3ch-3key.h"
 165  00B7  1480     R  	inc _Count_T3[0]
 165  00B8  3D0A        	sz z
 165  00B9  1480     R  	inc _Count_T3[1]
 165  00BA  0FE8        	mov a,232
 165  00BB  0200     R  	sub a,_Count_T3[0]
 165  00BC  0F03        	mov a,3
 165  00BD  1200     R  	sbc a,_Count_T3[1]
 165  00BE  3C0A        	sz c
 165  00BF  2800     R  	jmp _L26
 165  00C0  0FE8        	mov a,-24
 165  00C1  0080     R  	mov _Count_T3[0],a
 165  00C2  0F03        	mov a,3
 165  00C3  0080     R  	mov _Count_T3[1],a
 165  00C4  2800     R  	jmp _L26
 165  00C5              _L24:
 167  00C5              #line 167 "C:\Users\hamed\Documents\project\touch 3key clock\touch-3key-clock\3ch-3key.h"
"File: 3ch-3key.h    Assembler  Version HGASM0202      Page 10

 167  00C5  0FF6        	mov a,246
 167  00C6  0300     R  	add a,_Count_C3[0]
 167  00C7  0080     E  	mov rd,a
 167  00C8  0FFF        	mov a,255
 167  00C9  1300     R  	adc a,_Count_C3[1]
 167  00CA  0080     E  	mov re,a
 167  00CB  0FFF        	mov a,255
 167  00CC  1300     R  	adc a,_Count_C3[2]
 167  00CD  0080     E  	mov rf,a
 167  00CE  0FFF        	mov a,255
 167  00CF  1300     R  	adc a,_Count_C3[3]
 167  00D0  0080     E  	mov rg,a
 167  00D1  1080     E  	sz rg
 167  00D2  2800     R  	jmp _L26
 167  00D3  1080     E  	sz rf
 167  00D4  2800     R  	jmp _L26
 167  00D5  0700     E  	mov a,rd
 167  00D6  0200     R  	sub a,_Count_S3[0]
 167  00D7  0700     E  	mov a,re
 167  00D8  1200     R  	sbc a,_Count_S3[1]
 167  00D9  3C0A        	sz c
 167  00DA  2800     R  	jmp _L26
 169  00DB              #line 169 "C:\Users\hamed\Documents\project\touch 3key clock\touch-3key-clock\3ch-3key.h"
 169  00DB  1F00     R  	clr _Count_T3[0]
 169  00DC  1F00     R  	clr _Count_T3[1]
 170  00DD              #line 170 "C:\Users\hamed\Documents\project\touch 3key clock\touch-3key-clock\3ch-3key.h"
 170  00DD  3014        	set [20].0
 170  00DE              _L26:
 172  00DE              #line 172 "C:\Users\hamed\Documents\project\touch 3key clock\touch-3key-clock\3ch-3key.h"
 172  00DE  0700     R  	mov a,_Count_T3[0]
 172  00DF  0C32        	xor a,50
 172  00E0  0500     R  	or a,_Count_T3[1]
 172  00E1  390A        	snz z
 172  00E2  2800     R  	jmp _L12
 174  00E3              #line 174 "C:\Users\hamed\Documents\project\touch 3key clock\touch-3key-clock\3ch-3key.h"
 174  00E3  3414        	clr [20].0
 176  00E4              #line 176 "C:\Users\hamed\Documents\project\touch 3key clock\touch-3key-clock\3ch-3key.h"
 176  00E4  1F00     R  	clr _CalibrCount3[0]
 177  00E5              #line 177 "C:\Users\hamed\Documents\project\touch 3key clock\touch-3key-clock\3ch-3key.h"
 177  00E5  1F00     R  	clr _CalibrSample3[0]
 178  00E6              #line 178 "C:\Users\hamed\Documents\project\touch 3key clock\touch-3key-clock\3ch-3key.h"
 178  00E6  1F00     R  	clr _Count_C3_Backup[0]
 178  00E7  1F00     R  	clr _Count_C3_Backup[1]
 178  00E8  1F00     R  	clr _Count_C3_Backup[2]
 178  00E9  1F00     R  	clr _Count_C3_Backup[3]
 178  00EA              _L12:
 178  00EA  0003        	ret
 178  00EB              _Key_Touch endp
 178  00EB              #line 178 "C:\Users\hamed\Documents\project\touch 3key clock\touch-3key-clock\3ch-3key.h"
 178  00EB              #pragma debug scope 1 1
 178  00EB              ___tkm016dh equ [73]
 178  00EB              ___tkm016dl equ [72]
 178  00EB              public _CalibrTuoch
 178  00EB              #pragma debug scope 7 1
 184  00EB              #line 184 "C:\Users\hamed\Documents\project\touch 3key clock\touch-3key-clock\3ch-3key.h"
 184  0000              _CalibrTuoch .section 'code'
 184  0000              _CalibrTuoch proc
 184  0000  0006[           local _CalibrTuoch_2 db 6 dup(?)	; 0,6
            00
            ]
"File: 3ch-3key.h    Assembler  Version HGASM0202      Page 11

 186  0006              #line 186 "C:\Users\hamed\Documents\project\touch 3key clock\touch-3key-clock\3ch-3key.h"
 186  0000  36C4        	clr [68].5
 187  0001              #line 187 "C:\Users\hamed\Documents\project\touch 3key clock\touch-3key-clock\3ch-3key.h"
 187  0001  37CC        	clr [76].7
 187  0002  374C        	clr [76].6
 187  0003  0FF4        	mov a,-12
 187  0004  0080     R  	mov _delay_10us_2[0],a
 187  0005  0F01        	mov a,1
 187  0006  0080     R  	mov _delay_10us_2[1],a
 187  0007  1F00     R  	clr _delay_10us_2[2]
 187  0008  1F00     R  	clr _delay_10us_2[3]
 187  0009  2000     R  	call _delay_10us
 188  000A              #line 188 "C:\Users\hamed\Documents\project\touch 3key clock\touch-3key-clock\3ch-3key.h"
 188  000A              ;# 188 "C:\Users\hamed\Documents\project\touch 3key clock\touch-3key-clock\3ch-3key.h" 1
 188  000A  0001        	clr wdt
 189  000B              #line 189 "C:\Users\hamed\Documents\project\touch 3key clock\touch-3key-clock\3ch-3key.h"
 189  000B  1F00     R  	clr _i[0]
 189  000C              _L30:
 189  000C              #line 189 "C:\Users\hamed\Documents\project\touch 3key clock\touch-3key-clock\3ch-3key.h"
 189  000C  0F1D        	mov a,29
 189  000D  0200     R  	sub a,_i[0]
 189  000E  380A        	snz c
 189  000F  2800     R  	jmp _L42
 191  0010              #line 191 "C:\Users\hamed\Documents\project\touch 3key clock\touch-3key-clock\3ch-3key.h"
 191  0010  32CD        	set [77].5
 192  0011              #line 192 "C:\Users\hamed\Documents\project\touch 3key clock\touch-3key-clock\3ch-3key.h"
 192  0011  324D        	set [77].4
 193  0012              #line 193 "C:\Users\hamed\Documents\project\touch 3key clock\touch-3key-clock\3ch-3key.h"
 193  0012  32C4        	set [68].5
 195  0013              #line 195 "C:\Users\hamed\Documents\project\touch 3key clock\touch-3key-clock\3ch-3key.h"
 195  0013              ;# 195 "C:\Users\hamed\Documents\project\touch 3key clock\touch-3key-clock\3ch-3key.h" 1
 195  0013  0001        	clr wdt
 195  0014              _L32:
 196  0014              #line 196 "C:\Users\hamed\Documents\project\touch 3key clock\touch-3key-clock\3ch-3key.h"
 196  0014  3B44        	snz [68].6
 196  0015  2800     R  	jmp _L32
 197  0016              #line 197 "C:\Users\hamed\Documents\project\touch 3key clock\touch-3key-clock\3ch-3key.h"
 197  0016  0749        	mov a,[73]
 197  0017  0080     R  	mov _CalibrTuoch_2[1],a
 197  0018  1F00     R  	clr _CalibrTuoch_2[0]
 197  0019  0700     R  	mov a,_CalibrTuoch_2[1]
 197  001A  0080     R  	mov _Count_S1[1],a
 197  001B  0748        	mov a,[72]
 197  001C  0500     R  	or a,_CalibrTuoch_2[0]
 197  001D  0080     R  	mov _Count_S1[0],a
 198  001E              #line 198 "C:\Users\hamed\Documents\project\touch 3key clock\touch-3key-clock\3ch-3key.h"
 198  001E  0700     R  	mov a,_Count_S1[0]
 198  001F  0380     R  	addm a,_Count_C1[0]
 198  0020  0700     R  	mov a,_Count_S1[1]
 198  0021  1380     R  	adcm a,_Count_C1[1]
 198  0022  1F05        	clr acc
 198  0023  1380     R  	adcm a,_Count_C1[2]
 198  0024  1380     R  	adcm a,_Count_C1[3]
 199  0025              #line 199 "C:\Users\hamed\Documents\project\touch 3key clock\touch-3key-clock\3ch-3key.h"
 199  0025  3744        	clr [68].6
 200  0026              #line 200 "C:\Users\hamed\Documents\project\touch 3key clock\touch-3key-clock\3ch-3key.h"
 200  0026  36C4        	clr [68].5
 201  0027              #line 201 "C:\Users\hamed\Documents\project\touch 3key clock\touch-3key-clock\3ch-3key.h"
 201  0027              ;# 201 "C:\Users\hamed\Documents\project\touch 3key clock\touch-3key-clock\3ch-3key.h" 1
 201  0027  0001        	clr wdt
"File: 3ch-3key.h    Assembler  Version HGASM0202      Page 12

 202  0028              #line 202 "C:\Users\hamed\Documents\project\touch 3key clock\touch-3key-clock\3ch-3key.h"
 202  0028  0F05        	mov a,5
 202  0029  0080     R  	mov _delay_ms_2[0],a
 202  002A  1F00     R  	clr _delay_ms_2[1]
 202  002B  1F00     R  	clr _delay_ms_2[2]
 202  002C  1F00     R  	clr _delay_ms_2[3]
 202  002D  2000     R  	call _delay_ms
 189  002E              #line 189 "C:\Users\hamed\Documents\project\touch 3key clock\touch-3key-clock\3ch-3key.h"
 189  002E  1480     R  	inc _i[0]
 189  002F  2800     R  	jmp _L30
 189  0030              _L42:
 204  0030              #line 204 "C:\Users\hamed\Documents\project\touch 3key clock\touch-3key-clock\3ch-3key.h"
 204  0030  1F00     E  	clr _builtin_holtek_udivmodsi4_2[12]
 204  0031  0700     R  	mov a,_Count_C1[0]  
 204  0032  0080     E  	mov _builtin_holtek_udivmodsi4_2[0],a  
 204  0033  0700     R  	mov a,_Count_C1[1]  
 204  0034  0080     E  	mov _builtin_holtek_udivmodsi4_2[1],a
 204  0035  0700     R  	mov a,_Count_C1[2]  
 204  0036  0080     E  	mov _builtin_holtek_udivmodsi4_2[2],a  
 204  0037  0700     R  	mov a,_Count_C1[3]  
 204  0038  0080     E  	mov _builtin_holtek_udivmodsi4_2[3],a
 204  0039  0F1E        	mov a,30  
 204  003A  0080     E  	mov _builtin_holtek_udivmodsi4_2[4],a  
 204  003B  0F00        	mov a,0  
 204  003C  0080     E  	mov _builtin_holtek_udivmodsi4_2[5],a
 204  003D  1F00     E  	clr _builtin_holtek_udivmodsi4_2[6]
 204  003E  1F00     E  	clr _builtin_holtek_udivmodsi4_2[7]
 204  003F  2000     E  	call _builtin_holtek_udivmodsi4
 204  0040  0700     E  	mov a,_builtin_holtek_udivmodsi4_2[0]  
 204  0041  0080     R  	mov _Count_C1[0],a  
 204  0042  0700     E  	mov a,_builtin_holtek_udivmodsi4_2[1]  
 204  0043  0080     R  	mov _Count_C1[1],a
 204  0044  0700     E  	mov a,_builtin_holtek_udivmodsi4_2[2]  
 204  0045  0080     R  	mov _Count_C1[2],a  
 204  0046  0700     E  	mov a,_builtin_holtek_udivmodsi4_2[3]  
 204  0047  0080     R  	mov _Count_C1[3],a
 207  0048              #line 207 "C:\Users\hamed\Documents\project\touch 3key clock\touch-3key-clock\3ch-3key.h"
 207  0048  36C4        	clr [68].5
 208  0049              #line 208 "C:\Users\hamed\Documents\project\touch 3key clock\touch-3key-clock\3ch-3key.h"
 208  0049  37CC        	clr [76].7
 208  004A  334C        	set [76].6
 208  004B  0FF4        	mov a,-12
 208  004C  0080     R  	mov _delay_10us_2[0],a
 208  004D  0F01        	mov a,1
 208  004E  0080     R  	mov _delay_10us_2[1],a
 208  004F  1F00     R  	clr _delay_10us_2[2]
 208  0050  1F00     R  	clr _delay_10us_2[3]
 208  0051  2000     R  	call _delay_10us
 209  0052              #line 209 "C:\Users\hamed\Documents\project\touch 3key clock\touch-3key-clock\3ch-3key.h"
 209  0052              ;# 209 "C:\Users\hamed\Documents\project\touch 3key clock\touch-3key-clock\3ch-3key.h" 1
 209  0052  0001        	clr wdt
 210  0053              #line 210 "C:\Users\hamed\Documents\project\touch 3key clock\touch-3key-clock\3ch-3key.h"
 210  0053  1F00     R  	clr _i[0]
 210  0054              _L34:
 210  0054  0F1D        	mov a,29
 210  0055  0200     R  	sub a,_i[0]
 210  0056  380A        	snz c
 210  0057  2800     R  	jmp _L43
 212  0058              #line 212 "C:\Users\hamed\Documents\project\touch 3key clock\touch-3key-clock\3ch-3key.h"
 212  0058  32CD        	set [77].5
"File: 3ch-3key.h    Assembler  Version HGASM0202      Page 13

 213  0059              #line 213 "C:\Users\hamed\Documents\project\touch 3key clock\touch-3key-clock\3ch-3key.h"
 213  0059  324D        	set [77].4
 214  005A              #line 214 "C:\Users\hamed\Documents\project\touch 3key clock\touch-3key-clock\3ch-3key.h"
 214  005A  32C4        	set [68].5
 216  005B              #line 216 "C:\Users\hamed\Documents\project\touch 3key clock\touch-3key-clock\3ch-3key.h"
 216  005B              ;# 216 "C:\Users\hamed\Documents\project\touch 3key clock\touch-3key-clock\3ch-3key.h" 1
 216  005B  0001        	clr wdt
 216  005C              _L36:
 217  005C              #line 217 "C:\Users\hamed\Documents\project\touch 3key clock\touch-3key-clock\3ch-3key.h"
 217  005C  3B44        	snz [68].6
 217  005D  2800     R  	jmp _L36
 218  005E              #line 218 "C:\Users\hamed\Documents\project\touch 3key clock\touch-3key-clock\3ch-3key.h"
 218  005E  0749        	mov a,[73]
 218  005F  0080     R  	mov _CalibrTuoch_2[3],a
 218  0060  1F00     R  	clr _CalibrTuoch_2[2]
 218  0061  0700     R  	mov a,_CalibrTuoch_2[3]
 218  0062  0080     R  	mov _Count_S2[1],a
 218  0063  0748        	mov a,[72]
 218  0064  0500     R  	or a,_CalibrTuoch_2[2]
 218  0065  0080     R  	mov _Count_S2[0],a
 219  0066              #line 219 "C:\Users\hamed\Documents\project\touch 3key clock\touch-3key-clock\3ch-3key.h"
 219  0066  0700     R  	mov a,_Count_S2[0]
 219  0067  0380     R  	addm a,_Count_C2[0]
 219  0068  0700     R  	mov a,_Count_S2[1]
 219  0069  1380     R  	adcm a,_Count_C2[1]
 219  006A  1F05        	clr acc
 219  006B  1380     R  	adcm a,_Count_C2[2]
 219  006C  1380     R  	adcm a,_Count_C2[3]
 220  006D              #line 220 "C:\Users\hamed\Documents\project\touch 3key clock\touch-3key-clock\3ch-3key.h"
 220  006D  3744        	clr [68].6
 221  006E              #line 221 "C:\Users\hamed\Documents\project\touch 3key clock\touch-3key-clock\3ch-3key.h"
 221  006E  36C4        	clr [68].5
 222  006F              #line 222 "C:\Users\hamed\Documents\project\touch 3key clock\touch-3key-clock\3ch-3key.h"
 222  006F              ;# 222 "C:\Users\hamed\Documents\project\touch 3key clock\touch-3key-clock\3ch-3key.h" 1
 222  006F  0001        	clr wdt
 223  0070              #line 223 "C:\Users\hamed\Documents\project\touch 3key clock\touch-3key-clock\3ch-3key.h"
 223  0070  0F05        	mov a,5
 223  0071  0080     R  	mov _delay_ms_2[0],a
 223  0072  1F00     R  	clr _delay_ms_2[1]
 223  0073  1F00     R  	clr _delay_ms_2[2]
 223  0074  1F00     R  	clr _delay_ms_2[3]
 223  0075  2000     R  	call _delay_ms
 210  0076              #line 210 "C:\Users\hamed\Documents\project\touch 3key clock\touch-3key-clock\3ch-3key.h"
 210  0076  1480     R  	inc _i[0]
 210  0077  2800     R  	jmp _L34
 210  0078              _L43:
 225  0078              #line 225 "C:\Users\hamed\Documents\project\touch 3key clock\touch-3key-clock\3ch-3key.h"
 225  0078  1F00     E  	clr _builtin_holtek_udivmodsi4_2[12]
 225  0079  0700     R  	mov a,_Count_C2[0]  
 225  007A  0080     E  	mov _builtin_holtek_udivmodsi4_2[0],a  
 225  007B  0700     R  	mov a,_Count_C2[1]  
 225  007C  0080     E  	mov _builtin_holtek_udivmodsi4_2[1],a
 225  007D  0700     R  	mov a,_Count_C2[2]  
 225  007E  0080     E  	mov _builtin_holtek_udivmodsi4_2[2],a  
 225  007F  0700     R  	mov a,_Count_C2[3]  
 225  0080  0080     E  	mov _builtin_holtek_udivmodsi4_2[3],a
 225  0081  0F1E        	mov a,30  
 225  0082  0080     E  	mov _builtin_holtek_udivmodsi4_2[4],a  
 225  0083  0F00        	mov a,0  
 225  0084  0080     E  	mov _builtin_holtek_udivmodsi4_2[5],a
"File: 3ch-3key.h    Assembler  Version HGASM0202      Page 14

 225  0085  1F00     E  	clr _builtin_holtek_udivmodsi4_2[6]
 225  0086  1F00     E  	clr _builtin_holtek_udivmodsi4_2[7]
 225  0087  2000     E  	call _builtin_holtek_udivmodsi4
 225  0088  0700     E  	mov a,_builtin_holtek_udivmodsi4_2[0]  
 225  0089  0080     R  	mov _Count_C2[0],a  
 225  008A  0700     E  	mov a,_builtin_holtek_udivmodsi4_2[1]  
 225  008B  0080     R  	mov _Count_C2[1],a
 225  008C  0700     E  	mov a,_builtin_holtek_udivmodsi4_2[2]  
 225  008D  0080     R  	mov _Count_C2[2],a  
 225  008E  0700     E  	mov a,_builtin_holtek_udivmodsi4_2[3]  
 225  008F  0080     R  	mov _Count_C2[3],a
 228  0090              #line 228 "C:\Users\hamed\Documents\project\touch 3key clock\touch-3key-clock\3ch-3key.h"
 228  0090  36C4        	clr [68].5
 229  0091              #line 229 "C:\Users\hamed\Documents\project\touch 3key clock\touch-3key-clock\3ch-3key.h"
 229  0091  33CC        	set [76].7
 229  0092  374C        	clr [76].6
 229  0093  0FF4        	mov a,-12
 229  0094  0080     R  	mov _delay_10us_2[0],a
 229  0095  0F01        	mov a,1
 229  0096  0080     R  	mov _delay_10us_2[1],a
 229  0097  1F00     R  	clr _delay_10us_2[2]
 229  0098  1F00     R  	clr _delay_10us_2[3]
 229  0099  2000     R  	call _delay_10us
 230  009A              #line 230 "C:\Users\hamed\Documents\project\touch 3key clock\touch-3key-clock\3ch-3key.h"
 230  009A              ;# 230 "C:\Users\hamed\Documents\project\touch 3key clock\touch-3key-clock\3ch-3key.h" 1
 230  009A  0001        	clr wdt
 231  009B              #line 231 "C:\Users\hamed\Documents\project\touch 3key clock\touch-3key-clock\3ch-3key.h"
 231  009B  1F00     R  	clr _i[0]
 231  009C              _L38:
 231  009C  0F1D        	mov a,29
 231  009D  0200     R  	sub a,_i[0]
 231  009E  380A        	snz c
 231  009F  2800     R  	jmp _L44
 233  00A0              #line 233 "C:\Users\hamed\Documents\project\touch 3key clock\touch-3key-clock\3ch-3key.h"
 233  00A0  32CD        	set [77].5
 234  00A1              #line 234 "C:\Users\hamed\Documents\project\touch 3key clock\touch-3key-clock\3ch-3key.h"
 234  00A1  324D        	set [77].4
 235  00A2              #line 235 "C:\Users\hamed\Documents\project\touch 3key clock\touch-3key-clock\3ch-3key.h"
 235  00A2  32C4        	set [68].5
 237  00A3              #line 237 "C:\Users\hamed\Documents\project\touch 3key clock\touch-3key-clock\3ch-3key.h"
 237  00A3              ;# 237 "C:\Users\hamed\Documents\project\touch 3key clock\touch-3key-clock\3ch-3key.h" 1
 237  00A3  0001        	clr wdt
 237  00A4              _L40:
 238  00A4              #line 238 "C:\Users\hamed\Documents\project\touch 3key clock\touch-3key-clock\3ch-3key.h"
 238  00A4  3B44        	snz [68].6
 238  00A5  2800     R  	jmp _L40
 239  00A6              #line 239 "C:\Users\hamed\Documents\project\touch 3key clock\touch-3key-clock\3ch-3key.h"
 239  00A6  0749        	mov a,[73]
 239  00A7  0080     R  	mov _CalibrTuoch_2[5],a
 239  00A8  1F00     R  	clr _CalibrTuoch_2[4]
 239  00A9  0700     R  	mov a,_CalibrTuoch_2[5]
 239  00AA  0080     R  	mov _Count_S3[1],a
 239  00AB  0748        	mov a,[72]
 239  00AC  0500     R  	or a,_CalibrTuoch_2[4]
 239  00AD  0080     R  	mov _Count_S3[0],a
 240  00AE              #line 240 "C:\Users\hamed\Documents\project\touch 3key clock\touch-3key-clock\3ch-3key.h"
 240  00AE  0700     R  	mov a,_Count_S3[0]
 240  00AF  0380     R  	addm a,_Count_C3[0]
 240  00B0  0700     R  	mov a,_Count_S3[1]
 240  00B1  1380     R  	adcm a,_Count_C3[1]
"File: 3ch-3key.h    Assembler  Version HGASM0202      Page 15

 240  00B2  1F05        	clr acc
 240  00B3  1380     R  	adcm a,_Count_C3[2]
 240  00B4  1380     R  	adcm a,_Count_C3[3]
 241  00B5              #line 241 "C:\Users\hamed\Documents\project\touch 3key clock\touch-3key-clock\3ch-3key.h"
 241  00B5  3744        	clr [68].6
 242  00B6              #line 242 "C:\Users\hamed\Documents\project\touch 3key clock\touch-3key-clock\3ch-3key.h"
 242  00B6  36C4        	clr [68].5
 243  00B7              #line 243 "C:\Users\hamed\Documents\project\touch 3key clock\touch-3key-clock\3ch-3key.h"
 243  00B7              ;# 243 "C:\Users\hamed\Documents\project\touch 3key clock\touch-3key-clock\3ch-3key.h" 1
 243  00B7  0001        	clr wdt
 244  00B8              #line 244 "C:\Users\hamed\Documents\project\touch 3key clock\touch-3key-clock\3ch-3key.h"
 244  00B8  0F05        	mov a,5
 244  00B9  0080     R  	mov _delay_ms_2[0],a
 244  00BA  1F00     R  	clr _delay_ms_2[1]
 244  00BB  1F00     R  	clr _delay_ms_2[2]
 244  00BC  1F00     R  	clr _delay_ms_2[3]
 244  00BD  2000     R  	call _delay_ms
 231  00BE              #line 231 "C:\Users\hamed\Documents\project\touch 3key clock\touch-3key-clock\3ch-3key.h"
 231  00BE  1480     R  	inc _i[0]
 231  00BF  2800     R  	jmp _L38
 231  00C0              _L44:
 246  00C0              #line 246 "C:\Users\hamed\Documents\project\touch 3key clock\touch-3key-clock\3ch-3key.h"
 246  00C0  1F00     E  	clr _builtin_holtek_udivmodsi4_2[12]
 246  00C1  0700     R  	mov a,_Count_C3[0]  
 246  00C2  0080     E  	mov _builtin_holtek_udivmodsi4_2[0],a  
 246  00C3  0700     R  	mov a,_Count_C3[1]  
 246  00C4  0080     E  	mov _builtin_holtek_udivmodsi4_2[1],a
 246  00C5  0700     R  	mov a,_Count_C3[2]  
 246  00C6  0080     E  	mov _builtin_holtek_udivmodsi4_2[2],a  
 246  00C7  0700     R  	mov a,_Count_C3[3]  
 246  00C8  0080     E  	mov _builtin_holtek_udivmodsi4_2[3],a
 246  00C9  0F1E        	mov a,30  
 246  00CA  0080     E  	mov _builtin_holtek_udivmodsi4_2[4],a  
 246  00CB  0F00        	mov a,0  
 246  00CC  0080     E  	mov _builtin_holtek_udivmodsi4_2[5],a
 246  00CD  1F00     E  	clr _builtin_holtek_udivmodsi4_2[6]
 246  00CE  1F00     E  	clr _builtin_holtek_udivmodsi4_2[7]
 246  00CF  2000     E  	call _builtin_holtek_udivmodsi4
 246  00D0  0700     E  	mov a,_builtin_holtek_udivmodsi4_2[0]  
 246  00D1  0080     R  	mov _Count_C3[0],a  
 246  00D2  0700     E  	mov a,_builtin_holtek_udivmodsi4_2[1]  
 246  00D3  0080     R  	mov _Count_C3[1],a
 246  00D4  0700     E  	mov a,_builtin_holtek_udivmodsi4_2[2]  
 246  00D5  0080     R  	mov _Count_C3[2],a  
 246  00D6  0700     E  	mov a,_builtin_holtek_udivmodsi4_2[3]  
 246  00D7  0080     R  	mov _Count_C3[3],a
 249  00D8              #line 249 "C:\Users\hamed\Documents\project\touch 3key clock\touch-3key-clock\3ch-3key.h"
 249  00D8              ;# 249 "C:\Users\hamed\Documents\project\touch 3key clock\touch-3key-clock\3ch-3key.h" 1
 249  00D8  0001        	clr wdt
 249  00D9  0003        	ret
 249  00DA              _CalibrTuoch endp
 249  00DA              #line 249 "C:\Users\hamed\Documents\project\touch 3key clock\touch-3key-clock\3ch-3key.h"
 249  00DA              #pragma debug scope 1 1
 249  00DA              public _Key_Select
 249  00DA              #pragma debug scope 8 1
 254  00DA              #line 254 "C:\Users\hamed\Documents\project\touch 3key clock\touch-3key-clock\3ch-3key.h"
 254  0000              _Key_Select .section 'code'
 254  0000              _Key_Select proc
 254  0000  00              local _Key_Select_2 db 1 dup(?)	; 0,1
 254  0000  0080     E  	mov ra,a
"File: 3ch-3key.h    Assembler  Version HGASM0202      Page 16

 254  0001  0080     R  	mov _Key_Select_2[0],a
 254  0002              #pragma debug variable 7 8 _Key_Select_2+0 "sel"
 256  0002              #line 256 "C:\Users\hamed\Documents\project\touch 3key clock\touch-3key-clock\3ch-3key.h"
 256  0002  1080     E  	sz ra
 256  0003  2800     R  	jmp _L46
 257  0004              #line 257 "C:\Users\hamed\Documents\project\touch 3key clock\touch-3key-clock\3ch-3key.h"
 257  0004  32CD        	set [77].5
 257  0005  324D        	set [77].4
 257  0006  32C4        	set [68].5
 257  0007  37CC        	clr [76].7
 257  0008  374C        	clr [76].6
 257  0009              _L47:
 259  0009              #line 259 "C:\Users\hamed\Documents\project\touch 3key clock\touch-3key-clock\3ch-3key.h"
 259  0009  3F44        	sz [68].6
 259  000A  2800     R  	jmp _L65
 259  000B              ;# 259 "C:\Users\hamed\Documents\project\touch 3key clock\touch-3key-clock\3ch-3key.h" 1
 259  000B  0000        	nop
 259  000C  2800     R  	jmp _L47
 259  000D              _L65:
 260  000D              #line 260 "C:\Users\hamed\Documents\project\touch 3key clock\touch-3key-clock\3ch-3key.h"
 260  000D  0749        	mov a,[73]
 260  000E  0080     E  	mov rc,a
 260  000F  1F00     E  	clr rb
 260  0010  0700     E  	mov a,rc
 260  0011  0080     R  	mov _Count_S1[1],a
 260  0012  0748        	mov a,[72]
 260  0013  0500     E  	or a,rb
 260  0014  0080     R  	mov _Count_S1[0],a
 261  0015              #line 261 "C:\Users\hamed\Documents\project\touch 3key clock\touch-3key-clock\3ch-3key.h"
 261  0015  0700     R  	mov a,_rgbchange[0]
 261  0016  0500     R  	or a,_rgbchange[1]
 261  0017  390A        	snz z
 261  0018  2800     R  	jmp _L49
 261  0019  1480     R  	inc _CalibrCount1[0]
 261  001A              _L49:
 262  001A              #line 262 "C:\Users\hamed\Documents\project\touch 3key clock\touch-3key-clock\3ch-3key.h"
 262  001A  0F64        	mov a,100
 262  001B  0200     R  	sub a,_CalibrCount1[0]
 262  001C  3C0A        	sz c
 262  001D  2800     R  	jmp _L63
 264  001E              #line 264 "C:\Users\hamed\Documents\project\touch 3key clock\touch-3key-clock\3ch-3key.h"
 264  001E  1F00     R  	clr _CalibrCount1[0]
 265  001F              #line 265 "C:\Users\hamed\Documents\project\touch 3key clock\touch-3key-clock\3ch-3key.h"
 265  001F  0700     R  	mov a,_Count_S1[0]
 265  0020  0380     R  	addm a,_Count_C1_Backup[0]
 265  0021  0700     R  	mov a,_Count_S1[1]
 265  0022  1380     R  	adcm a,_Count_C1_Backup[1]
 265  0023  1F05        	clr acc
 265  0024  1380     R  	adcm a,_Count_C1_Backup[2]
 265  0025  1380     R  	adcm a,_Count_C1_Backup[3]
 266  0026              #line 266 "C:\Users\hamed\Documents\project\touch 3key clock\touch-3key-clock\3ch-3key.h"
 266  0026  1480     R  	inc _CalibrSample1[0]
 267  0027              #line 267 "C:\Users\hamed\Documents\project\touch 3key clock\touch-3key-clock\3ch-3key.h"
 267  0027  0F13        	mov a,19
 267  0028  0200     R  	sub a,_CalibrSample1[0]
 267  0029  3C0A        	sz c
 267  002A  2800     R  	jmp _L63
 269  002B              #line 269 "C:\Users\hamed\Documents\project\touch 3key clock\touch-3key-clock\3ch-3key.h"
 269  002B  1F00     R  	clr _CalibrSample1[0]
 270  002C              #line 270 "C:\Users\hamed\Documents\project\touch 3key clock\touch-3key-clock\3ch-3key.h"
"File: 3ch-3key.h    Assembler  Version HGASM0202      Page 17

 270  002C  1F00     E  	clr _builtin_holtek_udivmodsi4_2[12]
 270  002D  0700     R  	mov a,_Count_C1_Backup[0]  
 270  002E  0080     E  	mov _builtin_holtek_udivmodsi4_2[0],a  
 270  002F  0700     R  	mov a,_Count_C1_Backup[1]  
 270  0030  0080     E  	mov _builtin_holtek_udivmodsi4_2[1],a
 270  0031  0700     R  	mov a,_Count_C1_Backup[2]  
 270  0032  0080     E  	mov _builtin_holtek_udivmodsi4_2[2],a  
 270  0033  0700     R  	mov a,_Count_C1_Backup[3]  
 270  0034  0080     E  	mov _builtin_holtek_udivmodsi4_2[3],a
 270  0035  0F14        	mov a,20  
 270  0036  0080     E  	mov _builtin_holtek_udivmodsi4_2[4],a  
 270  0037  0F00        	mov a,0  
 270  0038  0080     E  	mov _builtin_holtek_udivmodsi4_2[5],a
 270  0039  1F00     E  	clr _builtin_holtek_udivmodsi4_2[6]
 270  003A  1F00     E  	clr _builtin_holtek_udivmodsi4_2[7]
 270  003B  2000     E  	call _builtin_holtek_udivmodsi4
 270  003C  0700     E  	mov a,_builtin_holtek_udivmodsi4_2[0]  
 270  003D  0080     R  	mov _Count_C1[0],a  
 270  003E  0700     E  	mov a,_builtin_holtek_udivmodsi4_2[1]  
 270  003F  0080     R  	mov _Count_C1[1],a
 270  0040  0700     E  	mov a,_builtin_holtek_udivmodsi4_2[2]  
 270  0041  0080     R  	mov _Count_C1[2],a  
 270  0042  0700     E  	mov a,_builtin_holtek_udivmodsi4_2[3]  
 270  0043  0080     R  	mov _Count_C1[3],a
 271  0044              #line 271 "C:\Users\hamed\Documents\project\touch 3key clock\touch-3key-clock\3ch-3key.h"
 271  0044  1F00     R  	clr _Count_C1_Backup[0]
 271  0045  1F00     R  	clr _Count_C1_Backup[1]
 271  0046  1F00     R  	clr _Count_C1_Backup[2]
 271  0047  1F00     R  	clr _Count_C1_Backup[3]
 271  0048  2800     R  	jmp _L63
 271  0049              _L46:
 279  0049              #line 279 "C:\Users\hamed\Documents\project\touch 3key clock\touch-3key-clock\3ch-3key.h"
 279  0049  1700     R  	sdza _Key_Select_2[0]
 279  004A  2800     R  	jmp _L54
 280  004B              #line 280 "C:\Users\hamed\Documents\project\touch 3key clock\touch-3key-clock\3ch-3key.h"
 280  004B  32CD        	set [77].5
 280  004C  324D        	set [77].4
 280  004D  32C4        	set [68].5
 280  004E  37CC        	clr [76].7
 280  004F  334C        	set [76].6
 280  0050              _L55:
 282  0050              #line 282 "C:\Users\hamed\Documents\project\touch 3key clock\touch-3key-clock\3ch-3key.h"
 282  0050  3F44        	sz [68].6
 282  0051  2800     R  	jmp _L66
 282  0052              ;# 282 "C:\Users\hamed\Documents\project\touch 3key clock\touch-3key-clock\3ch-3key.h" 1
 282  0052  0000        	nop
 282  0053  2800     R  	jmp _L55
 282  0054              _L66:
 283  0054              #line 283 "C:\Users\hamed\Documents\project\touch 3key clock\touch-3key-clock\3ch-3key.h"
 283  0054  0749        	mov a,[73]
 283  0055  0080     E  	mov rc,a
 283  0056  1F00     E  	clr rb
 283  0057  0700     E  	mov a,rc
 283  0058  0080     R  	mov _Count_S2[1],a
 283  0059  0748        	mov a,[72]
 283  005A  0500     E  	or a,rb
 283  005B  0080     R  	mov _Count_S2[0],a
 284  005C              #line 284 "C:\Users\hamed\Documents\project\touch 3key clock\touch-3key-clock\3ch-3key.h"
 284  005C  1480     R  	inc _CalibrCount2[0]
 285  005D              #line 285 "C:\Users\hamed\Documents\project\touch 3key clock\touch-3key-clock\3ch-3key.h"
"File: 3ch-3key.h    Assembler  Version HGASM0202      Page 18

 285  005D  0F64        	mov a,100
 285  005E  0200     R  	sub a,_CalibrCount2[0]
 285  005F  3C0A        	sz c
 285  0060  2800     R  	jmp _L63
 287  0061              #line 287 "C:\Users\hamed\Documents\project\touch 3key clock\touch-3key-clock\3ch-3key.h"
 287  0061  1F00     R  	clr _CalibrCount2[0]
 288  0062              #line 288 "C:\Users\hamed\Documents\project\touch 3key clock\touch-3key-clock\3ch-3key.h"
 288  0062  0700     R  	mov a,_Count_S2[0]
 288  0063  0380     R  	addm a,_Count_C2_Backup[0]
 288  0064  0700     R  	mov a,_Count_S2[1]
 288  0065  1380     R  	adcm a,_Count_C2_Backup[1]
 288  0066  1F05        	clr acc
 288  0067  1380     R  	adcm a,_Count_C2_Backup[2]
 288  0068  1380     R  	adcm a,_Count_C2_Backup[3]
 289  0069              #line 289 "C:\Users\hamed\Documents\project\touch 3key clock\touch-3key-clock\3ch-3key.h"
 289  0069  1480     R  	inc _CalibrSample2[0]
 290  006A              #line 290 "C:\Users\hamed\Documents\project\touch 3key clock\touch-3key-clock\3ch-3key.h"
 290  006A  0F13        	mov a,19
 290  006B  0200     R  	sub a,_CalibrSample2[0]
 290  006C  3C0A        	sz c
 290  006D  2800     R  	jmp _L63
 292  006E              #line 292 "C:\Users\hamed\Documents\project\touch 3key clock\touch-3key-clock\3ch-3key.h"
 292  006E  1F00     R  	clr _CalibrSample2[0]
 293  006F              #line 293 "C:\Users\hamed\Documents\project\touch 3key clock\touch-3key-clock\3ch-3key.h"
 293  006F  1F00     E  	clr _builtin_holtek_udivmodsi4_2[12]
 293  0070  0700     R  	mov a,_Count_C2_Backup[0]  
 293  0071  0080     E  	mov _builtin_holtek_udivmodsi4_2[0],a  
 293  0072  0700     R  	mov a,_Count_C2_Backup[1]  
 293  0073  0080     E  	mov _builtin_holtek_udivmodsi4_2[1],a
 293  0074  0700     R  	mov a,_Count_C2_Backup[2]  
 293  0075  0080     E  	mov _builtin_holtek_udivmodsi4_2[2],a  
 293  0076  0700     R  	mov a,_Count_C2_Backup[3]  
 293  0077  0080     E  	mov _builtin_holtek_udivmodsi4_2[3],a
 293  0078  0F14        	mov a,20  
 293  0079  0080     E  	mov _builtin_holtek_udivmodsi4_2[4],a  
 293  007A  0F00        	mov a,0  
 293  007B  0080     E  	mov _builtin_holtek_udivmodsi4_2[5],a
 293  007C  1F00     E  	clr _builtin_holtek_udivmodsi4_2[6]
 293  007D  1F00     E  	clr _builtin_holtek_udivmodsi4_2[7]
 293  007E  2000     E  	call _builtin_holtek_udivmodsi4
 293  007F  0700     E  	mov a,_builtin_holtek_udivmodsi4_2[0]  
 293  0080  0080     R  	mov _Count_C2[0],a  
 293  0081  0700     E  	mov a,_builtin_holtek_udivmodsi4_2[1]  
 293  0082  0080     R  	mov _Count_C2[1],a
 293  0083  0700     E  	mov a,_builtin_holtek_udivmodsi4_2[2]  
 293  0084  0080     R  	mov _Count_C2[2],a  
 293  0085  0700     E  	mov a,_builtin_holtek_udivmodsi4_2[3]  
 293  0086  0080     R  	mov _Count_C2[3],a
 294  0087              #line 294 "C:\Users\hamed\Documents\project\touch 3key clock\touch-3key-clock\3ch-3key.h"
 294  0087  1F00     R  	clr _Count_C2_Backup[0]
 294  0088  1F00     R  	clr _Count_C2_Backup[1]
 294  0089  1F00     R  	clr _Count_C2_Backup[2]
 294  008A  1F00     R  	clr _Count_C2_Backup[3]
 294  008B  2800     R  	jmp _L63
 294  008C              _L54:
 302  008C              #line 302 "C:\Users\hamed\Documents\project\touch 3key clock\touch-3key-clock\3ch-3key.h"
 302  008C  0700     R  	mov a,_Key_Select_2[0]
 302  008D  0A02        	sub a,2
 302  008E  390A        	snz z
 302  008F  2800     R  	jmp _L45
"File: 3ch-3key.h    Assembler  Version HGASM0202      Page 19

 303  0090              #line 303 "C:\Users\hamed\Documents\project\touch 3key clock\touch-3key-clock\3ch-3key.h"
 303  0090  32CD        	set [77].5
 303  0091  324D        	set [77].4
 303  0092  32C4        	set [68].5
 303  0093  33CC        	set [76].7
 303  0094  374C        	clr [76].6
 303  0095              _L60:
 305  0095              #line 305 "C:\Users\hamed\Documents\project\touch 3key clock\touch-3key-clock\3ch-3key.h"
 305  0095  3F44        	sz [68].6
 305  0096  2800     R  	jmp _L67
 305  0097              ;# 305 "C:\Users\hamed\Documents\project\touch 3key clock\touch-3key-clock\3ch-3key.h" 1
 305  0097  0000        	nop
 305  0098  2800     R  	jmp _L60
 305  0099              _L67:
 306  0099              #line 306 "C:\Users\hamed\Documents\project\touch 3key clock\touch-3key-clock\3ch-3key.h"
 306  0099  0749        	mov a,[73]
 306  009A  0080     E  	mov rc,a
 306  009B  1F00     E  	clr rb
 306  009C  0700     E  	mov a,rc
 306  009D  0080     R  	mov _Count_S3[1],a
 306  009E  0748        	mov a,[72]
 306  009F  0500     E  	or a,rb
 306  00A0  0080     R  	mov _Count_S3[0],a
 307  00A1              #line 307 "C:\Users\hamed\Documents\project\touch 3key clock\touch-3key-clock\3ch-3key.h"
 307  00A1  1480     R  	inc _CalibrCount3[0]
 308  00A2              #line 308 "C:\Users\hamed\Documents\project\touch 3key clock\touch-3key-clock\3ch-3key.h"
 308  00A2  0F64        	mov a,100
 308  00A3  0200     R  	sub a,_CalibrCount3[0]
 308  00A4  3C0A        	sz c
 308  00A5  2800     R  	jmp _L63
 310  00A6              #line 310 "C:\Users\hamed\Documents\project\touch 3key clock\touch-3key-clock\3ch-3key.h"
 310  00A6  1F00     R  	clr _CalibrCount3[0]
 311  00A7              #line 311 "C:\Users\hamed\Documents\project\touch 3key clock\touch-3key-clock\3ch-3key.h"
 311  00A7  0700     R  	mov a,_Count_S3[0]
 311  00A8  0380     R  	addm a,_Count_C3_Backup[0]
 311  00A9  0700     R  	mov a,_Count_S3[1]
 311  00AA  1380     R  	adcm a,_Count_C3_Backup[1]
 311  00AB  1F05        	clr acc
 311  00AC  1380     R  	adcm a,_Count_C3_Backup[2]
 311  00AD  1380     R  	adcm a,_Count_C3_Backup[3]
 312  00AE              #line 312 "C:\Users\hamed\Documents\project\touch 3key clock\touch-3key-clock\3ch-3key.h"
 312  00AE  1480     R  	inc _CalibrSample3[0]
 313  00AF              #line 313 "C:\Users\hamed\Documents\project\touch 3key clock\touch-3key-clock\3ch-3key.h"
 313  00AF  0F13        	mov a,19
 313  00B0  0200     R  	sub a,_CalibrSample3[0]
 313  00B1  3C0A        	sz c
 313  00B2  2800     R  	jmp _L63
 315  00B3              #line 315 "C:\Users\hamed\Documents\project\touch 3key clock\touch-3key-clock\3ch-3key.h"
 315  00B3  1F00     R  	clr _CalibrSample3[0]
 316  00B4              #line 316 "C:\Users\hamed\Documents\project\touch 3key clock\touch-3key-clock\3ch-3key.h"
 316  00B4  1F00     E  	clr _builtin_holtek_udivmodsi4_2[12]
 316  00B5  0700     R  	mov a,_Count_C3_Backup[0]  
 316  00B6  0080     E  	mov _builtin_holtek_udivmodsi4_2[0],a  
 316  00B7  0700     R  	mov a,_Count_C3_Backup[1]  
 316  00B8  0080     E  	mov _builtin_holtek_udivmodsi4_2[1],a
 316  00B9  0700     R  	mov a,_Count_C3_Backup[2]  
 316  00BA  0080     E  	mov _builtin_holtek_udivmodsi4_2[2],a  
 316  00BB  0700     R  	mov a,_Count_C3_Backup[3]  
 316  00BC  0080     E  	mov _builtin_holtek_udivmodsi4_2[3],a
 316  00BD  0F14        	mov a,20  
"File: 3ch-3key.h    Assembler  Version HGASM0202      Page 20

 316  00BE  0080     E  	mov _builtin_holtek_udivmodsi4_2[4],a  
 316  00BF  0F00        	mov a,0  
 316  00C0  0080     E  	mov _builtin_holtek_udivmodsi4_2[5],a
 316  00C1  1F00     E  	clr _builtin_holtek_udivmodsi4_2[6]
 316  00C2  1F00     E  	clr _builtin_holtek_udivmodsi4_2[7]
 316  00C3  2000     E  	call _builtin_holtek_udivmodsi4
 316  00C4  0700     E  	mov a,_builtin_holtek_udivmodsi4_2[0]  
 316  00C5  0080     R  	mov _Count_C3[0],a  
 316  00C6  0700     E  	mov a,_builtin_holtek_udivmodsi4_2[1]  
 316  00C7  0080     R  	mov _Count_C3[1],a
 316  00C8  0700     E  	mov a,_builtin_holtek_udivmodsi4_2[2]  
 316  00C9  0080     R  	mov _Count_C3[2],a  
 316  00CA  0700     E  	mov a,_builtin_holtek_udivmodsi4_2[3]  
 316  00CB  0080     R  	mov _Count_C3[3],a
 317  00CC              #line 317 "C:\Users\hamed\Documents\project\touch 3key clock\touch-3key-clock\3ch-3key.h"
 317  00CC  1F00     R  	clr _Count_C3_Backup[0]
 317  00CD  1F00     R  	clr _Count_C3_Backup[1]
 317  00CE  1F00     R  	clr _Count_C3_Backup[2]
 317  00CF  1F00     R  	clr _Count_C3_Backup[3]
 317  00D0              _L63:
 321  00D0              #line 321 "C:\Users\hamed\Documents\project\touch 3key clock\touch-3key-clock\3ch-3key.h"
 321  00D0  3744        	clr [68].6
 322  00D1              #line 322 "C:\Users\hamed\Documents\project\touch 3key clock\touch-3key-clock\3ch-3key.h"
 322  00D1  36C4        	clr [68].5
 322  00D2              _L45:
 322  00D2  0003        	ret
 322  00D3              _Key_Select endp
 322  00D3              #line 322 "C:\Users\hamed\Documents\project\touch 3key clock\touch-3key-clock\3ch-3key.h"
 322  00D3              #pragma debug scope 1 1
 322  00D3              public _TOUCH_ISR
 322  00D3              #pragma debug scope 9 1
 329  00D3              #line 329 "C:\Users\hamed\Documents\project\touch 3key clock\touch-3key-clock\3ch-3key.h"
 329  0000              @TOUCH_ISR_code .section at 40 'code'
 329  0000              _TOUCH_ISR:
 329  0000  0004        	reti
 329  0001              #line 329 "C:\Users\hamed\Documents\project\touch 3key clock\touch-3key-clock\3ch-3key.h"
 329  0001              #pragma debug scope 1 1
 329  0001              public _timer
 329  0001              #pragma debug scope 10 1
 335  0001              #line 335 "C:\Users\hamed\Documents\project\touch 3key clock\touch-3key-clock\3ch-3key.h"
 335  0000              @timer_code .section at 12 'code'
 335  0000              _timer:
 335  0000  0004        	reti
 335  0001              #line 335 "C:\Users\hamed\Documents\project\touch 3key clock\touch-3key-clock\3ch-3key.h"
 335  0001              #pragma debug scope 1 1
 335  0001              ___tmrc equ [29]
 335  0001              ___smod equ [11]
 335  0001              ___pac equ [21]
 335  0001              public _main
 335  0001              #pragma debug scope 11 1

  16  0001              #line 16 "C:\Users\hamed\Documents\project\touch 3key clock\touch-3key-clock\touch-3key-clock.c"
  16  0001              IFDEF WITH_DEFAULT_STARTUP
  16  0001              extern _main_initial0:near
  16  0001              extern _main_startup:near
  16  0001              ENDIF
  16  0001              
  16  0001              ROMBANK 0 @start
  16  0000              @start .section com_l 'code'
  16  0000              _main_startup1:
"File: touch-3key-clock.c  Assembler  Version HGASM0202      Page 21

  16  0000              @start .section com_e 'code'
  16  0000  2800     R  	jmp _main
  16  0001              
  16  0000              _main .section 'code'
  16  0000              _main proc
  22  0000              #line 22 "C:\Users\hamed\Documents\project\touch 3key clock\touch-3key-clock\touch-3key-clock.c"
  22  0000  369D        	clr [29].5
  23  0001              #line 23 "C:\Users\hamed\Documents\project\touch 3key clock\touch-3key-clock\touch-3key-clock.c"
  23  0001  321D        	set [29].4
  25  0002              #line 25 "C:\Users\hamed\Documents\project\touch 3key clock\touch-3key-clock\touch-3key-clock.c"
  25  0002  301D        	set [29].0
  26  0003              #line 26 "C:\Users\hamed\Documents\project\touch 3key clock\touch-3key-clock\touch-3key-clock.c"
  26  0003  349D        	clr [29].1
  27  0004              #line 27 "C:\Users\hamed\Documents\project\touch 3key clock\touch-3key-clock\touch-3key-clock.c"
  27  0004  351D        	clr [29].2
  30  0005              #line 30 "C:\Users\hamed\Documents\project\touch 3key clock\touch-3key-clock\touch-3key-clock.c"
  30  0005  300E        	set [14].0
  31  0006              #line 31 "C:\Users\hamed\Documents\project\touch 3key clock\touch-3key-clock\touch-3key-clock.c"
  31  0006  300B        	set [11].0
  33  0007              #line 33 "C:\Users\hamed\Documents\project\touch 3key clock\touch-3key-clock\touch-3key-clock.c"
  33  0007  330E        	set [14].6
  34  0008              #line 34 "C:\Users\hamed\Documents\project\touch 3key clock\touch-3key-clock\touch-3key-clock.c"
  34  0008  318E        	set [14].3
  36  0009              #line 36 "C:\Users\hamed\Documents\project\touch 3key clock\touch-3key-clock\touch-3key-clock.c"
  36  0009  3615        	clr [21].4
  36  000A  3515        	clr [21].2
  36  000B  3415        	clr [21].0
  37  000C              #line 37 "C:\Users\hamed\Documents\project\touch 3key clock\touch-3key-clock\touch-3key-clock.c"
  37  000C  0F01        	mov a,1
  37  000D  0080     R  	mov _delay_ms_2[0],a
  37  000E  1F00     R  	clr _delay_ms_2[1]
  37  000F  1F00     R  	clr _delay_ms_2[2]
  37  0010  1F00     R  	clr _delay_ms_2[3]
  37  0011  2000     R  	call _delay_ms
  38  0012              #line 38 "C:\Users\hamed\Documents\project\touch 3key clock\touch-3key-clock\touch-3key-clock.c"
  38  0012  2000     R  	call _TuochKeyInit
  39  0013              #line 39 "C:\Users\hamed\Documents\project\touch 3key clock\touch-3key-clock\touch-3key-clock.c"
  39  0013  0F01        	mov a,1
  39  0014  0080     R  	mov _delay_ms_2[0],a
  39  0015  1F00     R  	clr _delay_ms_2[1]
  39  0016  1F00     R  	clr _delay_ms_2[2]
  39  0017  1F00     R  	clr _delay_ms_2[3]
  39  0018  2000     R  	call _delay_ms
  40  0019              #line 40 "C:\Users\hamed\Documents\project\touch 3key clock\touch-3key-clock\touch-3key-clock.c"
  40  0019  2000     R  	call _CalibrTuoch
  45  001A              #line 45 "C:\Users\hamed\Documents\project\touch 3key clock\touch-3key-clock\touch-3key-clock.c"
  45  001A  3214        	set [20].4
  46  001B              #line 46 "C:\Users\hamed\Documents\project\touch 3key clock\touch-3key-clock\touch-3key-clock.c"
  46  001B  3114        	set [20].2
  47  001C              #line 47 "C:\Users\hamed\Documents\project\touch 3key clock\touch-3key-clock\touch-3key-clock.c"
  47  001C  3014        	set [20].0
  47  001D              _L72:
  51  001D              #line 51 "C:\Users\hamed\Documents\project\touch 3key clock\touch-3key-clock\touch-3key-clock.c"
  51  001D              ;# 51 "C:\Users\hamed\Documents\project\touch 3key clock\touch-3key-clock\touch-3key-clock.c" 1
  51  001D  0001        	clr wdt
  52  001E              #line 52 "C:\Users\hamed\Documents\project\touch 3key clock\touch-3key-clock\touch-3key-clock.c"
  52  001E  0700     R  	mov a,_i[0]
  52  001F  0080     E  	mov ra,a
  52  0020  0700     E  	mov a,ra
  52  0021  2000     R  	call _Key_Select
"File: touch-3key-clock.c  Assembler  Version HGASM0202      Page 22

  53  0022              #line 53 "C:\Users\hamed\Documents\project\touch 3key clock\touch-3key-clock\touch-3key-clock.c"
  53  0022  1480     R  	inc _i[0]
  53  0023  0F02        	mov a,2
  53  0024  0200     R  	sub a,_i[0]
  53  0025  3C0A        	sz c
  53  0026  2800     R  	jmp _L71
  53  0027  1F00     R  	clr _i[0]
  53  0028              _L71:
  54  0028              #line 54 "C:\Users\hamed\Documents\project\touch 3key clock\touch-3key-clock\touch-3key-clock.c"
  54  0028  2000     R  	call _Key_Touch
  55  0029              #line 55 "C:\Users\hamed\Documents\project\touch 3key clock\touch-3key-clock\touch-3key-clock.c"
  55  0029  2800     R  	jmp _L72
  55  002A  2800     R  	jmp $
  55  002B              _main endp
  55  002B              
  55  002B              @dummy endp
  55  002B              
  55  002B              #line 55 "C:\Users\hamed\Documents\project\touch 3key clock\touch-3key-clock\touch-3key-clock.c"
  55  002B              #pragma debug scope 1 1
  55  002B              public _rgbchange
  55  0000              @HCCINIT	.section 'data'

  18  0000              #line 18 "C:\Users\hamed\Documents\project\touch 3key clock\touch-3key-clock\3ch-3key.h"
  18  0000              @HCCINIT .section 'data'
  18  0000              _rgbchange label byte
  18  0000              #pragma debug variable 11 1 _rgbchange "rgbchange"
  18  0000              	db 0
  18  0000              @ROMDATA_BASE .section inpage 'code'
  18  0000              	db 0
  18  0001              @HCCINIT .section 'data'
  18  0001              	db 0
  18  0001              @ROMDATA_BASE .section inpage 'code'
  18  0001              	db 0
  18  0002              @HCCINIT .section 'data'
  18  0002              public _q3
  16  0002              #line 16 "C:\Users\hamed\Documents\project\touch 3key clock\touch-3key-clock\3ch-3key.h"
  16  0000              @BITDATASEC .section 'data'
  16  0000  00          _q3	dbit 0
  16  0001              #pragma debug variable 2 1 _q3 "q3"
  16  0001              public _q2
  16  0001              #line 16 "C:\Users\hamed\Documents\project\touch 3key clock\touch-3key-clock\3ch-3key.h"
  16  0001              @BITDATASEC .section 'data'
  16  0000              _q2	dbit 0
  16  0001              #pragma debug variable 2 1 _q2 "q2"
  16  0001              public _q1
  16  0001              #line 16 "C:\Users\hamed\Documents\project\touch 3key clock\touch-3key-clock\3ch-3key.h"
  16  0001              @BITDATASEC .section 'data'
  16  0000              _q1	dbit 0
  16  0001              #pragma debug variable 2 1 _q1 "q1"
  16  0001              public _CalibrSample3
  14  0001              #line 14 "C:\Users\hamed\Documents\project\touch 3key clock\touch-3key-clock\3ch-3key.h"
  14  0002              @HCCINIT .section 'data'
  14  0002              _CalibrSample3 label byte
  14  0002              #pragma debug variable 8 1 _CalibrSample3 "CalibrSample3"
  14  0002              	db 0
  14  0001              @ROMDATA_BASE .section inpage 'code'
  14  0001              	db 0
  14  0003              @HCCINIT .section 'data'
  14  0003              public _CalibrCount3
  14  0003              #line 14 "C:\Users\hamed\Documents\project\touch 3key clock\touch-3key-clock\3ch-3key.h"
"File: 3ch-3key.h    Assembler  Version HGASM0202      Page 23

  14  0003              @HCCINIT .section 'data'
  14  0003              _CalibrCount3 label byte
  14  0003              #pragma debug variable 8 1 _CalibrCount3 "CalibrCount3"
  14  0003              	db 0
  14  0002              @ROMDATA_BASE .section inpage 'code'
  14  0002              	db 0
  14  0004              @HCCINIT .section 'data'
  14  0004              public _Count_T3
  13  0004              #line 13 "C:\Users\hamed\Documents\project\touch 3key clock\touch-3key-clock\3ch-3key.h"
  13  0004              @HCCINIT .section 'data'
  13  0004              _Count_T3 label byte
  13  0004              #pragma debug variable 12 1 _Count_T3 "Count_T3"
  13  0004              	db 0
  13  0002              @ROMDATA_BASE .section inpage 'code'
  13  0002              	db 0
  13  0005              @HCCINIT .section 'data'
  13  0005              	db 0
  13  0003              @ROMDATA_BASE .section inpage 'code'
  13  0003              	db 0
  13  0006              @HCCINIT .section 'data'
  13  0006              public _Count_S3
  12  0006              #line 12 "C:\Users\hamed\Documents\project\touch 3key clock\touch-3key-clock\3ch-3key.h"
  12  0006              @HCCINIT .section 'data'
  12  0006              _Count_S3 label byte
  12  0006              #pragma debug variable 12 1 _Count_S3 "Count_S3"
  12  0006              	db 0
  12  0003              @ROMDATA_BASE .section inpage 'code'
  12  0003              	db 0
  12  0007              @HCCINIT .section 'data'
  12  0007              	db 0
  12  0004              @ROMDATA_BASE .section inpage 'code'
  12  0004              	db 0
  12  0008              @HCCINIT .section 'data'
  12  0008              public _Count_C3_Backup
  11  0008              #line 11 "C:\Users\hamed\Documents\project\touch 3key clock\touch-3key-clock\3ch-3key.h"
  11  0008              @HCCINIT .section 'data'
  11  0008              _Count_C3_Backup label byte
  11  0008              #pragma debug variable 14 1 _Count_C3_Backup "Count_C3_Backup"
  11  0008              	db 0
  11  0004              @ROMDATA_BASE .section inpage 'code'
  11  0004              	db 0
  11  0009              @HCCINIT .section 'data'
  11  0009              	db 0
  11  0005              @ROMDATA_BASE .section inpage 'code'
  11  0005              	db 0
  11  000A              @HCCINIT .section 'data'
  11  000A              	db 0
  11  0005              @ROMDATA_BASE .section inpage 'code'
  11  0005              	db 0
  11  000B              @HCCINIT .section 'data'
  11  000B              	db 0
  11  0006              @ROMDATA_BASE .section inpage 'code'
  11  0006              	db 0
  11  000C              @HCCINIT .section 'data'
  11  000C              public _Count_C3
  11  000C              #line 11 "C:\Users\hamed\Documents\project\touch 3key clock\touch-3key-clock\3ch-3key.h"
  11  000C              @HCCINIT .section 'data'
  11  000C              _Count_C3 label byte
  11  000C              #pragma debug variable 14 1 _Count_C3 "Count_C3"
  11  000C              	db 0
"File: 3ch-3key.h    Assembler  Version HGASM0202      Page 24

  11  0006              @ROMDATA_BASE .section inpage 'code'
  11  0006              	db 0
  11  000D              @HCCINIT .section 'data'
  11  000D              	db 0
  11  0007              @ROMDATA_BASE .section inpage 'code'
  11  0007              	db 0
  11  000E              @HCCINIT .section 'data'
  11  000E              	db 0
  11  0007              @ROMDATA_BASE .section inpage 'code'
  11  0007              	db 0
  11  000F              @HCCINIT .section 'data'
  11  000F              	db 0
  11  0008              @ROMDATA_BASE .section inpage 'code'
  11  0008              	db 0
  11  0010              @HCCINIT .section 'data'
  11  0010              public _CalibrSample2
   9  0010              #line 9 "C:\Users\hamed\Documents\project\touch 3key clock\touch-3key-clock\3ch-3key.h"
   9  0010              @HCCINIT .section 'data'
   9  0010              _CalibrSample2 label byte
   9  0010              #pragma debug variable 8 1 _CalibrSample2 "CalibrSample2"
   9  0010              	db 0
   9  0008              @ROMDATA_BASE .section inpage 'code'
   9  0008              	db 0
   9  0011              @HCCINIT .section 'data'
   9  0011              public _CalibrCount2
   9  0011              #line 9 "C:\Users\hamed\Documents\project\touch 3key clock\touch-3key-clock\3ch-3key.h"
   9  0011              @HCCINIT .section 'data'
   9  0011              _CalibrCount2 label byte
   9  0011              #pragma debug variable 8 1 _CalibrCount2 "CalibrCount2"
   9  0011              	db 0
   9  0009              @ROMDATA_BASE .section inpage 'code'
   9  0009              	db 0
   9  0012              @HCCINIT .section 'data'
   9  0012              public _Count_T2
   8  0012              #line 8 "C:\Users\hamed\Documents\project\touch 3key clock\touch-3key-clock\3ch-3key.h"
   8  0012              @HCCINIT .section 'data'
   8  0012              _Count_T2 label byte
   8  0012              #pragma debug variable 12 1 _Count_T2 "Count_T2"
   8  0012              	db 0
   8  0009              @ROMDATA_BASE .section inpage 'code'
   8  0009              	db 0
   8  0013              @HCCINIT .section 'data'
   8  0013              	db 0
   8  000A              @ROMDATA_BASE .section inpage 'code'
   8  000A              	db 0
   8  0014              @HCCINIT .section 'data'
   8  0014              public _Count_S2
   7  0014              #line 7 "C:\Users\hamed\Documents\project\touch 3key clock\touch-3key-clock\3ch-3key.h"
   7  0014              @HCCINIT .section 'data'
   7  0014              _Count_S2 label byte
   7  0014              #pragma debug variable 12 1 _Count_S2 "Count_S2"
   7  0014              	db 0
   7  000A              @ROMDATA_BASE .section inpage 'code'
   7  000A              	db 0
   7  0015              @HCCINIT .section 'data'
   7  0015              	db 0
   7  000B              @ROMDATA_BASE .section inpage 'code'
   7  000B              	db 0
   7  0016              @HCCINIT .section 'data'
   7  0016              public _Count_C2_Backup
"File: 3ch-3key.h    Assembler  Version HGASM0202      Page 25

   6  0016              #line 6 "C:\Users\hamed\Documents\project\touch 3key clock\touch-3key-clock\3ch-3key.h"
   6  0016              @HCCINIT .section 'data'
   6  0016              _Count_C2_Backup label byte
   6  0016              #pragma debug variable 14 1 _Count_C2_Backup "Count_C2_Backup"
   6  0016              	db 0
   6  000B              @ROMDATA_BASE .section inpage 'code'
   6  000B              	db 0
   6  0017              @HCCINIT .section 'data'
   6  0017              	db 0
   6  000C              @ROMDATA_BASE .section inpage 'code'
   6  000C              	db 0
   6  0018              @HCCINIT .section 'data'
   6  0018              	db 0
   6  000C              @ROMDATA_BASE .section inpage 'code'
   6  000C              	db 0
   6  0019              @HCCINIT .section 'data'
   6  0019              	db 0
   6  000D              @ROMDATA_BASE .section inpage 'code'
   6  000D              	db 0
   6  001A              @HCCINIT .section 'data'
   6  001A              public _Count_C2
   6  001A              #line 6 "C:\Users\hamed\Documents\project\touch 3key clock\touch-3key-clock\3ch-3key.h"
   6  001A              @HCCINIT .section 'data'
   6  001A              _Count_C2 label byte
   6  001A              #pragma debug variable 14 1 _Count_C2 "Count_C2"
   6  001A              	db 0
   6  000D              @ROMDATA_BASE .section inpage 'code'
   6  000D              	db 0
   6  001B              @HCCINIT .section 'data'
   6  001B              	db 0
   6  000E              @ROMDATA_BASE .section inpage 'code'
   6  000E              	db 0
   6  001C              @HCCINIT .section 'data'
   6  001C              	db 0
   6  000E              @ROMDATA_BASE .section inpage 'code'
   6  000E              	db 0
   6  001D              @HCCINIT .section 'data'
   6  001D              	db 0
   6  000F              @ROMDATA_BASE .section inpage 'code'
   6  000F              	db 0
   6  001E              @HCCINIT .section 'data'
   6  001E              public _CalibrSample1
   4  001E              #line 4 "C:\Users\hamed\Documents\project\touch 3key clock\touch-3key-clock\3ch-3key.h"
   4  001E              @HCCINIT .section 'data'
   4  001E              _CalibrSample1 label byte
   4  001E              #pragma debug variable 8 1 _CalibrSample1 "CalibrSample1"
   4  001E              	db 0
   4  000F              @ROMDATA_BASE .section inpage 'code'
   4  000F              	db 0
   4  001F              @HCCINIT .section 'data'
   4  001F              public _CalibrCount1
   4  001F              #line 4 "C:\Users\hamed\Documents\project\touch 3key clock\touch-3key-clock\3ch-3key.h"
   4  001F              @HCCINIT .section 'data'
   4  001F              _CalibrCount1 label byte
   4  001F              #pragma debug variable 8 1 _CalibrCount1 "CalibrCount1"
   4  001F              	db 0
   4  0010              @ROMDATA_BASE .section inpage 'code'
   4  0010              	db 0
   4  0020              @HCCINIT .section 'data'
   4  0020              public _counter
"File: 3ch-3key.h    Assembler  Version HGASM0202      Page 26

   4  0020              #line 4 "C:\Users\hamed\Documents\project\touch 3key clock\touch-3key-clock\3ch-3key.h"
   4  0020              @HCCINIT .section 'data'
   4  0020              _counter label byte
   4  0020              #pragma debug variable 8 1 _counter "counter"
   4  0020              	db 0
   4  0010              @ROMDATA_BASE .section inpage 'code'
   4  0010              	db 0
   4  0021              @HCCINIT .section 'data'
   4  0021              public _i
   4  0021              #line 4 "C:\Users\hamed\Documents\project\touch 3key clock\touch-3key-clock\3ch-3key.h"
   4  0021              @HCCINIT .section 'data'
   4  0021              _i label byte
   4  0021              #pragma debug variable 8 1 _i "i"
   4  0021              	db 0
   4  0011              @ROMDATA_BASE .section inpage 'code'
   4  0011              	db 0
   4  0022              @HCCINIT .section 'data'
   4  0022              public _Count_T1
   3  0022              #line 3 "C:\Users\hamed\Documents\project\touch 3key clock\touch-3key-clock\3ch-3key.h"
   3  0022              @HCCINIT .section 'data'
   3  0022              _Count_T1 label byte
   3  0022              #pragma debug variable 12 1 _Count_T1 "Count_T1"
   3  0022              	db 0
   3  0011              @ROMDATA_BASE .section inpage 'code'
   3  0011              	db 0
   3  0023              @HCCINIT .section 'data'
   3  0023              	db 0
   3  0012              @ROMDATA_BASE .section inpage 'code'
   3  0012              	db 0
   3  0024              @HCCINIT .section 'data'
   3  0024              public _Count_S1
   2  0024              #line 2 "C:\Users\hamed\Documents\project\touch 3key clock\touch-3key-clock\3ch-3key.h"
   2  0024              @HCCINIT .section 'data'
   2  0024              _Count_S1 label byte
   2  0024              #pragma debug variable 12 1 _Count_S1 "Count_S1"
   2  0024              	db 0
   2  0012              @ROMDATA_BASE .section inpage 'code'
   2  0012              	db 0
   2  0025              @HCCINIT .section 'data'
   2  0025              	db 0
   2  0013              @ROMDATA_BASE .section inpage 'code'
   2  0013              	db 0
   2  0026              @HCCINIT .section 'data'
   2  0026              public _Count_C1_Backup
   1  0026              #line 1 "C:\Users\hamed\Documents\project\touch 3key clock\touch-3key-clock\3ch-3key.h"
   1  0026              @HCCINIT .section 'data'
   1  0026              _Count_C1_Backup label byte
   1  0026              #pragma debug variable 14 1 _Count_C1_Backup "Count_C1_Backup"
   1  0026              	db 0
   1  0013              @ROMDATA_BASE .section inpage 'code'
   1  0013              	db 0
   1  0027              @HCCINIT .section 'data'
   1  0027              	db 0
   1  0014              @ROMDATA_BASE .section inpage 'code'
   1  0014              	db 0
   1  0028              @HCCINIT .section 'data'
   1  0028              	db 0
   1  0014              @ROMDATA_BASE .section inpage 'code'
   1  0014              	db 0
   1  0029              @HCCINIT .section 'data'
"File: 3ch-3key.h    Assembler  Version HGASM0202      Page 27

   1  0029              	db 0
   1  0015              @ROMDATA_BASE .section inpage 'code'
   1  0015              	db 0
   1  002A              @HCCINIT .section 'data'
   1  002A              public _Count_C1
   1  002A              #line 1 "C:\Users\hamed\Documents\project\touch 3key clock\touch-3key-clock\3ch-3key.h"
   1  002A              @HCCINIT .section 'data'
   1  002A              _Count_C1 label byte
   1  002A              #pragma debug variable 14 1 _Count_C1 "Count_C1"
   1  002A              	db 0
   1  0015              @ROMDATA_BASE .section inpage 'code'
   1  0015              	db 0
   1  002B              @HCCINIT .section 'data'
   1  002B              	db 0
   1  0016              @ROMDATA_BASE .section inpage 'code'
   1  0016              	db 0
   1  002C              @HCCINIT .section 'data'
   1  002C              	db 0
   1  0016              @ROMDATA_BASE .section inpage 'code'
   1  0016              	db 0
   1  002D              @HCCINIT .section 'data'
   1  002D              	db 0
   1  0017              @ROMDATA_BASE .section inpage 'code'
   1  0017              	db 0
   1  002E              @HCCINIT .section 'data'
   1  002E              #pragma debug struct_end
   1  002E              #pragma debug struct_end
   1  002E              #pragma debug union_end
   1  002E              #pragma debug union_end
   1  002E              #pragma debug variable 43 1 ___smod "__smod" 1
   1  002E              #pragma debug struct_end
   1  002E              #pragma debug struct_end
   1  002E              #pragma debug union_end
   1  002E              #pragma debug union_end
   1  002E              #pragma debug variable 45 1 ___intc0 "__intc0" 1
   1  002E              #pragma debug struct_end
   1  002E              #pragma debug struct_end
   1  002E              #pragma debug union_end
   1  002E              #pragma debug union_end
   1  002E              #pragma debug variable 47 1 ___pa "__pa" 1
   1  002E              #pragma debug struct_end
   1  002E              #pragma debug struct_end
   1  002E              #pragma debug union_end
   1  002E              #pragma debug union_end
   1  002E              #pragma debug variable 49 1 ___pac "__pac" 1
   1  002E              #pragma debug struct_end
   1  002E              #pragma debug struct_end
   1  002E              #pragma debug union_end
   1  002E              #pragma debug union_end
   1  002E              #pragma debug variable 51 1 ___tmrc "__tmrc" 1
   1  002E              #pragma debug variable 8 1 ___tktmr "__tktmr" 1
   1  002E              #pragma debug struct_end
   1  002E              #pragma debug struct_end
   1  002E              #pragma debug union_end
   1  002E              #pragma debug union_end
   1  002E              #pragma debug variable 53 1 ___tkc0 "__tkc0" 1
   1  002E              #pragma debug struct_end
   1  002E              #pragma debug struct_end
   1  002E              #pragma debug union_end
   1  002E              #pragma debug union_end
"File: 3ch-3key.h    Assembler  Version HGASM0202      Page 28

   1  002E              #pragma debug variable 55 1 ___tkc1 "__tkc1" 1
   1  002E              #pragma debug variable 8 1 ___tkm016dl "__tkm016dl" 1
   1  002E              #pragma debug variable 8 1 ___tkm016dh "__tkm016dh" 1
   1  002E              #pragma debug variable 8 1 ___tkm0rol "__tkm0rol" 1
   1  002E              #pragma debug variable 8 1 ___tkm0roh "__tkm0roh" 1
   1  002E              #pragma debug struct_end
   1  002E              #pragma debug struct_end
   1  002E              #pragma debug union_end
   1  002E              #pragma debug union_end
   1  002E              #pragma debug variable 57 1 ___tkm0c0 "__tkm0c0" 1
   1  002E              #pragma debug struct_end
   1  002E              #pragma debug struct_end
   1  002E              #pragma debug union_end
   1  002E              #pragma debug union_end
   1  002E              #pragma debug variable 59 1 ___tkm0c1 "__tkm0c1" 1

  16  002E              #line 16 "C:\Users\hamed\Documents\project\touch 3key clock\touch-3key-clock\touch-3key-clock.c"
  16  0000              @code .section at 0 'code'
  16  0000  2800     R  	jmp _main_startup1
  16  0001              
  16  0001              extern _builtin_holtek_mulsi3_2:byte
  16  0001              extern _builtin_holtek_mulsi3:near
  16  0001              extern _builtin_holtek_udivmodsi4_2:byte
  16  0001              extern _builtin_holtek_udivmodsi4:near
  16  0001              
  16  0001              ; 
  16  0001              ; Generated by holtek-gcc v3.19, Wed Sep 24 17:21:48 2025
  16  0001              ; Rebuild 718
  16  0001              ; end of file


        0 Errors, 0