"File: segment1.c    Assembler  Version HGASM0202      Page 1


   1  0000              ; Generated by holtek-gcc v3.19, Mon Feb 03 18:56:41 2025
   2  0000              ; 
   3  0000              ; Configuration:
   4  0000              ;       with long instruction
   5  0000              ;       Single ROM, Multi-RAM
   6  0000              ;       bits_per_rom_unit:16
   7  0000              ;       with mp1
   8  0000              ;       with tbhp, address(0x9)
   9  0000              ;          Use tabrd-const
  10  0000              ;       
  11  0000              ; SFR address of long-instruction arch:
  12  0000              ;    mp0 = -1,1,0
  13  0000              ;    mp1 = 4,3,2
  14  0000              ;    mp2 = 14,13,12
  15  0000              ;    tbp = 9,7,8
  16  0000              ;    acc = 5
  17  0000              ;    pcl = 6
  18  0000              ;    status = 10
  19  0000              ;    bp = 11
  20  0000              ;    intc = 16
  21  0000              ;       
  22  0000              ;       
  23  0000              ; use 'tabrdc' instead of 'tabrd'
  24  0000              ;       
  25  0000              
  26  0000              #pragma translator "holtek-gcc 4.6.4" "3.19" "build 20130711"
  27  0000              ; Rebuild 718
  28  0000              
  29  0000              ir equ [2]
  30  0000              mp equ [3]
  31  0000              sbp equ [4]
  32  0000              acc equ [5]
  33  0000              bp equ [11]
  34  0000              tblp equ [7]
  35  0000              tbhp equ [9]
  36  0000              status equ [10]
  37  0000              c equ [10].0
  38  0000              ac equ [10].1
  39  0000              z equ [10].2
  40  0000              ov equ [10].3
  41  0000              cz equ [10].6
  42  0000              sc equ [10].7
  43  0000              intc equ [16]
  44  0000              
  45  0000              extern ra:byte
  46  0000              extern rb:byte
  47  0000              extern rc:byte
  48  0000              extern rd:byte
  49  0000              extern re:byte
  50  0000              extern rf:byte
  51  0000              extern rg:byte
  52  0000              extern rh:byte
  53  0000              extern _Crom2Prom:near
  54  0000              extern _Crom2PromNext:near
  55  0000              
  56  0000              RAMBANK 0 @BITDATASEC, @BITDATASEC1
  57  0000              @HCCINIT	.section 'data'
  58  0000              @HCCINIT0	.section 'data'
  59  0000              @BITDATASEC	 .section 'data'
"File: segment1.ASM  Assembler  Version HGASM0202      Page 2

  60  0000              @BITDATASEC1	 .section 'data'
  61  0000              
  62  0000              #pragma debug scope 1 1
  63  0000              	extern __DELAY3:near
  64  0000              	extern __DELAYX3:near
  65  0000              	extern __DELAYX6:near
  66  0000              	extern __DELAYY5:near
  67  0000              	extern __DELAYY3:near
  68  0000              	extern _builtin_holtek_delay_2:byte
  69  0000              public _delay_10us
  70  0000              #pragma debug scope 2 1

  11  0000              #line 11 "E:\hamed\touch2\segment1\segment1\DELAY.h"
  11  0000              _delay_10us .section 'code'
  11  0000              _delay_10us proc
  11  0000              public _delay_10us_2
  11  0000  0004[           local _delay_10us_2 db 4 dup(?)	; 4,0
            00
            ]
  11  0004              #pragma debug variable 14 2 _delay_10us_2+0 "count_u"
  15  0004              #line 15 "E:\hamed\touch2\segment1\segment1\DELAY.h"
  15  0000  1F00     E  	clr rd
  15  0001  1F00     E  	clr re
  15  0002  1F00     E  	clr rf
  15  0003  1F00     E  	clr rg
  15  0004  2800     R  	jmp _L2
  15  0005              _L3:
  17  0005              #line 17 "E:\hamed\touch2\segment1\segment1\DELAY.h"
  17  0005              ;# 17 "E:\hamed\touch2\segment1\segment1\DELAY.h" 1
  17  0005  0001        	clr wdt
  18  0006              #line 18 "E:\hamed\touch2\segment1\segment1\DELAY.h"
  18  0006              ;# 18 "E:\hamed\touch2\segment1\segment1\DELAY.h" 1
  18  0006  0000        	nop
  19  0007              #line 19 "E:\hamed\touch2\segment1\segment1\DELAY.h"
  19  0007              ;# 19 "E:\hamed\touch2\segment1\segment1\DELAY.h" 1
  19  0007  0000        	nop
  20  0008              #line 20 "E:\hamed\touch2\segment1\segment1\DELAY.h"
  20  0008              ;# 20 "E:\hamed\touch2\segment1\segment1\DELAY.h" 1
  20  0008  0000        	nop
  21  0009              #line 21 "E:\hamed\touch2\segment1\segment1\DELAY.h"
  21  0009              ;# 21 "E:\hamed\touch2\segment1\segment1\DELAY.h" 1
  21  0009  0000        	nop
  15  000A              #line 15 "E:\hamed\touch2\segment1\segment1\DELAY.h"
  15  000A  0F01        	mov a,1
  15  000B  0380     E  	addm a,rd
  15  000C  0F00        	mov a,0
  15  000D  1380     E  	adcm a,re
  15  000E  1380     E  	adcm a,rf
  15  000F  1380     E  	adcm a,rg
  15  0010              _L2:
  15  0010  0700     E  	mov a,rd
  15  0011  0200     R  	sub a,_delay_10us_2[0]
  15  0012  0700     E  	mov a,re
  15  0013  1200     R  	sbc a,_delay_10us_2[1]
  15  0014  0700     E  	mov a,rf
  15  0015  1200     R  	sbc a,_delay_10us_2[2]
  15  0016  0700     E  	mov a,rg
  15  0017  1200     R  	sbc a,_delay_10us_2[3]
  15  0018  3B0A        	snz cz
  15  0019  2800     R  	jmp _L3
"File: DELAY.h       Assembler  Version HGASM0202      Page 3

  15  001A  0003        	ret
  15  001B              _delay_10us endp
  15  001B              #line 15 "E:\hamed\touch2\segment1\segment1\DELAY.h"
  15  001B              #pragma debug scope 1 1
  15  001B              public _delay_us
  15  001B              #pragma debug scope 3 1
  28  001B              #line 28 "E:\hamed\touch2\segment1\segment1\DELAY.h"
  28  0000              _delay_us .section 'code'
  28  0000              _delay_us proc
  28  0000              public _delay_us_2
  28  0000  0004[           local _delay_us_2 db 4 dup(?)	; 4,0
            00
            ]
  28  0004              #pragma debug variable 14 3 _delay_us_2+0 "count_u"
  32  0004              #line 32 "E:\hamed\touch2\segment1\segment1\DELAY.h"
  32  0000  1F00     E  	clr rd
  32  0001  1F00     E  	clr re
  32  0002  1F00     E  	clr rf
  32  0003  1F00     E  	clr rg
  32  0004  2800     R  	jmp _L6
  32  0005              _L7:
  34  0005              #line 34 "E:\hamed\touch2\segment1\segment1\DELAY.h"
  34  0005              ;# 34 "E:\hamed\touch2\segment1\segment1\DELAY.h" 1
  34  0005  0001        	clr wdt
  35  0006              #line 35 "E:\hamed\touch2\segment1\segment1\DELAY.h"
  35  0006              ;# 35 "E:\hamed\touch2\segment1\segment1\DELAY.h" 1
  35  0006  0000        	nop
  32  0007              #line 32 "E:\hamed\touch2\segment1\segment1\DELAY.h"
  32  0007  0F01        	mov a,1
  32  0008  0380     E  	addm a,rd
  32  0009  0F00        	mov a,0
  32  000A  1380     E  	adcm a,re
  32  000B  1380     E  	adcm a,rf
  32  000C  1380     E  	adcm a,rg
  32  000D              _L6:
  32  000D  0700     E  	mov a,rd
  32  000E  0200     R  	sub a,_delay_us_2[0]
  32  000F  0700     E  	mov a,re
  32  0010  1200     R  	sbc a,_delay_us_2[1]
  32  0011  0700     E  	mov a,rf
  32  0012  1200     R  	sbc a,_delay_us_2[2]
  32  0013  0700     E  	mov a,rg
  32  0014  1200     R  	sbc a,_delay_us_2[3]
  32  0015  3B0A        	snz cz
  32  0016  2800     R  	jmp _L7
  32  0017  0003        	ret
  32  0018              _delay_us endp
  32  0018              #line 32 "E:\hamed\touch2\segment1\segment1\DELAY.h"
  32  0018              #pragma debug scope 1 1
  32  0018              public _delay_ms
  32  0018              #pragma debug scope 4 1
  42  0018              #line 42 "E:\hamed\touch2\segment1\segment1\DELAY.h"
  42  0000              _delay_ms .section 'code'
  42  0000              _delay_ms proc
  42  0000              public _delay_ms_2
  42  0000  0008[           local _delay_ms_2 db 8 dup(?)	; 4,4
            00
            ]
  42  0008              #pragma debug variable 14 4 _delay_ms_2+0 "count_m"
  44  0008              #line 44 "E:\hamed\touch2\segment1\segment1\DELAY.h"
"File: DELAY.h       Assembler  Version HGASM0202      Page 4

  44  0000  0700     R  	mov a,_delay_ms_2[0]
  44  0001  0080     E  	mov _builtin_holtek_mulsi3_2[0],a
  44  0002  0700     R  	mov a,_delay_ms_2[1]
  44  0003  0080     E  	mov _builtin_holtek_mulsi3_2[1],a
  44  0004  0700     R  	mov a,_delay_ms_2[2]
  44  0005  0080     E  	mov _builtin_holtek_mulsi3_2[2],a
  44  0006  0700     R  	mov a,_delay_ms_2[3]
  44  0007  0080     E  	mov _builtin_holtek_mulsi3_2[3],a
  44  0008  0F64        	mov a,100
  44  0009  0080     E  	mov _builtin_holtek_mulsi3_2[4],a
  44  000A  0F00        	mov a,0
  44  000B  0080     E  	mov _builtin_holtek_mulsi3_2[5],a
  44  000C  0F00        	mov a,0
  44  000D  0080     E  	mov _builtin_holtek_mulsi3_2[6],a
  44  000E  0F00        	mov a,0
  44  000F  0080     E  	mov _builtin_holtek_mulsi3_2[7],a
  44  0010  2000     E  	call _builtin_holtek_mulsi3
  44  0011  0700     E  	mov a,_builtin_holtek_mulsi3_2[8]
  44  0012  0080     R  	mov _delay_ms_2[4],a
  44  0013  0700     E  	mov a,_builtin_holtek_mulsi3_2[9]
  44  0014  0080     R  	mov _delay_ms_2[5],a
  44  0015  0700     E  	mov a,_builtin_holtek_mulsi3_2[10]
  44  0016  0080     R  	mov _delay_ms_2[6],a
  44  0017  0700     E  	mov a,_builtin_holtek_mulsi3_2[11]
  44  0018  0080     R  	mov _delay_ms_2[7],a
  45  0019              #line 45 "E:\hamed\touch2\segment1\segment1\DELAY.h"
  45  0019  1F00     E  	clr rd
  45  001A  1F00     E  	clr re
  45  001B  1F00     E  	clr rf
  45  001C  1F00     E  	clr rg
  45  001D  2800     R  	jmp _L9
  45  001E              _L10:
  47  001E              #line 47 "E:\hamed\touch2\segment1\segment1\DELAY.h"
  47  001E              ;# 47 "E:\hamed\touch2\segment1\segment1\DELAY.h" 1
  47  001E  0001        	clr wdt
  48  001F              #line 48 "E:\hamed\touch2\segment1\segment1\DELAY.h"
  48  001F              ;# 48 "E:\hamed\touch2\segment1\segment1\DELAY.h" 1
  48  001F  0000        	nop
  49  0020              #line 49 "E:\hamed\touch2\segment1\segment1\DELAY.h"
  49  0020              ;# 49 "E:\hamed\touch2\segment1\segment1\DELAY.h" 1
  49  0020  0000        	nop
  50  0021              #line 50 "E:\hamed\touch2\segment1\segment1\DELAY.h"
  50  0021              ;# 50 "E:\hamed\touch2\segment1\segment1\DELAY.h" 1
  50  0021  0000        	nop
  51  0022              #line 51 "E:\hamed\touch2\segment1\segment1\DELAY.h"
  51  0022              ;# 51 "E:\hamed\touch2\segment1\segment1\DELAY.h" 1
  51  0022  0000        	nop
  45  0023              #line 45 "E:\hamed\touch2\segment1\segment1\DELAY.h"
  45  0023  0F01        	mov a,1
  45  0024  0380     E  	addm a,rd
  45  0025  0F00        	mov a,0
  45  0026  1380     E  	adcm a,re
  45  0027  1380     E  	adcm a,rf
  45  0028  1380     E  	adcm a,rg
  45  0029              _L9:
  45  0029  0700     E  	mov a,rd
  45  002A  0200     R  	sub a,_delay_ms_2[4]
  45  002B  0700     E  	mov a,re
  45  002C  1200     R  	sbc a,_delay_ms_2[5]
  45  002D  0700     E  	mov a,rf
"File: DELAY.h       Assembler  Version HGASM0202      Page 5

  45  002E  1200     R  	sbc a,_delay_ms_2[6]
  45  002F  0700     E  	mov a,rg
  45  0030  1200     R  	sbc a,_delay_ms_2[7]
  45  0031  3B0A        	snz cz
  45  0032  2800     R  	jmp _L10
  45  0033  0003        	ret
  45  0034              _delay_ms endp
  45  0034              #line 45 "E:\hamed\touch2\segment1\segment1\DELAY.h"
  45  0034              #pragma debug scope 1 1
  45  0034              ___pac equ [21]
  45  0034              ___pcc equ [37]
  45  0034              ___pec equ [113]
  45  0034              ___pbc equ [25]
  45  0034              public _initMatrix
  45  0034              #pragma debug scope 5 1

 114  0034              #line 114 "E:\hamed\touch2\segment1\segment1\IO.h"
 114  0000              _initMatrix .section 'code'
 114  0000              _initMatrix proc
 116  0000              #line 116 "E:\hamed\touch2\segment1\segment1\IO.h"
 116  0000  3795        	clr [21].7
 116  0001  3715        	clr [21].6
 116  0002  3425        	clr [37].0
 116  0003  34A5        	clr [37].1
 116  0004  3571        	clr [113].2
 116  0005  35F1        	clr [113].3
 116  0006  3515        	clr [21].2
 116  0007  3415        	clr [21].0
 119  0008              #line 119 "E:\hamed\touch2\segment1\segment1\IO.h"
 119  0008  3599        	clr [25].3
 119  0009  3519        	clr [25].2
 119  000A  3799        	clr [25].7
 119  000B  3719        	clr [25].6
 119  000C  34F1        	clr [113].1
 119  000D  3471        	clr [113].0
 119  000E  35A5        	clr [37].3
 119  000F  3525        	clr [37].2
 120  0010              #line 120 "E:\hamed\touch2\segment1\segment1\IO.h"
 120  0010  3419        	clr [25].0
 120  0011  3499        	clr [25].1
 120  0012  3619        	clr [25].4
 120  0013  3699        	clr [25].5
 120  0014  3615        	clr [21].4
 120  0015  3595        	clr [21].3
 120  0016  3671        	clr [113].4
 120  0017  36F1        	clr [113].5
 123  0018              #line 123 "E:\hamed\touch2\segment1\segment1\IO.h"
 123  0018              ;# 123 "E:\hamed\touch2\segment1\segment1\IO.h" 1
 123  0018              	IF 100>263690
 123  0018              ;# 123 "E:\hamed\touch2\segment1\segment1\IO.h" 1
 123  0018              	ERRMESSAGE 'the value 100of the argument exceeds the maxinum 263690'
 123  0018              	ENDIF
 123  0018              ;# 123 "E:\hamed\touch2\segment1\segment1\IO.h" 1
 123  0018              	IF 100<0
 123  0018              ;# 123 "E:\hamed\touch2\segment1\segment1\IO.h" 1
 123  0018              	ERRMESSAGE 'the value 100 of the argument exceeds the mininum 0'
 123  0018              	ENDIF
 123  0018              ;# 123 "E:\hamed\touch2\segment1\segment1\IO.h" 1
 123  0018              	IF 100==0
 123  0018              ;# 123 "E:\hamed\touch2\segment1\segment1\IO.h" 1
"File: IO.h          Assembler  Version HGASM0202      Page 6

 123  0018              	JMP $
 123  0018              	ENDIF
 123  0018              ;# 123 "E:\hamed\touch2\segment1\segment1\IO.h" 1
 123  0018              	IF 100==1
 123  0018              ;# 123 "E:\hamed\touch2\segment1\segment1\IO.h" 1
 123  0018              	NOP
 123  0018              	ENDIF
 123  0018              ;# 123 "E:\hamed\touch2\segment1\segment1\IO.h" 1
 123  0018              	IF 100==2
 123  0018              ;# 123 "E:\hamed\touch2\segment1\segment1\IO.h" 1
 123  0018              	NOP
 123  0018              ;# 123 "E:\hamed\touch2\segment1\segment1\IO.h" 1
 123  0018              	NOP
 123  0018              	ENDIF
 123  0018              ;# 123 "E:\hamed\touch2\segment1\segment1\IO.h" 1
 123  0018              	IF 100==3
 123  0018              ;# 123 "E:\hamed\touch2\segment1\segment1\IO.h" 1
 123  0018              	NOP
 123  0018              ;# 123 "E:\hamed\touch2\segment1\segment1\IO.h" 1
 123  0018              	NOP
 123  0018              ;# 123 "E:\hamed\touch2\segment1\segment1\IO.h" 1
 123  0018              	NOP
 123  0018              	ENDIF
 123  0018              ;# 123 "E:\hamed\touch2\segment1\segment1\IO.h" 1
 123  0018              	IF (100<8) AND (100>3)
 123  0018              ;# 123 "E:\hamed\touch2\segment1\segment1\IO.h" 1
 123  0018              	CALL __DELAY3 + 7 -100
 123  0018              	ENDIF
 123  0018              ;# 123 "E:\hamed\touch2\segment1\segment1\IO.h" 1
 123  0018              	IF (100< 0404h) AND (100>7)
 123  0018              ;# 123 "E:\hamed\touch2\segment1\segment1\IO.h" 1
 123  0018  0F18        	MOV A,100/4-1
 123  0019              ;# 123 "E:\hamed\touch2\segment1\segment1\IO.h" 1
 123  0019  2000     E  	CALL __DELAYX3 + 3 -(100 MOD 4)
 123  001A              	ENDIF
 123  001A              ;# 123 "E:\hamed\touch2\segment1\segment1\IO.h" 1
 123  001A              	IF (100< 0x40B) AND (100> 0403h)
 123  001A              ;# 123 "E:\hamed\touch2\segment1\segment1\IO.h" 1
 123  001A              	MOV A,0 
 123  001A              ;# 123 "E:\hamed\touch2\segment1\segment1\IO.h" 1
 123  001A              	CALL __DELAYX6 + 0x40a -100
 123  001A              	ENDIF
 123  001A              ;# 123 "E:\hamed\touch2\segment1\segment1\IO.h" 1
 123  001A              	IF (100 >= 0x40b) AND ((((100-9)%0402h)/4+1)>256)
 123  001A              ;# 123 "E:\hamed\touch2\segment1\segment1\IO.h" 1
 123  001A              	MOV A,(100-9)/0402h
 123  001A              ;# 123 "E:\hamed\touch2\segment1\segment1\IO.h" 1
 123  001A              	MOV _builtin_holtek_delay_2,A
 123  001A              ;# 123 "E:\hamed\touch2\segment1\segment1\IO.h" 1
 123  001A              	MOV A,0
 123  001A              ;# 123 "E:\hamed\touch2\segment1\segment1\IO.h" 1
 123  001A              	CALL __DELAYY5 +5- (((100-9)%0402h)%6)
 123  001A              	ENDIF
 123  001A              ;# 123 "E:\hamed\touch2\segment1\segment1\IO.h" 1
 123  001A              	IF (100 >= 0x40b) AND ((((100-9)%0402h)/4+1)<=256)
 123  001A              ;# 123 "E:\hamed\touch2\segment1\segment1\IO.h" 1
 123  001A              	MOV A,(100-9)/0402h
 123  001A              ;# 123 "E:\hamed\touch2\segment1\segment1\IO.h" 1
 123  001A              	MOV _builtin_holtek_delay_2,A
 123  001A              ;# 123 "E:\hamed\touch2\segment1\segment1\IO.h" 1
"File: IO.h          Assembler  Version HGASM0202      Page 7

 123  001A              	MOV A,((100-9)%0402h)/4+1
 123  001A              ;# 123 "E:\hamed\touch2\segment1\segment1\IO.h" 1
 123  001A              	CALL __DELAYY3 +3-(((100-9)%0402h)%4)
 123  001A              	ENDIF
 123  001A  0003        	ret
 123  001B              _initMatrix endp
 123  001B              #line 123 "E:\hamed\touch2\segment1\segment1\IO.h"
 123  001B              #pragma debug scope 1 1
 123  001B              ___pa equ [20]
 123  001B              ___pc equ [36]
 123  001B              ___pe equ [112]
 123  001B              ___pb equ [24]
 123  001B              public _cleardisplay
 123  001B              #pragma debug scope 6 1
 126  001B              #line 126 "E:\hamed\touch2\segment1\segment1\IO.h"
 126  0000              _cleardisplay .section 'code'
 126  0000              _cleardisplay proc
 128  0000              #line 128 "E:\hamed\touch2\segment1\segment1\IO.h"
 128  0000  3794        	clr [20].7
 128  0001  3714        	clr [20].6
 128  0002  3424        	clr [36].0
 128  0003  34A4        	clr [36].1
 128  0004  3570        	clr [112].2
 128  0005  35F0        	clr [112].3
 128  0006  3514        	clr [20].2
 128  0007  3414        	clr [20].0
 129  0008              #line 129 "E:\hamed\touch2\segment1\segment1\IO.h"
 129  0008  3598        	clr [24].3
 129  0009  3518        	clr [24].2
 129  000A  3798        	clr [24].7
 129  000B  3718        	clr [24].6
 129  000C  34F0        	clr [112].1
 129  000D  3470        	clr [112].0
 129  000E  35A4        	clr [36].3
 129  000F  3524        	clr [36].2
 130  0010              #line 130 "E:\hamed\touch2\segment1\segment1\IO.h"
 130  0010  3418        	clr [24].0
 130  0011  3498        	clr [24].1
 130  0012  3618        	clr [24].4
 130  0013  3698        	clr [24].5
 130  0014  3614        	clr [20].4
 130  0015  3594        	clr [20].3
 130  0016  3670        	clr [112].4
 130  0017  36F0        	clr [112].5
 130  0018  0003        	ret
 130  0019              _cleardisplay endp
 130  0019              #line 130 "E:\hamed\touch2\segment1\segment1\IO.h"
 130  0019              #pragma debug scope 1 1
 130  0019              ___psc0r equ [50]
 130  0019              ___tb0c equ [51]
 130  0019              ___intc2 equ [18]
 130  0019              ___intc0 equ [16]
 130  0019              public _TB0_INIT
 130  0019              #pragma debug scope 7 1

  47  0019              #line 47 "E:\hamed\touch2\segment1\segment1\TIMEBASE.h"
  47  0000              _TB0_INIT .section 'code'
  47  0000              _TB0_INIT proc
  48  0000              #line 48 "E:\hamed\touch2\segment1\segment1\TIMEBASE.h"
  48  0000  34B2        	clr [50].1
"File: TIMEBASE.h    Assembler  Version HGASM0202      Page 8

  48  0001  3032        	set [50].0
  49  0002              #line 49 "E:\hamed\touch2\segment1\segment1\TIMEBASE.h"
  49  0002  33B3        	set [51].7
  50  0003              #line 50 "E:\hamed\touch2\segment1\segment1\TIMEBASE.h"
  50  0003  3533        	clr [51].2
  50  0004  30B3        	set [51].1
  50  0005  3433        	clr [51].0
  51  0006              #line 51 "E:\hamed\touch2\segment1\segment1\TIMEBASE.h"
  51  0006  3092        	set [18].1
  52  0007              #line 52 "E:\hamed\touch2\segment1\segment1\TIMEBASE.h"
  52  0007  3692        	clr [18].5
  53  0008              #line 53 "E:\hamed\touch2\segment1\segment1\TIMEBASE.h"
  53  0008  3010        	set [16].0
  53  0009  0003        	ret
  53  000A              _TB0_INIT endp
  53  000A              #line 53 "E:\hamed\touch2\segment1\segment1\TIMEBASE.h"
  53  000A              #pragma debug scope 1 1
  53  000A              ___psc1r equ [68]
  53  000A              ___tb1c equ [52]
  53  000A              public _TB1_INIT
  53  000A              #pragma debug scope 8 1
  57  000A              #line 57 "E:\hamed\touch2\segment1\segment1\TIMEBASE.h"
  57  0000              _TB1_INIT .section 'code'
  57  0000              _TB1_INIT proc
  58  0000              #line 58 "E:\hamed\touch2\segment1\segment1\TIMEBASE.h"
  58  0000  34C4        	clr [68].1
  58  0001  3044        	set [68].0
  59  0002              #line 59 "E:\hamed\touch2\segment1\segment1\TIMEBASE.h"
  59  0002  33B4        	set [52].7
  60  0003              #line 60 "E:\hamed\touch2\segment1\segment1\TIMEBASE.h"
  60  0003  3534        	clr [52].2
  60  0004  30B4        	set [52].1
  60  0005  3434        	clr [52].0
  61  0006              #line 61 "E:\hamed\touch2\segment1\segment1\TIMEBASE.h"
  61  0006  3112        	set [18].2
  62  0007              #line 62 "E:\hamed\touch2\segment1\segment1\TIMEBASE.h"
  62  0007  3712        	clr [18].6
  63  0008              #line 63 "E:\hamed\touch2\segment1\segment1\TIMEBASE.h"
  63  0008  3010        	set [16].0
  63  0009  0003        	ret
  63  000A              _TB1_INIT endp
  63  000A              #line 63 "E:\hamed\touch2\segment1\segment1\TIMEBASE.h"
  63  000A              #pragma debug scope 1 1
  63  000A              public _TB0_ISR
  63  000A              #pragma debug scope 9 1
  69  000A              #line 69 "E:\hamed\touch2\segment1\segment1\TIMEBASE.h"
  69  0000              @TB0_ISR_code .section at 36 'code'
  69  0000              ifdef INTERRUPT_DELAY
  69  0000              	nop
  69  0000              endif
  69  0000  0080     E  	mov r1,a
  69  0001  070A        	mov a,status
  69  0002              ifndef INTERRUPT_DELAY
  69  0002  0080     E  	mov r2,a
  69  0003              endif
  69  0003  2800     R  	jmp _TB0_ISR
  69  0004              #pragma debug scope 1 1
  69  0004              @dummy36 endp
  69  0004              #pragma debug scope 10 1
  69  0000              _TB0_ISR .section 'code'
"File: TIMEBASE.h    Assembler  Version HGASM0202      Page 9

  69  0000              _TB0_ISR proc
  69  0000              ifdef INTERRUPT_DELAY
  69  0000              	mov r2,a
  69  0000              endif
  92  0000              #line 92 "E:\hamed\touch2\segment1\segment1\TIMEBASE.h"
  92  0000  0700     R  	mov a,_uart_s[0]
  92  0001  0500     R  	or a,_uart_s[1]
  92  0002  3D0A        	sz z
  92  0003  2800     R  	jmp _L16
  92  0004              #line 92 "E:\hamed\touch2\segment1\segment1\TIMEBASE.h"
  92  0004  1480     R  	inc _n[0]
  92  0005  3D0A        	sz z
  92  0006  1480     R  	inc _n[1]
  92  0007              _L16:
  93  0007              #line 93 "E:\hamed\touch2\segment1\segment1\TIMEBASE.h"
  93  0007  0FA0        	mov a,160
  93  0008  0200     R  	sub a,_n[0]
  93  0009  0F0F        	mov a,15
  93  000A  1200     R  	sbc a,_n[1]
  93  000B  3B8A        	snz sc
  93  000C  2800     R  	jmp _L17
  94  000D              #line 94 "E:\hamed\touch2\segment1\segment1\TIMEBASE.h"
  94  000D  1F00     R  	clr _n[0]
  94  000E  1F00     R  	clr _n[1]
  95  000F              #line 95 "E:\hamed\touch2\segment1\segment1\TIMEBASE.h"
  95  000F  1F00     R  	clr _uart_s[0]
  95  0010  1F00     R  	clr _uart_s[1]
  96  0011              #line 96 "E:\hamed\touch2\segment1\segment1\TIMEBASE.h"
  96  0011  0700     R  	mov a,_UP[0]
  96  0012  0500     R  	or a,_UP[1]
  96  0013  3D0A        	sz z
  96  0014  2800     R  	jmp _L18
  96  0015  1480     R  	inc _newnaumber[0]
  96  0016  3D0A        	sz z
  96  0017  1480     R  	inc _newnaumber[1]
  96  0018  2800     R  	jmp _L17
  96  0019              _L18:
  96  0019  0FFF        	mov a,255
  96  001A  0380     R  	addm a,_newnaumber[0]
  96  001B  0FFF        	mov a,255
  96  001C  1380     R  	adcm a,_newnaumber[1]
  96  001D              _L17:
  99  001D              #line 99 "E:\hamed\touch2\segment1\segment1\TIMEBASE.h"
  99  001D  0F09        	mov a,9
  99  001E  0200     R  	sub a,_newnaumber[0]
  99  001F  0F00        	mov a,0
  99  0020  1200     R  	sbc a,_newnaumber[1]
  99  0021  3B8A        	snz sc
  99  0022  2800     R  	jmp _L19
  99  0023  0700     R  	mov a,_UP[0]
  99  0024  0080     R  	mov _DN[0],a
  99  0025  0700     R  	mov a,_UP[1]
  99  0026  0080     R  	mov _DN[1],a
  99  0027  0F01        	mov a,1
  99  0028  0080     E  	mov rb,a
  99  0029  1F00     E  	clr rc
  99  002A  0700     R  	mov a,_UP[0]
  99  002B  0500     R  	or a,_UP[1]
  99  002C  3D0A        	sz z
  99  002D  2800     R  	jmp _L20
"File: TIMEBASE.h    Assembler  Version HGASM0202      Page 10

  99  002E  1F00     E  	clr rb
  99  002F  1F00     E  	clr rc
  99  0030              _L20:
  99  0030  0700     E  	mov a,rb
  99  0031  0080     R  	mov _UP[0],a
  99  0032  0700     E  	mov a,rc
  99  0033  0080     R  	mov _UP[1],a
  99  0034              _L19:
 102  0034              #line 102 "E:\hamed\touch2\segment1\segment1\TIMEBASE.h"
 102  0034  0F01        	mov a,1
 102  0035  0380     R  	addm a,_ni[0]
 102  0036  0F00        	mov a,0
 102  0037  1380     R  	adcm a,_ni[1]
 102  0038  1380     R  	adcm a,_ni[2]
 102  0039  1380     R  	adcm a,_ni[3]
 105  003A              #line 105 "E:\hamed\touch2\segment1\segment1\TIMEBASE.h"
 105  003A  1480     R  	inc _nj[0]
 105  003B  3D0A        	sz z
 105  003C  1480     R  	inc _nj[1]
 106  003D              #line 106 "E:\hamed\touch2\segment1\segment1\TIMEBASE.h"
 106  003D  0F50        	mov a,80
 106  003E  0200     R  	sub a,_nj[0]
 106  003F  0F00        	mov a,0
 106  0040  1200     R  	sbc a,_nj[1]
 106  0041  3B8A        	snz sc
 106  0042  2800     R  	jmp _L21
 106  0043  1F00     R  	clr _nj[0]
 106  0044  1F00     R  	clr _nj[1]
 106  0045  1480     R  	inc _conter8[0]
 106  0046  3D0A        	sz z
 106  0047  1480     R  	inc _conter8[1]
 106  0048              _L21:
 107  0048              #line 107 "E:\hamed\touch2\segment1\segment1\TIMEBASE.h"
 107  0048  0F07        	mov a,7
 107  0049  0200     R  	sub a,_conter8[0]
 107  004A  0F00        	mov a,0
 107  004B  1200     R  	sbc a,_conter8[1]
 107  004C  3B8A        	snz sc
 107  004D  2800     R  	jmp _L22
 107  004E  1F00     R  	clr _conter8[0]
 107  004F  1F00     R  	clr _conter8[1]
 107  0050              _L22:
 110  0050              #line 110 "E:\hamed\touch2\segment1\segment1\TIMEBASE.h"
 110  0050  0F78        	mov a,120
 110  0051  0200     R  	sub a,_ni[0]
 110  0052  0F00        	mov a,0
 110  0053  1200     R  	sbc a,_ni[1]
 110  0054  0F00        	mov a,0
 110  0055  1200     R  	sbc a,_ni[2]
 110  0056  0F00        	mov a,0
 110  0057  1200     R  	sbc a,_ni[3]
 110  0058  3C0A        	sz c
 110  0059  2800     R  	jmp _L23
 110  005A  0700     R  	mov a,_oldnaumber[0]
 110  005B  0200     R  	sub a,_newnaumber[0]
 110  005C  0700     R  	mov a,_oldnaumber[1]
 110  005D  1200     R  	sbc a,_newnaumber[1]
 110  005E  3F0A        	sz cz
 110  005F  2800     R  	jmp _L23
 111  0060              #line 111 "E:\hamed\touch2\segment1\segment1\TIMEBASE.h"
"File: TIMEBASE.h    Assembler  Version HGASM0202      Page 11

 111  0060  1F00     R  	clr _ni[0]
 111  0061  1F00     R  	clr _ni[1]
 111  0062  1F00     R  	clr _ni[2]
 111  0063  1F00     R  	clr _ni[3]
 112  0064              #line 112 "E:\hamed\touch2\segment1\segment1\TIMEBASE.h"
 112  0064  1480     R  	inc _R[0]
 112  0065  3D0A        	sz z
 112  0066  1480     R  	inc _R[1]
 112  0067              _L23:
 117  0067              #line 117 "E:\hamed\touch2\segment1\segment1\TIMEBASE.h"
 117  0067              ;# 117 "E:\hamed\touch2\segment1\segment1\TIMEBASE.h" 1
 117  0067  0001        	clr wdt
 117  0068  0700     E  	mov a,r2
 117  0069  008A        	mov status,a
 117  006A  0700     E  	mov a,r1
 117  006B  0004        	reti
 117  006C              _TB0_ISR endp
 117  006C              
 117  006C              #line 117 "E:\hamed\touch2\segment1\segment1\TIMEBASE.h"
 117  006C              #pragma debug scope 1 1
 117  006C              public _TB1_ISR
 117  006C              #pragma debug scope 11 1
 130  006C              #line 130 "E:\hamed\touch2\segment1\segment1\TIMEBASE.h"
 130  0000              @TB1_ISR_code .section at 40 'code'
 130  0000              ifdef INTERRUPT_DELAY
 130  0000              	nop
 130  0000              endif
 130  0000  0080     E  	mov r1,a
 130  0001  070A        	mov a,status
 130  0002              ifndef INTERRUPT_DELAY
 130  0002  0080     E  	mov r2,a
 130  0003              endif
 130  0003  2800     R  	jmp _TB1_ISR
 130  0004              #pragma debug scope 1 1
 130  0004              @dummy40 endp
 130  0004              #pragma debug scope 12 1
 130  0000              _TB1_ISR .section 'code'
 130  0000              _TB1_ISR proc
 130  0000              ifdef INTERRUPT_DELAY
 130  0000              	mov r2,a
 130  0000              endif
 130  0000  0703        	mov a,mp
 130  0001  0080     E  	mov r3,a
 130  0002  0704        	mov a,sbp
 130  0003  0080     E  	mov r4,a
 130  0004  0707        	mov a,tblp
 130  0005  0080     E  	mov r5,a
 130  0006  0709        	mov a,tbhp
 130  0007  0080     E  	mov r6,a
 131  0008              #line 131 "E:\hamed\touch2\segment1\segment1\TIMEBASE.h"
 131  0008              ;# 131 "E:\hamed\touch2\segment1\segment1\TIMEBASE.h" 1
 131  0008  0001        	clr wdt
 139  0009              #line 139 "E:\hamed\touch2\segment1\segment1\TIMEBASE.h"
 139  0009  1480     R  	inc _row[0]
 139  000A  3D0A        	sz z
 139  000B  1480     R  	inc _row[1]
 140  000C              #line 140 "E:\hamed\touch2\segment1\segment1\TIMEBASE.h"
 140  000C  0F07        	mov a,7
 140  000D  0200     R  	sub a,_row[0]
 140  000E  0F00        	mov a,0
"File: TIMEBASE.h    Assembler  Version HGASM0202      Page 12

 140  000F  1200     R  	sbc a,_row[1]
 140  0010  3B8A        	snz sc
 140  0011  2800     R  	jmp _L31
 140  0012              #line 140 "E:\hamed\touch2\segment1\segment1\TIMEBASE.h"
 140  0012  1F00     R  	clr _row[0]
 140  0013  1F00     R  	clr _row[1]
 140  0014              _L31:
 144  0014              #line 144 "E:\hamed\touch2\segment1\segment1\TIMEBASE.h"
 144  0014  2000     R  	call _cleardisplay
 146  0015              #line 146 "E:\hamed\touch2\segment1\segment1\TIMEBASE.h"
 146  0015  0700     R  	mov a,_row[0]
 146  0016  0080     E  	mov rb,a
 146  0017  0700     R  	mov a,_row[1]
 146  0018  0080     E  	mov rc,a
 146  0019  0700     E  	mov a,rb
 146  001A  0500     E  	or a,rc
 146  001B  3D0A        	sz z
 146  001C  2800     R  	jmp _L33
 146  001D  0700     E  	mov a,rb
 146  001E  0C01        	xor a,1
 146  001F  0500     E  	or a,rc
 146  0020  3D0A        	sz z
 146  0021  2800     R  	jmp _L34
 146  0022  0700     E  	mov a,rb
 146  0023  0C02        	xor a,2
 146  0024  0500     E  	or a,rc
 146  0025  3D0A        	sz z
 146  0026  2800     R  	jmp _L35
 146  0027  0700     E  	mov a,rb
 146  0028  0C03        	xor a,3
 146  0029  0500     E  	or a,rc
 146  002A  3D0A        	sz z
 146  002B  2800     R  	jmp _L36
 146  002C  0700     E  	mov a,rb
 146  002D  0C04        	xor a,4
 146  002E  0500     E  	or a,rc
 146  002F  3D0A        	sz z
 146  0030  2800     R  	jmp _L37
 146  0031  0700     E  	mov a,rb
 146  0032  0C05        	xor a,5
 146  0033  0500     E  	or a,rc
 146  0034  3D0A        	sz z
 146  0035  2800     R  	jmp _L38
 146  0036  0700     E  	mov a,rb
 146  0037  0C06        	xor a,6
 146  0038  0500     E  	or a,rc
 146  0039  3D0A        	sz z
 146  003A  2800     R  	jmp _L39
 146  003B  0700     E  	mov a,rb
 146  003C  0C07        	xor a,7
 146  003D  0500     E  	or a,rc
 146  003E  390A        	snz z
 146  003F  2800     R  	jmp _L32
 154  0040              #line 154 "E:\hamed\touch2\segment1\segment1\TIMEBASE.h"
 154  0040  3394        	set [20].7
 154  0041  2800     R  	jmp _L32
 154  0042              _L33:
 147  0042              #line 147 "E:\hamed\touch2\segment1\segment1\TIMEBASE.h"
 147  0042  3014        	set [20].0
 147  0043  2800     R  	jmp _L32
"File: TIMEBASE.h    Assembler  Version HGASM0202      Page 13

 147  0044              _L34:
 148  0044              #line 148 "E:\hamed\touch2\segment1\segment1\TIMEBASE.h"
 148  0044  3114        	set [20].2
 148  0045  2800     R  	jmp _L32
 148  0046              _L35:
 149  0046              #line 149 "E:\hamed\touch2\segment1\segment1\TIMEBASE.h"
 149  0046  31F0        	set [112].3
 149  0047  2800     R  	jmp _L32
 149  0048              _L36:
 150  0048              #line 150 "E:\hamed\touch2\segment1\segment1\TIMEBASE.h"
 150  0048  3170        	set [112].2
 150  0049  2800     R  	jmp _L32
 150  004A              _L37:
 151  004A              #line 151 "E:\hamed\touch2\segment1\segment1\TIMEBASE.h"
 151  004A  30A4        	set [36].1
 151  004B  2800     R  	jmp _L32
 151  004C              _L38:
 152  004C              #line 152 "E:\hamed\touch2\segment1\segment1\TIMEBASE.h"
 152  004C  3024        	set [36].0
 152  004D  2800     R  	jmp _L32
 152  004E              _L39:
 153  004E              #line 153 "E:\hamed\touch2\segment1\segment1\TIMEBASE.h"
 153  004E  3314        	set [20].6
 153  004F              _L32:
 167  004F              #line 167 "E:\hamed\touch2\segment1\segment1\TIMEBASE.h"
 167  004F  0700     R  	mov a,_UP[0]
 167  0050  0500     R  	or a,_UP[1]
 167  0051  3D0A        	sz z
 167  0052  2800     R  	jmp _L52
 167  0053  0700     R  	mov a,_conter8[0]
 167  0054  0080     E  	mov rb,a
 167  0055  0700     R  	mov a,_conter8[1]
 167  0056  0080     E  	mov rc,a
 167  0057  0F03        	mov a,3
 167  0058              _LI1:
 167  0058  340A        	clr c
 167  0059  1A80     E  	rlc rb
 167  005A  1A80     E  	rlc rc
 167  005B  1785        	sdz acc
 167  005C  2800     R  	jmp _LI1
 167  005D  0700     R  	mov a,_row[0]
 167  005E  0380     E  	addm a,rb
 167  005F  0700     R  	mov a,_row[1]
 167  0060  1380     E  	adcm a,rc
 167  0061  0F00     R  	mov a,low offset _jahatUP
 167  0062  0300     E  	add a,rb
 167  0063  0083        	mov mp,a
 167  0064  0F00     R  	mov a,high offset _jahatUP
 167  0065  1300     E  	adc a,rc
 167  0066  0084        	mov sbp,a
 167  0067  2000     E  	call _Crom2Prom
 167  0068  0080     E  	mov ra,a
 167  0069  2800     R  	jmp _L41
 167  006A              _L52:
 157  006A              #line 157 "E:\hamed\touch2\segment1\segment1\TIMEBASE.h"
 157  006A  1F00     E  	clr ra
 157  006B              _L41:
 168  006B              #line 168 "E:\hamed\touch2\segment1\segment1\TIMEBASE.h"
 168  006B  0700     R  	mov a,_DN[0]
 168  006C  0500     R  	or a,_DN[1]
"File: TIMEBASE.h    Assembler  Version HGASM0202      Page 14

 168  006D  3D0A        	sz z
 168  006E  2800     R  	jmp _L42
 168  006F  0700     R  	mov a,_conter8[0]
 168  0070  0080     E  	mov rb,a
 168  0071  0700     R  	mov a,_conter8[1]
 168  0072  0080     E  	mov rc,a
 168  0073  0F03        	mov a,3
 168  0074              _LI2:
 168  0074  340A        	clr c
 168  0075  1A80     E  	rlc rb
 168  0076  1A80     E  	rlc rc
 168  0077  1785        	sdz acc
 168  0078  2800     R  	jmp _LI2
 168  0079  0700     R  	mov a,_row[0]
 168  007A  0380     E  	addm a,rb
 168  007B  0700     R  	mov a,_row[1]
 168  007C  1380     E  	adcm a,rc
 168  007D  0F00     R  	mov a,low offset _jahatDN
 168  007E  0300     E  	add a,rb
 168  007F  0083        	mov mp,a
 168  0080  0F00     R  	mov a,high offset _jahatDN
 168  0081  1300     E  	adc a,rc
 168  0082  0084        	mov sbp,a
 168  0083  2000     E  	call _Crom2Prom
 168  0084  0080     E  	mov ra,a
 168  0085              _L42:
 172  0085              #line 172 "E:\hamed\touch2\segment1\segment1\TIMEBASE.h"
 172  0085  0700     R  	mov a,_oldnaumber[0]
 172  0086  0200     R  	sub a,_newnaumber[0]
 172  0087  0700     R  	mov a,_oldnaumber[1]
 172  0088  1200     R  	sbc a,_newnaumber[1]
 172  0089  3F0A        	sz cz
 172  008A  2800     R  	jmp _L43
 173  008B              #line 173 "E:\hamed\touch2\segment1\segment1\TIMEBASE.h"
 173  008B  0700     R  	mov a,_UP[0]
 173  008C  0500     R  	or a,_UP[1]
 173  008D  3D0A        	sz z
 173  008E  2800     R  	jmp _L53
 174  008F              #line 174 "E:\hamed\touch2\segment1\segment1\TIMEBASE.h"
 174  008F  0F07        	mov a,7
 174  0090  0200     R  	sub a,_R[0]
 174  0091  0F00        	mov a,0
 174  0092  1200     R  	sbc a,_R[1]
 174  0093  3F8A        	sz sc
 174  0094  2800     R  	jmp _L54
 175  0095              #line 175 "E:\hamed\touch2\segment1\segment1\TIMEBASE.h"
 175  0095  0700     R  	mov a,_R[0]
 175  0096  0080     E  	mov rd,a
 175  0097  0700     R  	mov a,_R[1]
 175  0098  0080     E  	mov re,a
 175  0099  0700     R  	mov a,_oldnaumber[0]
 175  009A  0080     E  	mov rb,a
 175  009B  0700     R  	mov a,_oldnaumber[1]
 175  009C  0080     E  	mov rc,a
 175  009D  0F03        	mov a,3
 175  009E              _LI3:
 175  009E  340A        	clr c
 175  009F  1A80     E  	rlc rb
 175  00A0  1A80     E  	rlc rc
 175  00A1  1785        	sdz acc
"File: TIMEBASE.h    Assembler  Version HGASM0202      Page 15

 175  00A2  2800     R  	jmp _LI3
 175  00A3  0700     R  	mov a,_row[0]
 175  00A4  0380     E  	addm a,rb
 175  00A5  0700     R  	mov a,_row[1]
 175  00A6  1380     E  	adcm a,rc
 175  00A7  0F00     R  	mov a,low offset _numbers
 175  00A8  0300     E  	add a,rb
 175  00A9  0083        	mov mp,a
 175  00AA  0F00     R  	mov a,high offset _numbers
 175  00AB  1300     E  	adc a,rc
 175  00AC  0084        	mov sbp,a
 175  00AD  2000     E  	call _Crom2Prom
 175  00AE  0080     E  	mov rb,a
 175  00AF  1F00     E  	clr rc
 175  00B0  1400     E  	inca rd
 175  00B1  2800     R  	jmp _LI4
 175  00B2              _LI5:
 175  00B2  340A        	clr c
 175  00B3  1A80     E  	rlc rb
 175  00B4  1A80     E  	rlc rc
 175  00B5              _LI4:
 175  00B5  1785        	sdz acc
 175  00B6  2800     R  	jmp _LI5
 175  00B7  2800     R  	jmp _L45
 175  00B8              _L54:
 157  00B8              #line 157 "E:\hamed\touch2\segment1\segment1\TIMEBASE.h"
 157  00B8  1F00     E  	clr rb
 157  00B9              _L45:
 178  00B9              #line 178 "E:\hamed\touch2\segment1\segment1\TIMEBASE.h"
 178  00B9  0F07        	mov a,7
 178  00BA  0200     R  	sub a,_R[0]
 178  00BB  0F00        	mov a,0
 178  00BC  1200     R  	sbc a,_R[1]
 178  00BD  3B8A        	snz sc
 178  00BE  2800     R  	jmp _L46
 178  00BF  0F0F        	mov a,15
 178  00C0  0200     R  	sub a,_R[0]
 178  00C1  0F00        	mov a,0
 178  00C2  1200     R  	sbc a,_R[1]
 178  00C3  3F8A        	sz sc
 178  00C4  2800     R  	jmp _L46
 179  00C5              #line 179 "E:\hamed\touch2\segment1\segment1\TIMEBASE.h"
 179  00C5  0700     R  	mov a,_newnaumber[0]
 179  00C6  0080     E  	mov rb,a
 179  00C7  0700     R  	mov a,_newnaumber[1]
 179  00C8  0080     E  	mov rc,a
 179  00C9  0F03        	mov a,3
 179  00CA              _LI6:
 179  00CA  340A        	clr c
 179  00CB  1A80     E  	rlc rb
 179  00CC  1A80     E  	rlc rc
 179  00CD  1785        	sdz acc
 179  00CE  2800     R  	jmp _LI6
 179  00CF  0700     R  	mov a,_row[0]
 179  00D0  0380     E  	addm a,rb
 179  00D1  0700     R  	mov a,_row[1]
 179  00D2  1380     E  	adcm a,rc
 179  00D3  0F00     R  	mov a,low offset _numbers
 179  00D4  0300     E  	add a,rb
 179  00D5  0083        	mov mp,a
"File: TIMEBASE.h    Assembler  Version HGASM0202      Page 16

 179  00D6  0F00     R  	mov a,high offset _numbers
 179  00D7  1300     E  	adc a,rc
 179  00D8  0084        	mov sbp,a
 179  00D9  2000     E  	call _Crom2Prom
 179  00DA  0080     E  	mov rb,a
 179  00DB  1F00     E  	clr rc
 179  00DC  0F10        	mov a,16
 179  00DD  0200     R  	sub a,_R[0]
 179  00DE  0080     E  	mov rf,a
 179  00DF  0F00        	mov a,0
 179  00E0  1200     R  	sbc a,_R[1]
 179  00E1  0080     E  	mov rg,a
 179  00E2  1400     E  	inca rf
 179  00E3  2800     R  	jmp _LI7
 179  00E4              _LI8:
 179  00E4  340A        	clr c
 179  00E5  3C00     E  	sz rc.7
 179  00E6  300A        	set c
 179  00E7  1B80     E  	rrc rc
 179  00E8  1B80     E  	rrc rb
 179  00E9              _LI7:
 179  00E9  1785        	sdz acc
 179  00EA  2800     R  	jmp _LI8
 179  00EB              _L46:
 181  00EB              #line 181 "E:\hamed\touch2\segment1\segment1\TIMEBASE.h"
 181  00EB  0F0F        	mov a,15
 181  00EC  0200     R  	sub a,_R[0]
 181  00ED  0F00        	mov a,0
 181  00EE  1200     R  	sbc a,_R[1]
 181  00EF  3B8A        	snz sc
 181  00F0  2800     R  	jmp _L44
 181  00F1  1F00     R  	clr _R[0]
 181  00F2  1F00     R  	clr _R[1]
 181  00F3  0700     R  	mov a,_newnaumber[0]
 181  00F4  0080     R  	mov _oldnaumber[0],a
 181  00F5  0700     R  	mov a,_newnaumber[1]
 181  00F6  0080     R  	mov _oldnaumber[1],a
 181  00F7  2800     R  	jmp _L44
 181  00F8              _L53:
 157  00F8              #line 157 "E:\hamed\touch2\segment1\segment1\TIMEBASE.h"
 157  00F8  1F00     E  	clr rb
 157  00F9              _L44:
 183  00F9              #line 183 "E:\hamed\touch2\segment1\segment1\TIMEBASE.h"
 183  00F9  0700     R  	mov a,_DN[0]
 183  00FA  0500     R  	or a,_DN[1]
 183  00FB  3D0A        	sz z
 183  00FC  2800     R  	jmp _L47
 184  00FD              #line 184 "E:\hamed\touch2\segment1\segment1\TIMEBASE.h"
 184  00FD  0F07        	mov a,7
 184  00FE  0200     R  	sub a,_R[0]
 184  00FF  0F00        	mov a,0
 184  0100  1200     R  	sbc a,_R[1]
 184  0101  3F8A        	sz sc
 184  0102  2800     R  	jmp _L48
 185  0103              #line 185 "E:\hamed\touch2\segment1\segment1\TIMEBASE.h"
 185  0103  0700     R  	mov a,_R[0]
 185  0104  0080     E  	mov rd,a
 185  0105  0700     R  	mov a,_R[1]
 185  0106  0080     E  	mov re,a
 185  0107  0700     R  	mov a,_oldnaumber[0]
"File: TIMEBASE.h    Assembler  Version HGASM0202      Page 17

 185  0108  0080     E  	mov rb,a
 185  0109  0700     R  	mov a,_oldnaumber[1]
 185  010A  0080     E  	mov rc,a
 185  010B  0F03        	mov a,3
 185  010C              _LI9:
 185  010C  340A        	clr c
 185  010D  1A80     E  	rlc rb
 185  010E  1A80     E  	rlc rc
 185  010F  1785        	sdz acc
 185  0110  2800     R  	jmp _LI9
 185  0111  0700     R  	mov a,_row[0]
 185  0112  0380     E  	addm a,rb
 185  0113  0700     R  	mov a,_row[1]
 185  0114  1380     E  	adcm a,rc
 185  0115  0F00     R  	mov a,low offset _numbers
 185  0116  0300     E  	add a,rb
 185  0117  0083        	mov mp,a
 185  0118  0F00     R  	mov a,high offset _numbers
 185  0119  1300     E  	adc a,rc
 185  011A  0084        	mov sbp,a
 185  011B  2000     E  	call _Crom2Prom
 185  011C  0080     E  	mov rb,a
 185  011D  1F00     E  	clr rc
 185  011E  1400     E  	inca rd
 185  011F  2800     R  	jmp _LI10
 185  0120              _LI11:
 185  0120  340A        	clr c
 185  0121  3C00     E  	sz rc.7
 185  0122  300A        	set c
 185  0123  1B80     E  	rrc rc
 185  0124  1B80     E  	rrc rb
 185  0125              _LI10:
 185  0125  1785        	sdz acc
 185  0126  2800     R  	jmp _LI11
 185  0127              _L48:
 188  0127              #line 188 "E:\hamed\touch2\segment1\segment1\TIMEBASE.h"
 188  0127  0F07        	mov a,7
 188  0128  0200     R  	sub a,_R[0]
 188  0129  0F00        	mov a,0
 188  012A  1200     R  	sbc a,_R[1]
 188  012B  3B8A        	snz sc
 188  012C  2800     R  	jmp _L49
 188  012D  0F0F        	mov a,15
 188  012E  0200     R  	sub a,_R[0]
 188  012F  0F00        	mov a,0
 188  0130  1200     R  	sbc a,_R[1]
 188  0131  3F8A        	sz sc
 188  0132  2800     R  	jmp _L49
 189  0133              #line 189 "E:\hamed\touch2\segment1\segment1\TIMEBASE.h"
 189  0133  0700     R  	mov a,_newnaumber[0]
 189  0134  0080     E  	mov rb,a
 189  0135  0700     R  	mov a,_newnaumber[1]
 189  0136  0080     E  	mov rc,a
 189  0137  0F03        	mov a,3
 189  0138              _LI12:
 189  0138  340A        	clr c
 189  0139  1A80     E  	rlc rb
 189  013A  1A80     E  	rlc rc
 189  013B  1785        	sdz acc
 189  013C  2800     R  	jmp _LI12
"File: TIMEBASE.h    Assembler  Version HGASM0202      Page 18

 189  013D  0700     R  	mov a,_row[0]
 189  013E  0380     E  	addm a,rb
 189  013F  0700     R  	mov a,_row[1]
 189  0140  1380     E  	adcm a,rc
 189  0141  0F00     R  	mov a,low offset _numbers
 189  0142  0300     E  	add a,rb
 189  0143  0083        	mov mp,a
 189  0144  0F00     R  	mov a,high offset _numbers
 189  0145  1300     E  	adc a,rc
 189  0146  0084        	mov sbp,a
 189  0147  2000     E  	call _Crom2Prom
 189  0148  0080     E  	mov rb,a
 189  0149  1F00     E  	clr rc
 189  014A  0F10        	mov a,16
 189  014B  0200     R  	sub a,_R[0]
 189  014C  0080     E  	mov rf,a
 189  014D  0F00        	mov a,0
 189  014E  1200     R  	sbc a,_R[1]
 189  014F  0080     E  	mov rg,a
 189  0150  1400     E  	inca rf
 189  0151  2800     R  	jmp _LI13
 189  0152              _LI14:
 189  0152  340A        	clr c
 189  0153  1A80     E  	rlc rb
 189  0154  1A80     E  	rlc rc
 189  0155              _LI13:
 189  0155  1785        	sdz acc
 189  0156  2800     R  	jmp _LI14
 189  0157              _L49:
 191  0157              #line 191 "E:\hamed\touch2\segment1\segment1\TIMEBASE.h"
 191  0157  0F0F        	mov a,15
 191  0158  0200     R  	sub a,_R[0]
 191  0159  0F00        	mov a,0
 191  015A  1200     R  	sbc a,_R[1]
 191  015B  3B8A        	snz sc
 191  015C  2800     R  	jmp _L47
 191  015D  1F00     R  	clr _R[0]
 191  015E  1F00     R  	clr _R[1]
 191  015F  0700     R  	mov a,_newnaumber[0]
 191  0160  0080     R  	mov _oldnaumber[0],a
 191  0161  0700     R  	mov a,_newnaumber[1]
 191  0162  0080     R  	mov _oldnaumber[1],a
 191  0163  2800     R  	jmp _L47
 191  0164              _L43:
 195  0164              #line 195 "E:\hamed\touch2\segment1\segment1\TIMEBASE.h"
 195  0164  0700     R  	mov a,_oldnaumber[0]
 195  0165  0080     E  	mov rb,a
 195  0166  0700     R  	mov a,_oldnaumber[1]
 195  0167  0080     E  	mov rc,a
 195  0168  0F03        	mov a,3
 195  0169              _LI15:
 195  0169  340A        	clr c
 195  016A  1A80     E  	rlc rb
 195  016B  1A80     E  	rlc rc
 195  016C  1785        	sdz acc
 195  016D  2800     R  	jmp _LI15
 195  016E  0700     R  	mov a,_row[0]
 195  016F  0380     E  	addm a,rb
 195  0170  0700     R  	mov a,_row[1]
 195  0171  1380     E  	adcm a,rc
"File: TIMEBASE.h    Assembler  Version HGASM0202      Page 19

 195  0172  0F00     R  	mov a,low offset _numbers
 195  0173  0300     E  	add a,rb
 195  0174  0083        	mov mp,a
 195  0175  0F00     R  	mov a,high offset _numbers
 195  0176  1300     E  	adc a,rc
 195  0177  0084        	mov sbp,a
 195  0178  2000     E  	call _Crom2Prom
 195  0179  0080     E  	mov rb,a
 195  017A              _L47:
 201  017A              #line 201 "E:\hamed\touch2\segment1\segment1\TIMEBASE.h"
 201  017A  0700     E  	mov a,rb
 201  017B  0E01        	and a,1
 201  017C  0080     E  	mov rd,a
 201  017D  1F00     E  	clr rc
 201  017E  1080     E  	sz rd
 201  017F  3000     E  	set rc.2
 201  0180  3524        	clr [36].2
 201  0181  0700     E  	mov a,rc
 201  0182  05A4        	orm a,[36]
 202  0183              #line 202 "E:\hamed\touch2\segment1\segment1\TIMEBASE.h"
 202  0183  1F00     E  	clr rc
 202  0184  3C00     E  	sz rb.1
 202  0185  1480     E  	inc rc
 202  0186  1100     E  	swapa rc
 202  0187  1985        	rr acc
 202  0188  0EF8        	and a,0f8h
 202  0189  0080     E  	mov rc,a
 202  018A  35A4        	clr [36].3
 202  018B  0700     E  	mov a,rc
 202  018C  05A4        	orm a,[36]
 203  018D              #line 203 "E:\hamed\touch2\segment1\segment1\TIMEBASE.h"
 203  018D  1F00     E  	clr rc
 203  018E  3C00     E  	sz rb.2
 203  018F  1480     E  	inc rc
 203  0190  3470        	clr [112].0
 203  0191  0700     E  	mov a,rc
 203  0192  05F0        	orm a,[112]
 204  0193              #line 204 "E:\hamed\touch2\segment1\segment1\TIMEBASE.h"
 204  0193  1F00     E  	clr rc
 204  0194  3C00     E  	sz rb.3
 204  0195  1480     E  	inc rc
 204  0196  0700     E  	mov a,rc
 204  0197  0380     E  	addm a,rc
 204  0198  34F0        	clr [112].1
 204  0199  0700     E  	mov a,rc
 204  019A  05F0        	orm a,[112]
 205  019B              #line 205 "E:\hamed\touch2\segment1\segment1\TIMEBASE.h"
 205  019B  1F00     E  	clr rc
 205  019C  3C00     E  	sz rb.4
 205  019D  1480     E  	inc rc
 205  019E  1900     E  	rra rc
 205  019F  1985        	rr acc
 205  01A0  0EC0        	and a,0c0h
 205  01A1  0080     E  	mov rc,a
 205  01A2  3718        	clr [24].6
 205  01A3  0700     E  	mov a,rc
 205  01A4  0598        	orm a,[24]
 206  01A5              #line 206 "E:\hamed\touch2\segment1\segment1\TIMEBASE.h"
 206  01A5  1F00     E  	clr rc
 206  01A6  3C00     E  	sz rb.5
"File: TIMEBASE.h    Assembler  Version HGASM0202      Page 20

 206  01A7  1480     E  	inc rc
 206  01A8  1B80     E  	rrc rc
 206  01A9  1F00     E  	clr rc
 206  01AA  1B80     E  	rrc rc
 206  01AB  3798        	clr [24].7
 206  01AC  0700     E  	mov a,rc
 206  01AD  0598        	orm a,[24]
 207  01AE              #line 207 "E:\hamed\touch2\segment1\segment1\TIMEBASE.h"
 207  01AE  1F00     E  	clr rc
 207  01AF  3C00     E  	sz rb.6
 207  01B0  3000     E  	set rc.2
 207  01B1  3518        	clr [24].2
 207  01B2  0700     E  	mov a,rc
 207  01B3  0598        	orm a,[24]
 208  01B4              #line 208 "E:\hamed\touch2\segment1\segment1\TIMEBASE.h"
 208  01B4  1A80     E  	rlc rb
 208  01B5  1F00     E  	clr rb
 208  01B6  1A80     E  	rlc rb
 208  01B7  1100     E  	swapa rb
 208  01B8  1985        	rr acc
 208  01B9  0EF8        	and a,0f8h
 208  01BA  0080     E  	mov rb,a
 208  01BB  3598        	clr [24].3
 208  01BC  0700     E  	mov a,rb
 208  01BD  0598        	orm a,[24]
 210  01BE              #line 210 "E:\hamed\touch2\segment1\segment1\TIMEBASE.h"
 210  01BE  0700     R  	mov a,_UP[0]
 210  01BF  0500     R  	or a,_UP[1]
 210  01C0  390A        	snz z
 210  01C1  2800     R  	jmp _L50
 210  01C2  0700     R  	mov a,_DN[0]
 210  01C3  0500     R  	or a,_DN[1]
 210  01C4  3D0A        	sz z
 210  01C5  2800     R  	jmp _L30
 210  01C6              _L50:
 211  01C6              #line 211 "E:\hamed\touch2\segment1\segment1\TIMEBASE.h"
 211  01C6  0700     E  	mov a,ra
 211  01C7  0E01        	and a,1
 211  01C8  0080     E  	mov rb,a
 211  01C9  1100     E  	swapa rb
 211  01CA  1885        	rl acc
 211  01CB  0EE0        	and a,0e0h
 211  01CC  0080     E  	mov rb,a
 211  01CD  36F0        	clr [112].5
 211  01CE  0700     E  	mov a,rb
 211  01CF  05F0        	orm a,[112]
 212  01D0              #line 212 "E:\hamed\touch2\segment1\segment1\TIMEBASE.h"
 212  01D0  1F00     E  	clr rb
 212  01D1  3C00     E  	sz ra.1
 212  01D2  1480     E  	inc rb
 212  01D3  1100     E  	swapa rb
 212  01D4  0EF0        	and a,0f0h 
 212  01D5  0080     E  	mov rb,a
 212  01D6  3670        	clr [112].4
 212  01D7  0700     E  	mov a,rb
 212  01D8  05F0        	orm a,[112]
 213  01D9              #line 213 "E:\hamed\touch2\segment1\segment1\TIMEBASE.h"
 213  01D9  1F00     E  	clr rb
 213  01DA  3C00     E  	sz ra.2
 213  01DB  1480     E  	inc rb
"File: TIMEBASE.h    Assembler  Version HGASM0202      Page 21

 213  01DC  1100     E  	swapa rb
 213  01DD  1985        	rr acc
 213  01DE  0EF8        	and a,0f8h
 213  01DF  0080     E  	mov rb,a
 213  01E0  3594        	clr [20].3
 213  01E1  0700     E  	mov a,rb
 213  01E2  0594        	orm a,[20]
 214  01E3              #line 214 "E:\hamed\touch2\segment1\segment1\TIMEBASE.h"
 214  01E3  1F00     E  	clr rb
 214  01E4  3C00     E  	sz ra.3
 214  01E5  1480     E  	inc rb
 214  01E6  1100     E  	swapa rb
 214  01E7  0EF0        	and a,0f0h 
 214  01E8  0080     E  	mov rb,a
 214  01E9  3614        	clr [20].4
 214  01EA  0700     E  	mov a,rb
 214  01EB  0594        	orm a,[20]
 215  01EC              #line 215 "E:\hamed\touch2\segment1\segment1\TIMEBASE.h"
 215  01EC  1F00     E  	clr rb
 215  01ED  3C00     E  	sz ra.4
 215  01EE  1480     E  	inc rb
 215  01EF  1100     E  	swapa rb
 215  01F0  1885        	rl acc
 215  01F1  0EE0        	and a,0e0h
 215  01F2  0080     E  	mov rb,a
 215  01F3  3698        	clr [24].5
 215  01F4  0700     E  	mov a,rb
 215  01F5  0598        	orm a,[24]
 216  01F6              #line 216 "E:\hamed\touch2\segment1\segment1\TIMEBASE.h"
 216  01F6  1F00     E  	clr rb
 216  01F7  3C00     E  	sz ra.5
 216  01F8  1480     E  	inc rb
 216  01F9  1100     E  	swapa rb
 216  01FA  0EF0        	and a,0f0h 
 216  01FB  0080     E  	mov rb,a
 216  01FC  3618        	clr [24].4
 216  01FD  0700     E  	mov a,rb
 216  01FE  0598        	orm a,[24]
 217  01FF              #line 217 "E:\hamed\touch2\segment1\segment1\TIMEBASE.h"
 217  01FF  1F00     E  	clr rb
 217  0200  3C00     E  	sz ra.6
 217  0201  1480     E  	inc rb
 217  0202  0700     E  	mov a,rb
 217  0203  0380     E  	addm a,rb
 217  0204  3498        	clr [24].1
 217  0205  0700     E  	mov a,rb
 217  0206  0598        	orm a,[24]
 218  0207              #line 218 "E:\hamed\touch2\segment1\segment1\TIMEBASE.h"
 218  0207  1A80     E  	rlc ra
 218  0208  1F00     E  	clr ra
 218  0209  1A80     E  	rlc ra
 218  020A  3418        	clr [24].0
 218  020B  0700     E  	mov a,ra
 218  020C  0598        	orm a,[24]
 218  020D              _L30:
 218  020D  0700     E  	mov a,r2
 218  020E  008A        	mov status,a
 218  020F  0700     E  	mov a,r3
 218  0210  0083        	mov mp,a
 218  0211  0700     E  	mov a,r4
"File: TIMEBASE.h    Assembler  Version HGASM0202      Page 22

 218  0212  0084        	mov sbp,a
 218  0213  0700     E  	mov a,r5
 218  0214  0087        	mov tblp,a
 218  0215  0700     E  	mov a,r6
 218  0216  0089        	mov tbhp,a
 218  0217  1D05        	tabrdc acc
 218  0218  0700     E  	mov a,r1
 218  0219  0004        	reti
 218  021A              _TB1_ISR endp
 218  021A              
 218  021A              #line 218 "E:\hamed\touch2\segment1\segment1\TIMEBASE.h"
 218  021A              #pragma debug scope 1 1
 218  021A              ___pas1 equ [326]
 218  021A              ___papu equ [22]
 218  021A              ___ifs1 equ [323]
 218  021A              ___pas0 equ [325]
 218  021A              ___ucr1 equ [119]
 218  021A              ___ucr2 equ [120]
 218  021A              ___brg equ [122]
 218  021A              ___intc1 equ [17]
 218  021A              public _UART_INIT
 218  021A              #pragma debug scope 13 1

 115  021A              #line 115 "E:\hamed\touch2\segment1\segment1\UART.h"
 115  0000              _UART_INIT .section 'code'
 115  0000              _UART_INIT proc
 115  0000  00              local _UART_INIT_2 db 1 dup(?)	; 0,1
 115  0000  0080     R  	mov _UART_INIT_2[0],a
 115  0001              #pragma debug variable 8 13 _UART_INIT_2+0 "BaudRate"
 116  0001              #line 116 "E:\hamed\touch2\segment1\segment1\UART.h"
 116  0001  B1C6 0001   	lset [326].3
 116  0003  B546 0001   	lclr [326].2
 117  0005              #line 117 "E:\hamed\touch2\segment1\segment1\UART.h"
 117  0005  3095        	set [21].1
 117  0006  3096        	set [22].1
 117  0007  B0C3 0001   	lset [323].1
 117  0009  B043 0001   	lset [323].0
 117  000B  B1C5 0001   	lset [325].3
 117  000D  B545 0001   	lclr [325].2
 118  000F              #line 118 "E:\hamed\touch2\segment1\segment1\UART.h"
 118  000F  36F7        	clr [119].5
 119  0010              #line 119 "E:\hamed\touch2\segment1\segment1\UART.h"
 119  0010  3677        	clr [119].4
 120  0011              #line 120 "E:\hamed\touch2\segment1\segment1\UART.h"
 120  0011  3777        	clr [119].6
 121  0012              #line 121 "E:\hamed\touch2\segment1\segment1\UART.h"
 121  0012  32F8        	set [120].5
 122  0013              #line 122 "E:\hamed\touch2\segment1\segment1\UART.h"
 122  0013  35F7        	clr [119].3
 123  0014              #line 123 "E:\hamed\touch2\segment1\segment1\UART.h"
 123  0014  0700     R  	mov a,_UART_INIT_2[0]
 123  0015  00FA        	mov [122],a
 124  0016              #line 124 "E:\hamed\touch2\segment1\segment1\UART.h"
 124  0016              ;# 124 "E:\hamed\touch2\segment1\segment1\UART.h" 1
 124  0016  0001        	clr wdt
 125  0017              #line 125 "E:\hamed\touch2\segment1\segment1\UART.h"
 125  0017  33F7        	set [119].7
 126  0018              #line 126 "E:\hamed\touch2\segment1\segment1\UART.h"
 126  0018  33F8        	set [120].7
 127  0019              #line 127 "E:\hamed\touch2\segment1\segment1\UART.h"
"File: UART.h        Assembler  Version HGASM0202      Page 23

 127  0019  3378        	set [120].6
 128  001A              #line 128 "E:\hamed\touch2\segment1\segment1\UART.h"
 128  001A  3178        	set [120].2
 129  001B              #line 129 "E:\hamed\touch2\segment1\segment1\UART.h"
 129  001B  34F8        	clr [120].1
 130  001C              #line 130 "E:\hamed\touch2\segment1\segment1\UART.h"
 130  001C  3478        	clr [120].0
 131  001D              #line 131 "E:\hamed\touch2\segment1\segment1\UART.h"
 131  001D  3678        	clr [120].4
 132  001E              #line 132 "E:\hamed\touch2\segment1\segment1\UART.h"
 132  001E  35F8        	clr [120].3
 133  001F              #line 133 "E:\hamed\touch2\segment1\segment1\UART.h"
 133  001F  3577        	clr [119].2
 134  0020              #line 134 "E:\hamed\touch2\segment1\segment1\UART.h"
 134  0020  3011        	set [17].0
 135  0021              #line 135 "E:\hamed\touch2\segment1\segment1\UART.h"
 135  0021  3010        	set [16].0
 135  0022  0003        	ret
 135  0023              _UART_INIT endp
 135  0023              #line 135 "E:\hamed\touch2\segment1\segment1\UART.h"
 135  0023              #pragma debug scope 1 1
 135  0023              ___usr equ [118]
 135  0023              ___txr_rxr equ [121]
 135  0023              public _UART_TRANS
 135  0023              #pragma debug scope 14 1
 139  0023              #line 139 "E:\hamed\touch2\segment1\segment1\UART.h"
 139  0000              _UART_TRANS .section 'code'
 139  0000              _UART_TRANS proc
 139  0000              public _UART_TRANS_2
 139  0000  0002[           local _UART_TRANS_2 db 2 dup(?)	; 2,0
            00
            ]
 139  0002              #pragma debug variable 12 14 _UART_TRANS_2+0 "data"
 140  0002              #line 140 "E:\hamed\touch2\segment1\segment1\UART.h"
 140  0000  3477        	clr [119].0
 140  0001              _L66:
 142  0001              #line 142 "E:\hamed\touch2\segment1\segment1\UART.h"
 142  0001  3C76        	sz [118].0
 142  0002  2800     R  	jmp _L74
 142  0003              ;# 142 "E:\hamed\touch2\segment1\segment1\UART.h" 1
 142  0003  0000        	nop
 142  0004  2800     R  	jmp _L66
 142  0005              _L74:
 142  0005  0700     R  	mov a,_UART_TRANS_2[0]
 142  0006  0080     E  	mov ra,a
 144  0007              #line 144 "E:\hamed\touch2\segment1\segment1\UART.h"
 144  0007  3B77        	snz [119].6
 144  0008  2800     R  	jmp _L68
 146  0009              #line 146 "E:\hamed\touch2\segment1\segment1\UART.h"
 146  0009  3EF7        	sz [119].5
 146  000A  2800     R  	jmp _L68
 152  000B              #line 152 "E:\hamed\touch2\segment1\segment1\UART.h"
 152  000B  0FFF        	mov a,255
 152  000C  0200     R  	sub a,_UART_TRANS_2[0]
 152  000D  0F00        	mov a,0
 152  000E  1200     R  	sbc a,_UART_TRANS_2[1]
 152  000F  3C0A        	sz c
 152  0010  2800     R  	jmp _L68
 154  0011              #line 154 "E:\hamed\touch2\segment1\segment1\UART.h"
 154  0011  3077        	set [119].0
"File: UART.h        Assembler  Version HGASM0202      Page 24

 154  0012              _L68:
 161  0012              #line 161 "E:\hamed\touch2\segment1\segment1\UART.h"
 161  0012  0700     E  	mov a,ra
 161  0013  00F9        	mov [121],a
 161  0014  2800     R  	jmp _L72
 161  0015              _L73:
 164  0015              #line 164 "E:\hamed\touch2\segment1\segment1\UART.h"
 164  0015              ;# 164 "E:\hamed\touch2\segment1\segment1\UART.h" 1
 164  0015  0000        	nop
 164  0016              _L72:
 164  0016  38F6        	snz [118].1
 164  0017  2800     R  	jmp _L73
 164  0018  0003        	ret
 164  0019              _UART_TRANS endp
 164  0019              #line 164 "E:\hamed\touch2\segment1\segment1\UART.h"
 164  0019              #pragma debug scope 1 1
 164  0019              public _UART
 164  0019              #pragma debug scope 15 1
 171  0019              #line 171 "E:\hamed\touch2\segment1\segment1\UART.h"
 171  0000              @UART_code .section at 16 'code'
 171  0000              ifdef INTERRUPT_DELAY
 171  0000              	nop
 171  0000              endif
 171  0000  0080     E  	mov r1,a
 171  0001  070A        	mov a,status
 171  0002              ifndef INTERRUPT_DELAY
 171  0002  0080     E  	mov r2,a
 171  0003              endif
 171  0003  2800     R  	jmp _UART
 171  0004              #pragma debug scope 1 1
 171  0004              @dummy16 endp
 171  0004              #pragma debug scope 16 1
 171  0000              _UART .section 'code'
 171  0000              _UART proc
 171  0000              ifdef INTERRUPT_DELAY
 171  0000              	mov r2,a
 171  0000              endif
 171  0000  0703        	mov a,mp
 171  0001  0080     E  	mov r3,a
 171  0002  0704        	mov a,sbp
 171  0003  0080     E  	mov r4,a
 173  0004              #line 173 "E:\hamed\touch2\segment1\segment1\UART.h"
 173  0004  1F00     R  	clr _UART_RX_FLAG[0]
 174  0005              #line 174 "E:\hamed\touch2\segment1\segment1\UART.h"
 174  0005  3611        	clr [17].4
 175  0006              #line 175 "E:\hamed\touch2\segment1\segment1\UART.h"
 175  0006  0779        	mov a,[121]
 175  0007  0080     E  	mov ra,a
 176  0008              #line 176 "E:\hamed\touch2\segment1\segment1\UART.h"
 176  0008  1F00     R  	clr _UartTime[0]
 177  0009              #line 177 "E:\hamed\touch2\segment1\segment1\UART.h"
 177  0009  0F00     R  	mov a,low offset _BufRx
 177  000A  0300     R  	add a,_BufInd[0]
 177  000B  0083        	mov mp,a
 177  000C  0F00     R  	mov a,high offset _BufRx
 177  000D  1F04        	clr sbp
 177  000E  1384        	adcm a,sbp
 177  000F  0700     E  	mov a,ra
 177  0010  0082        	mov ir,a
 177  0011  1480     R  	inc _BufInd[0]
"File: UART.h        Assembler  Version HGASM0202      Page 25

 181  0012              #line 181 "E:\hamed\touch2\segment1\segment1\UART.h"
 181  0012  0F01        	mov a,1
 181  0013  0080     R  	mov _uart_s[0],a
 181  0014  1F00     R  	clr _uart_s[1]
 181  0015  0700     E  	mov a,r2
 181  0016  008A        	mov status,a
 181  0017  0700     E  	mov a,r3
 181  0018  0083        	mov mp,a
 181  0019  0700     E  	mov a,r4
 181  001A  0084        	mov sbp,a
 181  001B  0700     E  	mov a,r1
 181  001C  0004        	reti
 181  001D              _UART endp
 181  001D              
 181  001D              #line 181 "E:\hamed\touch2\segment1\segment1\UART.h"
 181  001D              #pragma debug scope 1 1
 181  001D              ___acc equ [5]
 181  001D              public _UART_FUNCTION
 181  001D              #pragma debug scope 17 1
 186  001D              #line 186 "E:\hamed\touch2\segment1\segment1\UART.h"
 186  0000              _UART_FUNCTION .section 'code'
 186  0000              _UART_FUNCTION proc
 187  0000              #line 187 "E:\hamed\touch2\segment1\segment1\UART.h"
 187  0000  3A11        	snz [17].4
 187  0001  2800     R  	jmp _L76
 189  0002              #line 189 "E:\hamed\touch2\segment1\segment1\UART.h"
 189  0002  3611        	clr [17].4
 190  0003              #line 190 "E:\hamed\touch2\segment1\segment1\UART.h"
 190  0003  1F00     R  	clr _g_nUART_ISR_Value[0]
 190  0004  1F00     R  	clr _g_nUART_ISR_Value[1]
 191  0005              #line 191 "E:\hamed\touch2\segment1\segment1\UART.h"
 191  0005  1F00     R  	clr _g_nUART_ISR_Value[2]
 191  0006  1F00     R  	clr _g_nUART_ISR_Value[3]
 192  0007              #line 192 "E:\hamed\touch2\segment1\segment1\UART.h"
 192  0007  1F00     R  	clr _g_nUART_err_Flag[0]
 193  0008              #line 193 "E:\hamed\touch2\segment1\segment1\UART.h"
 193  0008  1F00     R  	clr _UART_RX_FLAG[0]
 196  0009              #line 196 "E:\hamed\touch2\segment1\segment1\UART.h"
 196  0009  3BF6        	snz [118].7
 196  000A  2800     R  	jmp _L79
 199  000B              #line 199 "E:\hamed\touch2\segment1\segment1\UART.h"
 199  000B  3000     R  	set _g_nUART_err_Flag[0].7
 199  000C              _L79:
 201  000C              #line 201 "E:\hamed\touch2\segment1\segment1\UART.h"
 201  000C  3B76        	snz [118].6
 201  000D  2800     R  	jmp _L80
 204  000E              #line 204 "E:\hamed\touch2\segment1\segment1\UART.h"
 204  000E  3000     R  	set _g_nUART_err_Flag[0].6
 204  000F              _L80:
 206  000F              #line 206 "E:\hamed\touch2\segment1\segment1\UART.h"
 206  000F  3AF6        	snz [118].5
 206  0010  2800     R  	jmp _L81
 209  0011              #line 209 "E:\hamed\touch2\segment1\segment1\UART.h"
 209  0011  3000     R  	set _g_nUART_err_Flag[0].5
 209  0012              _L81:
 211  0012              #line 211 "E:\hamed\touch2\segment1\segment1\UART.h"
 211  0012  3A76        	snz [118].4
 211  0013  2800     R  	jmp _L82
 214  0014              #line 214 "E:\hamed\touch2\segment1\segment1\UART.h"
 214  0014  3000     R  	set _g_nUART_err_Flag[0].4
"File: UART.h        Assembler  Version HGASM0202      Page 26

 214  0015              _L82:
 218  0015              #line 218 "E:\hamed\touch2\segment1\segment1\UART.h"
 218  0015  3EF7        	sz [119].5
 218  0016  2800     R  	jmp _L83
 218  0017  3F76        	sz [118].6
 218  0018  2800     R  	jmp _L83
 218  0019  3EF6        	sz [118].5
 218  001A  2800     R  	jmp _L83
 218  001B  3A76        	snz [118].4
 218  001C  2800     R  	jmp _L84
 218  001D              _L83:
 220  001D              #line 220 "E:\hamed\touch2\segment1\segment1\UART.h"
 220  001D  0700     R  	mov a,_g_nUART_err_Flag[0]
 220  001E  0EF0        	and a,240
 220  001F  0080     E  	mov ra,a
 220  0020  1E00     E  	snz ra
 220  0021  2800     R  	jmp _L84
 222  0022              #line 222 "E:\hamed\touch2\segment1\segment1\UART.h"
 222  0022  0776        	mov a,[118]
 222  0023  0085        	mov [5],a
 223  0024              #line 223 "E:\hamed\touch2\segment1\segment1\UART.h"
 223  0024  0779        	mov a,[121]
 223  0025  0085        	mov [5],a
 224  0026              #line 224 "E:\hamed\touch2\segment1\segment1\UART.h"
 224  0026  1F00     R  	clr _g_nUART_ISR_Value[0]
 224  0027  1F00     R  	clr _g_nUART_ISR_Value[1]
 225  0028              #line 225 "E:\hamed\touch2\segment1\segment1\UART.h"
 225  0028  1F00     R  	clr _g_nUART_ISR_Value[2]
 225  0029  1F00     R  	clr _g_nUART_ISR_Value[3]
 226  002A              #line 226 "E:\hamed\touch2\segment1\segment1\UART.h"
 226  002A  2800     R  	jmp _L76
 226  002B              _L84:
 232  002B              #line 232 "E:\hamed\touch2\segment1\segment1\UART.h"
 232  002B  3976        	snz [118].2
 232  002C  2800     R  	jmp _L76
 234  002D              #line 234 "E:\hamed\touch2\segment1\segment1\UART.h"
 234  002D  3B77        	snz [119].6
 234  002E  2800     R  	jmp _L86
 236  002F              #line 236 "E:\hamed\touch2\segment1\segment1\UART.h"
 236  002F  3EF7        	sz [119].5
 236  0030  2800     R  	jmp _L120
 242  0031              #line 242 "E:\hamed\touch2\segment1\segment1\UART.h"
 242  0031  38F7        	snz [119].1
 242  0032  2800     R  	jmp _L89
 244  0033              #line 244 "E:\hamed\touch2\segment1\segment1\UART.h"
 244  0033  0776        	mov a,[118]
 244  0034  0085        	mov [5],a
 245  0035              #line 245 "E:\hamed\touch2\segment1\segment1\UART.h"
 245  0035  0F00        	mov a,0
 245  0036  0379        	add a,[121]
 245  0037  0080     R  	mov _g_nUART_ISR_Value[0],a
 245  0038  0F01        	mov a,1
 245  0039  1F00     R  	clr _g_nUART_ISR_Value[1]
 245  003A  1380     R  	adcm a,_g_nUART_ISR_Value[1]
 245  003B  2800     R  	jmp _L88
 245  003C              _L89:
 249  003C              #line 249 "E:\hamed\touch2\segment1\segment1\UART.h"
 249  003C  0776        	mov a,[118]
 249  003D  0085        	mov [5],a
 249  003E              _L120:
"File: UART.h        Assembler  Version HGASM0202      Page 27

 250  003E              #line 250 "E:\hamed\touch2\segment1\segment1\UART.h"
 250  003E  0779        	mov a,[121]
 250  003F  0080     R  	mov _g_nUART_ISR_Value[0],a
 250  0040  1F00     R  	clr _g_nUART_ISR_Value[1]
 250  0041              _L88:
 253  0041              #line 253 "E:\hamed\touch2\segment1\segment1\UART.h"
 253  0041  3976        	snz [118].2
 253  0042  2800     R  	jmp _L76
 255  0043              #line 255 "E:\hamed\touch2\segment1\segment1\UART.h"
 255  0043  3EF7        	sz [119].5
 255  0044  2800     R  	jmp _L121
 261  0045              #line 261 "E:\hamed\touch2\segment1\segment1\UART.h"
 261  0045  38F7        	snz [119].1
 261  0046  2800     R  	jmp _L91
 263  0047              #line 263 "E:\hamed\touch2\segment1\segment1\UART.h"
 263  0047  0776        	mov a,[118]
 263  0048  0085        	mov [5],a
 264  0049              #line 264 "E:\hamed\touch2\segment1\segment1\UART.h"
 264  0049  0F00        	mov a,0
 264  004A  0379        	add a,[121]
 264  004B  0080     R  	mov _g_nUART_ISR_Value[2],a
 264  004C  0F01        	mov a,1
 264  004D  1F00     R  	clr _g_nUART_ISR_Value[3]
 264  004E  1380     R  	adcm a,_g_nUART_ISR_Value[3]
 264  004F  2800     R  	jmp _L76
 264  0050              _L91:
 268  0050              #line 268 "E:\hamed\touch2\segment1\segment1\UART.h"
 268  0050  0776        	mov a,[118]
 268  0051  0085        	mov [5],a
 268  0052              _L121:
 269  0052              #line 269 "E:\hamed\touch2\segment1\segment1\UART.h"
 269  0052  0779        	mov a,[121]
 269  0053  0080     R  	mov _g_nUART_ISR_Value[2],a
 269  0054  1F00     R  	clr _g_nUART_ISR_Value[3]
 269  0055  2800     R  	jmp _L76
 269  0056              _L86:
 276  0056              #line 276 "E:\hamed\touch2\segment1\segment1\UART.h"
 276  0056  0776        	mov a,[118]
 276  0057  0085        	mov [5],a
 277  0058              #line 277 "E:\hamed\touch2\segment1\segment1\UART.h"
 277  0058  0779        	mov a,[121]
 277  0059  0080     R  	mov _g_nUART_ISR_Value[0],a
 277  005A  1F00     R  	clr _g_nUART_ISR_Value[1]
 278  005B              #line 278 "E:\hamed\touch2\segment1\segment1\UART.h"
 278  005B  3976        	snz [118].2
 278  005C  2800     R  	jmp _L92
 280  005D              #line 280 "E:\hamed\touch2\segment1\segment1\UART.h"
 280  005D  0776        	mov a,[118]
 280  005E  0085        	mov [5],a
 281  005F              #line 281 "E:\hamed\touch2\segment1\segment1\UART.h"
 281  005F  0779        	mov a,[121]
 281  0060  0080     R  	mov _g_nUART_ISR_Value[2],a
 281  0061  1F00     R  	clr _g_nUART_ISR_Value[3]
 281  0062              _L92:
 283  0062              #line 283 "E:\hamed\touch2\segment1\segment1\UART.h"
 283  0062  0F01        	mov a,1
 283  0063  0080     R  	mov _UART_RX_FLAG[0],a
 283  0064              _L76:
 283  0064  0003        	ret
 283  0065              _UART_FUNCTION endp
"File: UART.h        Assembler  Version HGASM0202      Page 28

 283  0065              #line 283 "E:\hamed\touch2\segment1\segment1\UART.h"
 283  0065              #pragma debug scope 1 1
 283  0065              public _Uart_Print
 283  0065              #pragma debug scope 18 1
 292  0065              #line 292 "E:\hamed\touch2\segment1\segment1\UART.h"
 292  0000              _Uart_Print .section 'code'
 292  0000              _Uart_Print proc
 292  0000              public _Uart_Print_2
 292  0000  0002[           local _Uart_Print_2 db 2 dup(?)	; 2,0
            00
            ]
 292  0002              #pragma debug pointer 42 7 18
 292  0002              #pragma debug pointer 42 7 18
 292  0002              #pragma debug variable 42 18 _Uart_Print_2+0 "string"
 293  0002              #line 293 "E:\hamed\touch2\segment1\segment1\UART.h"
 293  0000  2800     R  	jmp _L123
 293  0001              _L124:
 295  0001              #line 295 "E:\hamed\touch2\segment1\segment1\UART.h"
 295  0001  1480     R  	inc _Uart_Print_2[0]
 295  0002  3D0A        	sz z
 295  0003  1480     R  	inc _Uart_Print_2[1]
 295  0004  0700     E  	mov a,ra
 295  0005  0080     R  	mov _UART_TRANS_2[0],a
 295  0006  1F00     R  	clr _UART_TRANS_2[1]
 295  0007  3F85        	sz acc.7
 295  0008  1F80     R  	set _UART_TRANS_2[1]
 295  0009  2000     R  	call _UART_TRANS
 295  000A              _L123:
 293  000A              #line 293 "E:\hamed\touch2\segment1\segment1\UART.h"
 293  000A  0700     R  	mov a,_Uart_Print_2[0]
 293  000B  0083        	mov mp,a
 293  000C  0700     R  	mov a,_Uart_Print_2[1]
 293  000D  0084        	mov sbp,a
 293  000E  2000     E  	call _Crom2Prom
 293  000F  0080     E  	mov ra,a
 293  0010  1080     E  	sz ra
 293  0011  2800     R  	jmp _L124
 293  0012  0003        	ret
 293  0013              _Uart_Print endp
 293  0013              #line 293 "E:\hamed\touch2\segment1\segment1\UART.h"
 293  0013              #pragma debug scope 1 1
 293  0013              public _UART_String
 293  0013              #pragma debug scope 19 1
 302  0013              #line 302 "E:\hamed\touch2\segment1\segment1\UART.h"
 302  0000              _UART_String .section 'code'
 302  0000              _UART_String proc
 302  0000              public _UART_String_2
 302  0000  0004[           local _UART_String_2 db 4 dup(?)	; 2,2
            00
            ]
 302  0004              #pragma debug pointer 43 7 19
 302  0004              #pragma debug pointer 43 7 19
 302  0004              #pragma debug variable 43 19 _UART_String_2+0 "str"
 302  0004              #pragma debug variable 11 19 _UART_String_2+2 "i"
 304  0004              #line 304 "E:\hamed\touch2\segment1\segment1\UART.h"
 304  0000  1F00     R  	clr _UART_String_2[2]
 304  0001  1F00     R  	clr _UART_String_2[3]
 304  0002  2800     R  	jmp _L126
 304  0003              _L127:
 306  0003              #line 306 "E:\hamed\touch2\segment1\segment1\UART.h"
"File: UART.h        Assembler  Version HGASM0202      Page 29

 306  0003  0700     E  	mov a,ra
 306  0004  0080     R  	mov _UART_TRANS_2[0],a
 306  0005  1F00     R  	clr _UART_TRANS_2[1]
 306  0006  3F85        	sz acc.7
 306  0007  1F80     R  	set _UART_TRANS_2[1]
 306  0008  2000     R  	call _UART_TRANS
 304  0009              #line 304 "E:\hamed\touch2\segment1\segment1\UART.h"
 304  0009  1480     R  	inc _UART_String_2[2]
 304  000A  3D0A        	sz z
 304  000B  1480     R  	inc _UART_String_2[3]
 304  000C              _L126:
 304  000C  0700     R  	mov a,_UART_String_2[2]
 304  000D  0300     R  	add a,_UART_String_2[0]
 304  000E  0083        	mov mp,a
 304  000F  0700     R  	mov a,_UART_String_2[3]
 304  0010  1300     R  	adc a,_UART_String_2[1]
 304  0011  0084        	mov sbp,a
 304  0012  2000     E  	call _Crom2Prom
 304  0013  0080     E  	mov ra,a
 304  0014  1080     E  	sz ra
 304  0015  2800     R  	jmp _L127
 304  0016  0003        	ret
 304  0017              _UART_String endp
 304  0017              #line 304 "E:\hamed\touch2\segment1\segment1\UART.h"
 304  0017              #pragma debug scope 1 1
 304  0017              public _main
 304  0017              #pragma debug scope 20 1

  14  0017              #line 14 "E:\hamed\touch2\segment1\segment1\segment1.c"
  14  0017              IFDEF WITH_DEFAULT_STARTUP
  14  0017              extern _main_initial0:near
  14  0017              extern _main_startup:near
  14  0017              ENDIF
  14  0017              
  14  0017              ROMBANK 0 @start
  14  0000              @start .section com_l 'code'
  14  0000              _main_startup1:
  14  0000              @start .section com_e 'code'
  14  0000  2800     R  	jmp _main
  14  0001              
  14  0000              _main .section 'code'
  14  0000              _main proc
  15  0000              #line 15 "E:\hamed\touch2\segment1\segment1\segment1.c"
  15  0000  0F01        	mov a,1
  15  0001  0080     R  	mov _delay_ms_2[0],a
  15  0002  1F00     R  	clr _delay_ms_2[1]
  15  0003  1F00     R  	clr _delay_ms_2[2]
  15  0004  1F00     R  	clr _delay_ms_2[3]
  15  0005  2000     R  	call _delay_ms
  16  0006              #line 16 "E:\hamed\touch2\segment1\segment1\segment1.c"
  16  0006  2000     R  	call _initMatrix
  17  0007              #line 17 "E:\hamed\touch2\segment1\segment1\segment1.c"
  17  0007  0F01        	mov a,1
  17  0008  0080     R  	mov _delay_ms_2[0],a
  17  0009  1F00     R  	clr _delay_ms_2[1]
  17  000A  1F00     R  	clr _delay_ms_2[2]
  17  000B  1F00     R  	clr _delay_ms_2[3]
  17  000C  2000     R  	call _delay_ms
  18  000D              #line 18 "E:\hamed\touch2\segment1\segment1\segment1.c"
  18  000D  2000     R  	call _TB0_INIT
"File: segment1.c    Assembler  Version HGASM0202      Page 30

  19  000E              #line 19 "E:\hamed\touch2\segment1\segment1\segment1.c"
  19  000E  0F01        	mov a,1
  19  000F  0080     R  	mov _delay_ms_2[0],a
  19  0010  1F00     R  	clr _delay_ms_2[1]
  19  0011  1F00     R  	clr _delay_ms_2[2]
  19  0012  1F00     R  	clr _delay_ms_2[3]
  19  0013  2000     R  	call _delay_ms
  20  0014              #line 20 "E:\hamed\touch2\segment1\segment1\segment1.c"
  20  0014  2000     R  	call _TB1_INIT
  21  0015              #line 21 "E:\hamed\touch2\segment1\segment1\segment1.c"
  21  0015  0F01        	mov a,1
  21  0016  0080     R  	mov _delay_ms_2[0],a
  21  0017  1F00     R  	clr _delay_ms_2[1]
  21  0018  1F00     R  	clr _delay_ms_2[2]
  21  0019  1F00     R  	clr _delay_ms_2[3]
  21  001A  2000     R  	call _delay_ms
  22  001B              #line 22 "E:\hamed\touch2\segment1\segment1\segment1.c"
  22  001B  0F33        	mov a,51
  22  001C  2000     R  	call _UART_INIT
  23  001D              #line 23 "E:\hamed\touch2\segment1\segment1\segment1.c"
  23  001D  0F01        	mov a,1
  23  001E  0080     R  	mov _delay_ms_2[0],a
  23  001F  1F00     R  	clr _delay_ms_2[1]
  23  0020  1F00     R  	clr _delay_ms_2[2]
  23  0021  1F00     R  	clr _delay_ms_2[3]
  23  0022  2000     R  	call _delay_ms
  23  0023              _L129:
  30  0023              #line 30 "E:\hamed\touch2\segment1\segment1\segment1.c"
  30  0023              ;# 30 "E:\hamed\touch2\segment1\segment1\segment1.c" 1
  30  0023  0001        	clr wdt
  32  0024              #line 32 "E:\hamed\touch2\segment1\segment1\segment1.c"
  32  0024  2000     R  	call _UART_FUNCTION
  32  0025  2800     R  	jmp _L129
  32  0026  2800     R  	jmp $
  32  0027              _main endp
  32  0027              
  32  0027              @dummy endp
  32  0027              
  32  0027              #line 32 "E:\hamed\touch2\segment1\segment1\segment1.c"
  32  0027              #pragma debug scope 1 1
  32  0027              public _RxDone
  32  0000              @HCCINIT	.section 'data'

 168  0000              #line 168 "E:\hamed\touch2\segment1\segment1\UART.h"
 168  0000              @HCCINIT_RxDone .section 'data'
 168  0000              _RxDone label byte
 168  0000              #pragma debug variable 8 1 _RxDone "RxDone"
 168  0000              	db 0
 168  0000              @ROMDATA_BASE .section inpage 'code'
 168  0000              	db 0
 168  0001              @HCCINIT_RxDone .section 'data'
 168  0001              public _BufInd
 168  0001              #line 168 "E:\hamed\touch2\segment1\segment1\UART.h"
 168  0000              @HCCINIT_BufInd .section 'data'
 168  0000              _BufInd label byte
 168  0000              #pragma debug variable 8 1 _BufInd "BufInd"
 168  0000              	db 0
 168  0001              @ROMDATA_BASE .section inpage 'code'
 168  0001              	db 0
 168  0001              @HCCINIT_BufInd .section 'data'
"File: UART.h        Assembler  Version HGASM0202      Page 31

 168  0001              public _UartTime
 168  0001              #line 168 "E:\hamed\touch2\segment1\segment1\UART.h"
 168  0000              @HCCINIT_UartTime .section 'data'
 168  0000              _UartTime label byte
 168  0000              #pragma debug variable 8 1 _UartTime "UartTime"
 168  0000              	db 0
 168  0001              @ROMDATA_BASE .section inpage 'code'
 168  0001              	db 0
 168  0001              @HCCINIT_UartTime .section 'data'
 168  0001              public _BackupBuf
 168  0001              #line 168 "E:\hamed\touch2\segment1\segment1\UART.h"
 168  0000              @HCCINIT_BackupBuf .section 'data'
 168  0000              _BackupBuf label byte
 168  0000              #pragma debug array 44 8 10 1
 168  0000              #pragma debug array 44 8 10 1
 168  0000              #pragma debug variable 44 1 _BackupBuf "BackupBuf"
 168  0000              	db 0
 168  0002              @ROMDATA_BASE .section inpage 'code'
 168  0002              	db 0
 168  0001              @HCCINIT_BackupBuf .section 'data'
 168  0001              	db 0
 168  0002              @ROMDATA_BASE .section inpage 'code'
 168  0002              	db 0
 168  0002              @HCCINIT_BackupBuf .section 'data'
 168  0002              	db 0
 168  0003              @ROMDATA_BASE .section inpage 'code'
 168  0003              	db 0
 168  0003              @HCCINIT_BackupBuf .section 'data'
 168  0003              	db 0
 168  0003              @ROMDATA_BASE .section inpage 'code'
 168  0003              	db 0
 168  0004              @HCCINIT_BackupBuf .section 'data'
 168  0004              	db 0
 168  0004              @ROMDATA_BASE .section inpage 'code'
 168  0004              	db 0
 168  0005              @HCCINIT_BackupBuf .section 'data'
 168  0005              	db 0
 168  0004              @ROMDATA_BASE .section inpage 'code'
 168  0004              	db 0
 168  0006              @HCCINIT_BackupBuf .section 'data'
 168  0006              	db 0
 168  0005              @ROMDATA_BASE .section inpage 'code'
 168  0005              	db 0
 168  0007              @HCCINIT_BackupBuf .section 'data'
 168  0007              	db 0
 168  0005              @ROMDATA_BASE .section inpage 'code'
 168  0005              	db 0
 168  0008              @HCCINIT_BackupBuf .section 'data'
 168  0008              	db 0
 168  0006              @ROMDATA_BASE .section inpage 'code'
 168  0006              	db 0
 168  0009              @HCCINIT_BackupBuf .section 'data'
 168  0009              	db 0
 168  0006              @ROMDATA_BASE .section inpage 'code'
 168  0006              	db 0
 168  000A              @HCCINIT_BackupBuf .section 'data'
 168  000A              public _BufRx
 168  000A              #line 168 "E:\hamed\touch2\segment1\segment1\UART.h"
 168  0000              @HCCINIT_BufRx .section 'data'
 168  0000              _BufRx label byte
"File: UART.h        Assembler  Version HGASM0202      Page 32

 168  0000              #pragma debug variable 44 1 _BufRx "BufRx"
 168  0000              	db 0
 168  0007              @ROMDATA_BASE .section inpage 'code'
 168  0007              	db 0
 168  0001              @HCCINIT_BufRx .section 'data'
 168  0001              	db 0
 168  0007              @ROMDATA_BASE .section inpage 'code'
 168  0007              	db 0
 168  0002              @HCCINIT_BufRx .section 'data'
 168  0002              	db 0
 168  0008              @ROMDATA_BASE .section inpage 'code'
 168  0008              	db 0
 168  0003              @HCCINIT_BufRx .section 'data'
 168  0003              	db 0
 168  0008              @ROMDATA_BASE .section inpage 'code'
 168  0008              	db 0
 168  0004              @HCCINIT_BufRx .section 'data'
 168  0004              	db 0
 168  0009              @ROMDATA_BASE .section inpage 'code'
 168  0009              	db 0
 168  0005              @HCCINIT_BufRx .section 'data'
 168  0005              	db 0
 168  0009              @ROMDATA_BASE .section inpage 'code'
 168  0009              	db 0
 168  0006              @HCCINIT_BufRx .section 'data'
 168  0006              	db 0
 168  000A              @ROMDATA_BASE .section inpage 'code'
 168  000A              	db 0
 168  0007              @HCCINIT_BufRx .section 'data'
 168  0007              	db 0
 168  000A              @ROMDATA_BASE .section inpage 'code'
 168  000A              	db 0
 168  0008              @HCCINIT_BufRx .section 'data'
 168  0008              	db 0
 168  000B              @ROMDATA_BASE .section inpage 'code'
 168  000B              	db 0
 168  0009              @HCCINIT_BufRx .section 'data'
 168  0009              	db 0
 168  000B              @ROMDATA_BASE .section inpage 'code'
 168  000B              	db 0
 168  000A              @HCCINIT_BufRx .section 'data'
  49  000A              #line 49 "E:\hamed\touch2\segment1\segment1\UART.h"
  49  000A              public _UART_RX_FLAG
  49  0000              @HCCINIT0_UART_RX_FLAG .section 'data'
  49  0000              _UART_RX_FLAG	db 0
  49  0001              #pragma debug variable 8 1 _UART_RX_FLAG "UART_RX_FLAG"
  49  0001              
  49  0000              @HCCINIT .section 'data'
  48  0000              #line 48 "E:\hamed\touch2\segment1\segment1\UART.h"
  48  0000              public _g_nUART_err_Flag
  48  0000              @HCCINIT0_g_nUART_err_Flag .section 'data'
  48  0000              _g_nUART_err_Flag	db 0
  48  0001              #pragma debug variable 8 1 _g_nUART_err_Flag "g_nUART_err_Flag"
  48  0001              
  48  0000              @HCCINIT .section 'data'
  47  0000              #line 47 "E:\hamed\touch2\segment1\segment1\UART.h"
  47  0000              public _g_nUART_ISR_Value
  47  0000              @HCCINIT0_g_nUART_ISR_Value .section 'data'
  47  0000  0004[       _g_nUART_ISR_Value	db 4 dup(0)
            00
"File: UART.h        Assembler  Version HGASM0202      Page 33

            ]
  47  0004              #pragma debug array 45 12 2 1
  47  0004              #pragma debug array 45 12 2 1
  47  0004              #pragma debug variable 45 1 _g_nUART_ISR_Value "g_nUART_ISR_Value"
  47  0004              
  47  0000              @HCCINIT .section 'data'
  47  0000              public _ni

  44  0000              #line 44 "E:\hamed\touch2\segment1\segment1\TIMEBASE.h"
  44  0000              @HCCINIT_ni .section 'data'
  44  0000              _ni label byte
  44  0000              #pragma debug variable 14 1 _ni "ni"
  44  0000              	db 0
  44  000C              @ROMDATA_BASE .section inpage 'code'
  44  000C              	db 0
  44  0001              @HCCINIT_ni .section 'data'
  44  0001              	db 0
  44  000C              @ROMDATA_BASE .section inpage 'code'
  44  000C              	db 0
  44  0002              @HCCINIT_ni .section 'data'
  44  0002              	db 0
  44  000D              @ROMDATA_BASE .section inpage 'code'
  44  000D              	db 0
  44  0003              @HCCINIT_ni .section 'data'
  44  0003              	db 0
  44  000D              @ROMDATA_BASE .section inpage 'code'
  44  000D              	db 0
  44  0004              @HCCINIT_ni .section 'data'
  44  0004              public _uart_s
  43  0004              #line 43 "E:\hamed\touch2\segment1\segment1\TIMEBASE.h"
  43  0000              @HCCINIT_uart_s .section 'data'
  43  0000              _uart_s label byte
  43  0000              #pragma debug variable 11 1 _uart_s "uart_s"
  43  0000              	db 0
  43  000E              @ROMDATA_BASE .section inpage 'code'
  43  000E              	db 0
  43  0001              @HCCINIT_uart_s .section 'data'
  43  0001              	db 0
  43  000E              @ROMDATA_BASE .section inpage 'code'
  43  000E              	db 0
  43  0002              @HCCINIT_uart_s .section 'data'
  43  0002              public _conter8
  43  0002              #line 43 "E:\hamed\touch2\segment1\segment1\TIMEBASE.h"
  43  0000              @HCCINIT_conter8 .section 'data'
  43  0000              _conter8 label byte
  43  0000              #pragma debug variable 11 1 _conter8 "conter8"
  43  0000              	db 0
  43  000F              @ROMDATA_BASE .section inpage 'code'
  43  000F              	db 0
  43  0001              @HCCINIT_conter8 .section 'data'
  43  0001              	db 0
  43  000F              @ROMDATA_BASE .section inpage 'code'
  43  000F              	db 0
  43  0002              @HCCINIT_conter8 .section 'data'
  43  0002              public _rizesh
  43  0002              #line 43 "E:\hamed\touch2\segment1\segment1\TIMEBASE.h"
  43  0000              @HCCINIT_rizesh .section 'data'
  43  0000              _rizesh label byte
  43  0000              #pragma debug variable 11 1 _rizesh "rizesh"
  43  0000              	dw 8
"File: TIMEBASE.h    Assembler  Version HGASM0202      Page 34

  43  0010              @ROMDATA_BASE .section inpage 'code'
  43  0010  0008        	dc 8
  43  0002              @HCCINIT_rizesh .section 'data'
  43  0002              public _row
  42  0002              #line 42 "E:\hamed\touch2\segment1\segment1\TIMEBASE.h"
  42  0000              @HCCINIT_row .section 'data'
  42  0000              _row label byte
  42  0000              #pragma debug variable 11 1 _row "row"
  42  0000              	db 0
  42  0011              @ROMDATA_BASE .section inpage 'code'
  42  0011              	db 0
  42  0001              @HCCINIT_row .section 'data'
  42  0001              	db 0
  42  0011              @ROMDATA_BASE .section inpage 'code'
  42  0011              	db 0
  42  0002              @HCCINIT_row .section 'data'
  42  0002              public _R
  42  0002              #line 42 "E:\hamed\touch2\segment1\segment1\TIMEBASE.h"
  42  0000              @HCCINIT_R .section 'data'
  42  0000              _R label byte
  42  0000              #pragma debug variable 11 1 _R "R"
  42  0000              	db 0
  42  0012              @ROMDATA_BASE .section inpage 'code'
  42  0012              	db 0
  42  0001              @HCCINIT_R .section 'data'
  42  0001              	db 0
  42  0012              @ROMDATA_BASE .section inpage 'code'
  42  0012              	db 0
  42  0002              @HCCINIT_R .section 'data'
  42  0002              public _DN
  42  0002              #line 42 "E:\hamed\touch2\segment1\segment1\TIMEBASE.h"
  42  0000              @HCCINIT_DN .section 'data'
  42  0000              _DN label byte
  42  0000              #pragma debug variable 11 1 _DN "DN"
  42  0000              	db 0
  42  0013              @ROMDATA_BASE .section inpage 'code'
  42  0013              	db 0
  42  0001              @HCCINIT_DN .section 'data'
  42  0001              	db 0
  42  0013              @ROMDATA_BASE .section inpage 'code'
  42  0013              	db 0
  42  0002              @HCCINIT_DN .section 'data'
  42  0002              public _UP
  42  0002              #line 42 "E:\hamed\touch2\segment1\segment1\TIMEBASE.h"
  42  0000              @HCCINIT_UP .section 'data'
  42  0000              _UP label byte
  42  0000              #pragma debug variable 11 1 _UP "UP"
  42  0000              	dw 1
  42  0014              @ROMDATA_BASE .section inpage 'code'
  42  0014  0001        	dc 1
  42  0002              @HCCINIT_UP .section 'data'
  42  0002              public _nj
  42  0002              #line 42 "E:\hamed\touch2\segment1\segment1\TIMEBASE.h"
  42  0000              @HCCINIT_nj .section 'data'
  42  0000              _nj label byte
  42  0000              #pragma debug variable 11 1 _nj "nj"
  42  0000              	db 0
  42  0015              @ROMDATA_BASE .section inpage 'code'
  42  0015              	db 0
  42  0001              @HCCINIT_nj .section 'data'
"File: TIMEBASE.h    Assembler  Version HGASM0202      Page 35

  42  0001              	db 0
  42  0015              @ROMDATA_BASE .section inpage 'code'
  42  0015              	db 0
  42  0002              @HCCINIT_nj .section 'data'
  42  0002              public _n
  42  0002              #line 42 "E:\hamed\touch2\segment1\segment1\TIMEBASE.h"
  42  0000              @HCCINIT_n .section 'data'
  42  0000              _n label byte
  42  0000              #pragma debug variable 11 1 _n "n"
  42  0000              	db 0
  42  0016              @ROMDATA_BASE .section inpage 'code'
  42  0016              	db 0
  42  0001              @HCCINIT_n .section 'data'
  42  0001              	db 0
  42  0016              @ROMDATA_BASE .section inpage 'code'
  42  0016              	db 0
  42  0002              @HCCINIT_n .section 'data'
  42  0002              public _oldnaumber
  42  0002              #line 42 "E:\hamed\touch2\segment1\segment1\TIMEBASE.h"
  42  0000              @HCCINIT_oldnaumber .section 'data'
  42  0000              _oldnaumber label byte
  42  0000              #pragma debug variable 11 1 _oldnaumber "oldnaumber"
  42  0000              	db 0
  42  0017              @ROMDATA_BASE .section inpage 'code'
  42  0017              	db 0
  42  0001              @HCCINIT_oldnaumber .section 'data'
  42  0001              	db 0
  42  0017              @ROMDATA_BASE .section inpage 'code'
  42  0017              	db 0
  42  0002              @HCCINIT_oldnaumber .section 'data'
  42  0002              public _newnaumber
  42  0002              #line 42 "E:\hamed\touch2\segment1\segment1\TIMEBASE.h"
  42  0000              @HCCINIT_newnaumber .section 'data'
  42  0000              _newnaumber label byte
  42  0000              #pragma debug variable 11 1 _newnaumber "newnaumber"
  42  0000              	db 0
  42  0018              @ROMDATA_BASE .section inpage 'code'
  42  0018              	db 0
  42  0001              @HCCINIT_newnaumber .section 'data'
  42  0001              	db 0
  42  0018              @ROMDATA_BASE .section inpage 'code'
  42  0018              	db 0
  42  0002              @HCCINIT_newnaumber .section 'data'
  42  0002              public _jahatDOOR
  42  0000              @crom	.section 'crom'

  82  0000              #line 82 "E:\hamed\touch2\segment1\segment1\IO.h"
  82  0000              @crom	.section	'crom'
  82  0000              _jahatDOOR:
  82  0000              #pragma debug array 46 8 8 1
  82  0000              #pragma debug array 46 8 8 1
  82  0000              #pragma debug array 47 46 8 1
  82  0000              #pragma debug array 47 46 8 1
  82  0000              #pragma debug variable 47 1 _jahatDOOR "jahatDOOR"
  82  0000              	db -1
  82  0001              	db -1
  82  0001              	db -1
  82  0002              	db 7
  82  0002              	db 7
  82  0003              	db 7
"File: IO.h          Assembler  Version HGASM0202      Page 36

  82  0003              	db 7
  82  0004              	db 7
  82  0004              	db -1
  82  0005              	db -1
  82  0005              	db -1
  82  0006              	db 7
  82  0006              	db 7
  82  0007              	db 7
  82  0007              	db 7
  82  0008              	db 7
  82  0008              	db -1
  82  0009              	db -1
  82  0009              	db -1
  82  000A              	db 7
  82  000A              	db 7
  82  000B              	db 7
  82  000B              	db 7
  82  000C              	db 7
  82  000C              	db -1
  82  000D              	db -1
  82  000D              	db -1
  82  000E              	db 7
  82  000E              	db 7
  82  000F              	db 7
  82  000F              	db 7
  82  0010              	db 7
  82  0010              	db -1
  82  0011              	db -1
  82  0011              	db -1
  82  0012              	db 7
  82  0012              	db 7
  82  0013              	db 7
  82  0013              	db 7
  82  0014              	db 7
  82  0014              	db -1
  82  0015              	db -1
  82  0015              	db -1
  82  0016              	db 7
  82  0016              	db 7
  82  0017              	db 7
  82  0017              	db 7
  82  0018              	db 7
  82  0018              	db -1
  82  0019              	db -1
  82  0019              	db -1
  82  001A              	db 7
  82  001A              	db 7
  82  001B              	db 7
  82  001B              	db 7
  82  001C              	db 7
  82  001C              	db -1
  82  001D              	db -1
  82  001D              	db -1
  82  001E              	db 7
  82  001E              	db 7
  82  001F              	db 7
  82  001F              	db 7
  82  0020              	db 7
  82  0020              public _jahatDN
  70  0020              #line 70 "E:\hamed\touch2\segment1\segment1\IO.h"
"File: IO.h          Assembler  Version HGASM0202      Page 37

  70  0020              @crom	.section	'crom'
  70  0020              _jahatDN:
  70  0020              #pragma debug variable 47 1 _jahatDN "jahatDN"
  70  0020              	db -32
  70  0021              	db -32
  70  0021              	db -32
  70  0022              	db -32
  70  0022              	db -32
  70  0023              	db -1
  70  0023              	db -1
  70  0024              	db -1
  70  0024              	db -63
  70  0025              	db -64
  70  0025              	db -64
  70  0026              	db -64
  70  0026              	db -64
  70  0027              	db -64
  70  0027              	db -1
  70  0028              	db -1
  70  0028              	db -125
  70  0029              	db -125
  70  0029              	db -128
  70  002A              	db -128
  70  002A              	db -128
  70  002B              	db -128
  70  002B              	db -128
  70  002C              	db -1
  70  002C              	db 7
  70  002D              	db 7
  70  002D              	db 7
  70  002E              	db 0
  70  002E              	db 0
  70  002F              	db 0
  70  002F              	db 0
  70  0030              	db 0
  70  0030              	db 14
  70  0031              	db 15
  70  0031              	db 15
  70  0032              	db 15
  70  0032              	db 0
  70  0033              	db 0
  70  0033              	db 0
  70  0034              	db 0
  70  0034              	db 28
  70  0035              	db 28
  70  0035              	db 31
  70  0036              	db 31
  70  0036              	db 31
  70  0037              	db 0
  70  0037              	db 0
  70  0038              	db 0
  70  0038              	db 56
  70  0039              	db 56
  70  0039              	db 56
  70  003A              	db 63
  70  003A              	db 63
  70  003B              	db 63
  70  003B              	db 0
  70  003C              	db 0
  70  003C              	db 112
"File: IO.h          Assembler  Version HGASM0202      Page 38

  70  003D              	db 112
  70  003D              	db 112
  70  003E              	db 112
  70  003E              	db 127
  70  003F              	db 127
  70  003F              	db 127
  70  0040              	db 0
  70  0040              public _jahatUP
  58  0040              #line 58 "E:\hamed\touch2\segment1\segment1\IO.h"
  58  0040              @crom	.section	'crom'
  58  0040              _jahatUP:
  58  0040              #pragma debug variable 47 1 _jahatUP "jahatUP"
  58  0040              	db -1
  58  0041              	db -1
  58  0041              	db -1
  58  0042              	db 7
  58  0042              	db 7
  58  0043              	db 7
  58  0043              	db 7
  58  0044              	db 7
  58  0044              	db -1
  58  0045              	db -1
  58  0045              	db 3
  58  0046              	db 3
  58  0046              	db 3
  58  0047              	db 3
  58  0047              	db 3
  58  0048              	db -125
  58  0048              	db -1
  58  0049              	db 1
  58  0049              	db 1
  58  004A              	db 1
  58  004A              	db 1
  58  004B              	db 1
  58  004B              	db -63
  58  004C              	db -63
  58  004C              	db 0
  58  004D              	db 0
  58  004D              	db 0
  58  004E              	db 0
  58  004E              	db 0
  58  004F              	db -32
  58  004F              	db -32
  58  0050              	db -32
  58  0050              	db 0
  58  0051              	db 0
  58  0051              	db 0
  58  0052              	db 0
  58  0052              	db -16
  58  0053              	db -16
  58  0053              	db -16
  58  0054              	db 112
  58  0054              	db 0
  58  0055              	db 0
  58  0055              	db 0
  58  0056              	db -8
  58  0056              	db -8
  58  0057              	db -8
  58  0057              	db 56
  58  0058              	db 56
"File: IO.h          Assembler  Version HGASM0202      Page 39

  58  0058              	db 0
  58  0059              	db 0
  58  0059              	db -4
  58  005A              	db -4
  58  005A              	db -4
  58  005B              	db 28
  58  005B              	db 28
  58  005C              	db 28
  58  005C              	db 0
  58  005D              	db -2
  58  005D              	db -2
  58  005E              	db -2
  58  005E              	db 14
  58  005F              	db 14
  58  005F              	db 14
  58  0060              	db 14
  58  0060              public _numbers
  43  0060              #line 43 "E:\hamed\touch2\segment1\segment1\IO.h"
  43  0060              @crom	.section	'crom'
  43  0060              _numbers:
  43  0060              #pragma debug array 48 46 14 1
  43  0060              #pragma debug array 48 46 14 1
  43  0060              #pragma debug variable 48 1 _numbers "numbers"
  43  0060              	db 0
  43  0061              	db 126
  43  0061              	db -127
  43  0062              	db -127
  43  0062              	db -111
  43  0063              	db -111
  43  0063              	db -14
  43  0064              	db 0
  43  0064              	db 0
  43  0065              	db 0
  43  0065              	db 0
  43  0066              	db -126
  43  0066              	db -1
  43  0067              	db -128
  43  0067              	db 0
  43  0068              	db 0
  43  0068              	db 0
  43  0069              	db -62
  43  0069              	db -95
  43  006A              	db -111
  43  006A              	db -111
  43  006B              	db -111
  43  006B              	db -114
  43  006C              	db 0
  43  006C              	db 0
  43  006D              	db 66
  43  006D              	db -119
  43  006E              	db -119
  43  006E              	db -119
  43  006F              	db -119
  43  006F              	db 118
  43  0070              	db 0
  43  0070              	db 0
  43  0071              	db 48
  43  0071              	db 40
  43  0072              	db 36
  43  0072              	db 34
"File: IO.h          Assembler  Version HGASM0202      Page 40

  43  0073              	db -1
  43  0073              	db 32
  43  0074              	db 0
  43  0074              	db 0
  43  0075              	db 79
  43  0075              	db -119
  43  0076              	db -119
  43  0076              	db -119
  43  0077              	db -119
  43  0077              	db 113
  43  0078              	db 0
  43  0078              	db 0
  43  0079              	db 126
  43  0079              	db -119
  43  007A              	db -119
  43  007A              	db -119
  43  007B              	db -119
  43  007B              	db 114
  43  007C              	db 0
  43  007C              	db 0
  43  007D              	db 1
  43  007D              	db 1
  43  007E              	db -31
  43  007E              	db 17
  43  007F              	db 9
  43  007F              	db 7
  43  0080              	db 0
  43  0080              	db 0
  43  0081              	db 118
  43  0081              	db -119
  43  0082              	db -119
  43  0082              	db -119
  43  0083              	db -119
  43  0083              	db 118
  43  0084              	db 0
  43  0084              	db 0
  43  0085              	db 78
  43  0085              	db -111
  43  0086              	db -111
  43  0086              	db -111
  43  0087              	db -111
  43  0087              	db 126
  43  0088              	db 0
  43  0088              	db -1
  43  0089              	db -1
  43  0089              	db -1
  43  008A              	db 7
  43  008A              	db 7
  43  008B              	db 7
  43  008B              	db 7
  43  008C              	db 7
  43  008C              	db 7
  43  008D              	db 7
  43  008D              	db 7
  43  008E              	db 7
  43  008E              	db 7
  43  008F              	db -1
  43  008F              	db -1
  43  0090              	db -1
  43  0090              	db 0
"File: IO.h          Assembler  Version HGASM0202      Page 41

  43  0091              	db 0
  43  0091              	db 0
  43  0092              	db 0
  43  0092              	db 0
  43  0093              	db 0
  43  0093              	db 0
  43  0094              	db 0
  43  0094              	db 0
  43  0095              	db 0
  43  0095              	db 0
  43  0096              	db 0
  43  0096              	db 0
  43  0097              	db 0
  43  0097              	db 0
  43  0098              	db 0
  43  0098              #pragma debug variable 8 1 ___acc "__acc" 1
  43  0098              #pragma debug struct_end
  43  0098              #pragma debug struct_end
  43  0098              #pragma debug union_end
  43  0098              #pragma debug union_end
  43  0098              #pragma debug variable 50 1 ___intc0 "__intc0" 1
  43  0098              #pragma debug struct_end
  43  0098              #pragma debug struct_end
  43  0098              #pragma debug union_end
  43  0098              #pragma debug union_end
  43  0098              #pragma debug variable 52 1 ___intc1 "__intc1" 1
  43  0098              #pragma debug struct_end
  43  0098              #pragma debug struct_end
  43  0098              #pragma debug union_end
  43  0098              #pragma debug union_end
  43  0098              #pragma debug variable 54 1 ___intc2 "__intc2" 1
  43  0098              #pragma debug struct_end
  43  0098              #pragma debug struct_end
  43  0098              #pragma debug union_end
  43  0098              #pragma debug union_end
  43  0098              #pragma debug variable 56 1 ___pa "__pa" 1
  43  0098              #pragma debug struct_end
  43  0098              #pragma debug struct_end
  43  0098              #pragma debug union_end
  43  0098              #pragma debug union_end
  43  0098              #pragma debug variable 58 1 ___pac "__pac" 1
  43  0098              #pragma debug struct_end
  43  0098              #pragma debug struct_end
  43  0098              #pragma debug union_end
  43  0098              #pragma debug union_end
  43  0098              #pragma debug variable 60 1 ___papu "__papu" 1
  43  0098              #pragma debug struct_end
  43  0098              #pragma debug struct_end
  43  0098              #pragma debug union_end
  43  0098              #pragma debug union_end
  43  0098              #pragma debug variable 62 1 ___pb "__pb" 1
  43  0098              #pragma debug struct_end
  43  0098              #pragma debug struct_end
  43  0098              #pragma debug union_end
  43  0098              #pragma debug union_end
  43  0098              #pragma debug variable 64 1 ___pbc "__pbc" 1
  43  0098              #pragma debug struct_end
  43  0098              #pragma debug struct_end
  43  0098              #pragma debug union_end
  43  0098              #pragma debug union_end
"File: IO.h          Assembler  Version HGASM0202      Page 42

  43  0098              #pragma debug variable 66 1 ___pc "__pc" 1
  43  0098              #pragma debug struct_end
  43  0098              #pragma debug struct_end
  43  0098              #pragma debug union_end
  43  0098              #pragma debug union_end
  43  0098              #pragma debug variable 68 1 ___pcc "__pcc" 1
  43  0098              #pragma debug struct_end
  43  0098              #pragma debug struct_end
  43  0098              #pragma debug union_end
  43  0098              #pragma debug union_end
  43  0098              #pragma debug variable 70 1 ___psc0r "__psc0r" 1
  43  0098              #pragma debug struct_end
  43  0098              #pragma debug struct_end
  43  0098              #pragma debug union_end
  43  0098              #pragma debug union_end
  43  0098              #pragma debug variable 72 1 ___tb0c "__tb0c" 1
  43  0098              #pragma debug struct_end
  43  0098              #pragma debug struct_end
  43  0098              #pragma debug union_end
  43  0098              #pragma debug union_end
  43  0098              #pragma debug variable 74 1 ___tb1c "__tb1c" 1
  43  0098              #pragma debug struct_end
  43  0098              #pragma debug struct_end
  43  0098              #pragma debug union_end
  43  0098              #pragma debug union_end
  43  0098              #pragma debug variable 76 1 ___psc1r "__psc1r" 1
  43  0098              #pragma debug struct_end
  43  0098              #pragma debug struct_end
  43  0098              #pragma debug union_end
  43  0098              #pragma debug union_end
  43  0098              #pragma debug variable 78 1 ___pe "__pe" 1
  43  0098              #pragma debug struct_end
  43  0098              #pragma debug struct_end
  43  0098              #pragma debug union_end
  43  0098              #pragma debug union_end
  43  0098              #pragma debug variable 80 1 ___pec "__pec" 1
  43  0098              #pragma debug struct_end
  43  0098              #pragma debug struct_end
  43  0098              #pragma debug union_end
  43  0098              #pragma debug union_end
  43  0098              #pragma debug variable 82 1 ___usr "__usr" 1
  43  0098              #pragma debug struct_end
  43  0098              #pragma debug struct_end
  43  0098              #pragma debug union_end
  43  0098              #pragma debug union_end
  43  0098              #pragma debug variable 84 1 ___ucr1 "__ucr1" 1
  43  0098              #pragma debug struct_end
  43  0098              #pragma debug struct_end
  43  0098              #pragma debug union_end
  43  0098              #pragma debug union_end
  43  0098              #pragma debug variable 86 1 ___ucr2 "__ucr2" 1
  43  0098              #pragma debug struct_end
  43  0098              #pragma debug struct_end
  43  0098              #pragma debug union_end
  43  0098              #pragma debug union_end
  43  0098              #pragma debug variable 88 1 ___txr_rxr "__txr_rxr" 1
  43  0098              #pragma debug variable 8 1 ___brg "__brg" 1
  43  0098              #pragma debug struct_end
  43  0098              #pragma debug struct_end
  43  0098              #pragma debug union_end
"File: IO.h          Assembler  Version HGASM0202      Page 43

  43  0098              #pragma debug union_end
  43  0098              #pragma debug variable 90 1 ___ifs1 "__ifs1" 1
  43  0098              #pragma debug struct_end
  43  0098              #pragma debug struct_end
  43  0098              #pragma debug union_end
  43  0098              #pragma debug union_end
  43  0098              #pragma debug variable 92 1 ___pas0 "__pas0" 1
  43  0098              #pragma debug struct_end
  43  0098              #pragma debug struct_end
  43  0098              #pragma debug union_end
  43  0098              #pragma debug union_end
  43  0098              #pragma debug variable 94 1 ___pas1 "__pas1" 1
  43  0098              extern r1:byte
  43  0098              extern r2:byte
  43  0098              extern r3:byte
  43  0098              extern r4:byte
  43  0098              extern r5:byte
  43  0098              extern r6:byte

  14  0098              #line 14 "E:\hamed\touch2\segment1\segment1\segment1.c"
  14  0000              @code .section at 0 'code'
  14  0000  2800     R  	jmp _main_startup1
  14  0001              
  14  0001              extern _builtin_holtek_mulsi3_2:byte
  14  0001              extern _builtin_holtek_mulsi3:near
  14  0001              
  14  0001              ; 
  14  0001              ; Generated by holtek-gcc v3.19, Mon Feb 03 18:56:41 2025
  14  0001              ; Rebuild 718
  14  0001              ; end of file


        0 Errors, 0